ARM GAS  C:\Users\naoki\AppData\Local\Temp\ccSdjnZj.s 			page 1


   1              		.cpu cortex-m4
   2              		.arch armv7e-m
   3              		.fpu fpv4-sp-d16
   4              		.eabi_attribute 27, 1
   5              		.eabi_attribute 28, 1
   6              		.eabi_attribute 20, 1
   7              		.eabi_attribute 21, 1
   8              		.eabi_attribute 23, 3
   9              		.eabi_attribute 24, 1
  10              		.eabi_attribute 25, 1
  11              		.eabi_attribute 26, 1
  12              		.eabi_attribute 30, 1
  13              		.eabi_attribute 34, 1
  14              		.eabi_attribute 18, 4
  15              		.file	"adc.c"
  16              		.text
  17              	.Ltext0:
  18              		.cfi_sections	.debug_frame
  19              		.file 1 "Core/Src/adc.c"
  20              		.section	.text.MX_ADC2_Init,"ax",%progbits
  21              		.align	1
  22              		.global	MX_ADC2_Init
  23              		.syntax unified
  24              		.thumb
  25              		.thumb_func
  27              	MX_ADC2_Init:
  28              	.LFB130:
   1:Core/Src/adc.c **** /* USER CODE BEGIN Header */
   2:Core/Src/adc.c **** 
   3:Core/Src/adc.c **** /**
   4:Core/Src/adc.c **** 
   5:Core/Src/adc.c ****   ******************************************************************************
   6:Core/Src/adc.c **** 
   7:Core/Src/adc.c ****   * @file    adc.c
   8:Core/Src/adc.c **** 
   9:Core/Src/adc.c ****   * @brief   This file provides code for the configuration
  10:Core/Src/adc.c **** 
  11:Core/Src/adc.c ****   *          of the ADC instances.
  12:Core/Src/adc.c **** 
  13:Core/Src/adc.c ****   ******************************************************************************
  14:Core/Src/adc.c **** 
  15:Core/Src/adc.c ****   * @attention
  16:Core/Src/adc.c **** 
  17:Core/Src/adc.c ****   *
  18:Core/Src/adc.c **** 
  19:Core/Src/adc.c ****   * Copyright (c) 2025 STMicroelectronics.
  20:Core/Src/adc.c **** 
  21:Core/Src/adc.c ****   * All rights reserved.
  22:Core/Src/adc.c **** 
  23:Core/Src/adc.c ****   *
  24:Core/Src/adc.c **** 
  25:Core/Src/adc.c ****   * This software is licensed under terms that can be found in the LICENSE file
  26:Core/Src/adc.c **** 
  27:Core/Src/adc.c ****   * in the root directory of this software component.
  28:Core/Src/adc.c **** 
  29:Core/Src/adc.c ****   * If no LICENSE file comes with this software, it is provided AS-IS.
  30:Core/Src/adc.c **** 
ARM GAS  C:\Users\naoki\AppData\Local\Temp\ccSdjnZj.s 			page 2


  31:Core/Src/adc.c ****   *
  32:Core/Src/adc.c **** 
  33:Core/Src/adc.c ****   ******************************************************************************
  34:Core/Src/adc.c **** 
  35:Core/Src/adc.c ****   */
  36:Core/Src/adc.c **** 
  37:Core/Src/adc.c **** /* USER CODE END Header */
  38:Core/Src/adc.c **** 
  39:Core/Src/adc.c **** /* Includes ------------------------------------------------------------------*/
  40:Core/Src/adc.c **** 
  41:Core/Src/adc.c **** #include "adc.h"
  42:Core/Src/adc.c **** 
  43:Core/Src/adc.c **** 
  44:Core/Src/adc.c **** 
  45:Core/Src/adc.c **** /* USER CODE BEGIN 0 */
  46:Core/Src/adc.c **** 
  47:Core/Src/adc.c **** 
  48:Core/Src/adc.c **** 
  49:Core/Src/adc.c **** /* USER CODE END 0 */
  50:Core/Src/adc.c **** 
  51:Core/Src/adc.c **** 
  52:Core/Src/adc.c **** 
  53:Core/Src/adc.c **** ADC_HandleTypeDef hadc2;
  54:Core/Src/adc.c **** 
  55:Core/Src/adc.c **** ADC_HandleTypeDef hadc3;
  56:Core/Src/adc.c **** 
  57:Core/Src/adc.c **** ADC_HandleTypeDef hadc4;
  58:Core/Src/adc.c **** 
  59:Core/Src/adc.c **** 
  60:Core/Src/adc.c **** 
  61:Core/Src/adc.c **** /* ADC2 init function */
  62:Core/Src/adc.c **** 
  63:Core/Src/adc.c **** void MX_ADC2_Init(void)
  64:Core/Src/adc.c **** 
  65:Core/Src/adc.c **** {
  29              		.loc 1 65 1 view -0
  30              		.cfi_startproc
  31              		@ args = 0, pretend = 0, frame = 24
  32              		@ frame_needed = 0, uses_anonymous_args = 0
  33 0000 00B5     		push	{lr}
  34              	.LCFI0:
  35              		.cfi_def_cfa_offset 4
  36              		.cfi_offset 14, -4
  37 0002 87B0     		sub	sp, sp, #28
  38              	.LCFI1:
  39              		.cfi_def_cfa_offset 32
  66:Core/Src/adc.c **** 
  67:Core/Src/adc.c **** 
  68:Core/Src/adc.c **** 
  69:Core/Src/adc.c ****   /* USER CODE BEGIN ADC2_Init 0 */
  70:Core/Src/adc.c **** 
  71:Core/Src/adc.c **** 
  72:Core/Src/adc.c **** 
  73:Core/Src/adc.c ****   /* USER CODE END ADC2_Init 0 */
  74:Core/Src/adc.c **** 
  75:Core/Src/adc.c **** 
  76:Core/Src/adc.c **** 
ARM GAS  C:\Users\naoki\AppData\Local\Temp\ccSdjnZj.s 			page 3


  77:Core/Src/adc.c ****   ADC_ChannelConfTypeDef sConfig = {0};
  40              		.loc 1 77 3 view .LVU1
  41              		.loc 1 77 26 is_stmt 0 view .LVU2
  42 0004 0023     		movs	r3, #0
  43 0006 0093     		str	r3, [sp]
  44 0008 0193     		str	r3, [sp, #4]
  45 000a 0293     		str	r3, [sp, #8]
  46 000c 0393     		str	r3, [sp, #12]
  47 000e 0493     		str	r3, [sp, #16]
  48 0010 0593     		str	r3, [sp, #20]
  78:Core/Src/adc.c **** 
  79:Core/Src/adc.c **** 
  80:Core/Src/adc.c **** 
  81:Core/Src/adc.c ****   /* USER CODE BEGIN ADC2_Init 1 */
  82:Core/Src/adc.c **** 
  83:Core/Src/adc.c **** 
  84:Core/Src/adc.c **** 
  85:Core/Src/adc.c ****   /* USER CODE END ADC2_Init 1 */
  86:Core/Src/adc.c **** 
  87:Core/Src/adc.c **** 
  88:Core/Src/adc.c **** 
  89:Core/Src/adc.c ****   /** Common config
  90:Core/Src/adc.c **** 
  91:Core/Src/adc.c ****   */
  92:Core/Src/adc.c **** 
  93:Core/Src/adc.c ****   hadc2.Instance = ADC2;
  49              		.loc 1 93 3 is_stmt 1 view .LVU3
  50              		.loc 1 93 18 is_stmt 0 view .LVU4
  51 0012 1648     		ldr	r0, .L7
  52 0014 164A     		ldr	r2, .L7+4
  53 0016 0260     		str	r2, [r0]
  94:Core/Src/adc.c **** 
  95:Core/Src/adc.c ****   hadc2.Init.ClockPrescaler = ADC_CLOCK_ASYNC_DIV1;
  54              		.loc 1 95 3 is_stmt 1 view .LVU5
  55              		.loc 1 95 29 is_stmt 0 view .LVU6
  56 0018 4360     		str	r3, [r0, #4]
  96:Core/Src/adc.c **** 
  97:Core/Src/adc.c ****   hadc2.Init.Resolution = ADC_RESOLUTION_12B;
  57              		.loc 1 97 3 is_stmt 1 view .LVU7
  58              		.loc 1 97 25 is_stmt 0 view .LVU8
  59 001a 8360     		str	r3, [r0, #8]
  98:Core/Src/adc.c **** 
  99:Core/Src/adc.c ****   hadc2.Init.ScanConvMode = ADC_SCAN_DISABLE;
  60              		.loc 1 99 3 is_stmt 1 view .LVU9
  61              		.loc 1 99 27 is_stmt 0 view .LVU10
  62 001c 0361     		str	r3, [r0, #16]
 100:Core/Src/adc.c **** 
 101:Core/Src/adc.c ****   hadc2.Init.ContinuousConvMode = DISABLE;
  63              		.loc 1 101 3 is_stmt 1 view .LVU11
  64              		.loc 1 101 33 is_stmt 0 view .LVU12
  65 001e 4376     		strb	r3, [r0, #25]
 102:Core/Src/adc.c **** 
 103:Core/Src/adc.c ****   hadc2.Init.DiscontinuousConvMode = DISABLE;
  66              		.loc 1 103 3 is_stmt 1 view .LVU13
  67              		.loc 1 103 36 is_stmt 0 view .LVU14
  68 0020 80F82030 		strb	r3, [r0, #32]
 104:Core/Src/adc.c **** 
ARM GAS  C:\Users\naoki\AppData\Local\Temp\ccSdjnZj.s 			page 4


 105:Core/Src/adc.c ****   hadc2.Init.ExternalTrigConvEdge = ADC_EXTERNALTRIGCONVEDGE_NONE;
  69              		.loc 1 105 3 is_stmt 1 view .LVU15
  70              		.loc 1 105 35 is_stmt 0 view .LVU16
  71 0024 C362     		str	r3, [r0, #44]
 106:Core/Src/adc.c **** 
 107:Core/Src/adc.c ****   hadc2.Init.ExternalTrigConv = ADC_SOFTWARE_START;
  72              		.loc 1 107 3 is_stmt 1 view .LVU17
  73              		.loc 1 107 31 is_stmt 0 view .LVU18
  74 0026 0122     		movs	r2, #1
  75 0028 8262     		str	r2, [r0, #40]
 108:Core/Src/adc.c **** 
 109:Core/Src/adc.c ****   hadc2.Init.DataAlign = ADC_DATAALIGN_RIGHT;
  76              		.loc 1 109 3 is_stmt 1 view .LVU19
  77              		.loc 1 109 24 is_stmt 0 view .LVU20
  78 002a C360     		str	r3, [r0, #12]
 110:Core/Src/adc.c **** 
 111:Core/Src/adc.c ****   hadc2.Init.NbrOfConversion = 1;
  79              		.loc 1 111 3 is_stmt 1 view .LVU21
  80              		.loc 1 111 30 is_stmt 0 view .LVU22
  81 002c C261     		str	r2, [r0, #28]
 112:Core/Src/adc.c **** 
 113:Core/Src/adc.c ****   hadc2.Init.DMAContinuousRequests = DISABLE;
  82              		.loc 1 113 3 is_stmt 1 view .LVU23
  83              		.loc 1 113 36 is_stmt 0 view .LVU24
  84 002e 80F83030 		strb	r3, [r0, #48]
 114:Core/Src/adc.c **** 
 115:Core/Src/adc.c ****   hadc2.Init.EOCSelection = ADC_EOC_SINGLE_CONV;
  85              		.loc 1 115 3 is_stmt 1 view .LVU25
  86              		.loc 1 115 27 is_stmt 0 view .LVU26
  87 0032 0422     		movs	r2, #4
  88 0034 4261     		str	r2, [r0, #20]
 116:Core/Src/adc.c **** 
 117:Core/Src/adc.c ****   hadc2.Init.LowPowerAutoWait = DISABLE;
  89              		.loc 1 117 3 is_stmt 1 view .LVU27
  90              		.loc 1 117 31 is_stmt 0 view .LVU28
  91 0036 0376     		strb	r3, [r0, #24]
 118:Core/Src/adc.c **** 
 119:Core/Src/adc.c ****   hadc2.Init.Overrun = ADC_OVR_DATA_OVERWRITTEN;
  92              		.loc 1 119 3 is_stmt 1 view .LVU29
  93              		.loc 1 119 22 is_stmt 0 view .LVU30
  94 0038 4363     		str	r3, [r0, #52]
 120:Core/Src/adc.c **** 
 121:Core/Src/adc.c ****   if (HAL_ADC_Init(&hadc2) != HAL_OK)
  95              		.loc 1 121 3 is_stmt 1 view .LVU31
  96              		.loc 1 121 7 is_stmt 0 view .LVU32
  97 003a FFF7FEFF 		bl	HAL_ADC_Init
  98              	.LVL0:
  99              		.loc 1 121 6 discriminator 1 view .LVU33
 100 003e 70B9     		cbnz	r0, .L5
 101              	.L2:
 122:Core/Src/adc.c **** 
 123:Core/Src/adc.c ****   {
 124:Core/Src/adc.c **** 
 125:Core/Src/adc.c ****     Error_Handler();
 126:Core/Src/adc.c **** 
 127:Core/Src/adc.c ****   }
 128:Core/Src/adc.c **** 
ARM GAS  C:\Users\naoki\AppData\Local\Temp\ccSdjnZj.s 			page 5


 129:Core/Src/adc.c **** 
 130:Core/Src/adc.c **** 
 131:Core/Src/adc.c ****   /** Configure Regular Channel
 132:Core/Src/adc.c **** 
 133:Core/Src/adc.c ****   */
 134:Core/Src/adc.c **** 
 135:Core/Src/adc.c ****   sConfig.Channel = ADC_CHANNEL_1;
 102              		.loc 1 135 3 is_stmt 1 view .LVU34
 103              		.loc 1 135 19 is_stmt 0 view .LVU35
 104 0040 0123     		movs	r3, #1
 105 0042 0093     		str	r3, [sp]
 136:Core/Src/adc.c **** 
 137:Core/Src/adc.c ****   sConfig.Rank = ADC_REGULAR_RANK_1;
 106              		.loc 1 137 3 is_stmt 1 view .LVU36
 107              		.loc 1 137 16 is_stmt 0 view .LVU37
 108 0044 0193     		str	r3, [sp, #4]
 138:Core/Src/adc.c **** 
 139:Core/Src/adc.c ****   sConfig.SingleDiff = ADC_SINGLE_ENDED;
 109              		.loc 1 139 3 is_stmt 1 view .LVU38
 110              		.loc 1 139 22 is_stmt 0 view .LVU39
 111 0046 0023     		movs	r3, #0
 112 0048 0393     		str	r3, [sp, #12]
 140:Core/Src/adc.c **** 
 141:Core/Src/adc.c ****   sConfig.SamplingTime = ADC_SAMPLETIME_1CYCLE_5;
 113              		.loc 1 141 3 is_stmt 1 view .LVU40
 114              		.loc 1 141 24 is_stmt 0 view .LVU41
 115 004a 0293     		str	r3, [sp, #8]
 142:Core/Src/adc.c **** 
 143:Core/Src/adc.c ****   sConfig.OffsetNumber = ADC_OFFSET_NONE;
 116              		.loc 1 143 3 is_stmt 1 view .LVU42
 117              		.loc 1 143 24 is_stmt 0 view .LVU43
 118 004c 0493     		str	r3, [sp, #16]
 144:Core/Src/adc.c **** 
 145:Core/Src/adc.c ****   sConfig.Offset = 0;
 119              		.loc 1 145 3 is_stmt 1 view .LVU44
 120              		.loc 1 145 18 is_stmt 0 view .LVU45
 121 004e 0593     		str	r3, [sp, #20]
 146:Core/Src/adc.c **** 
 147:Core/Src/adc.c ****   if (HAL_ADC_ConfigChannel(&hadc2, &sConfig) != HAL_OK)
 122              		.loc 1 147 3 is_stmt 1 view .LVU46
 123              		.loc 1 147 7 is_stmt 0 view .LVU47
 124 0050 6946     		mov	r1, sp
 125 0052 0648     		ldr	r0, .L7
 126 0054 FFF7FEFF 		bl	HAL_ADC_ConfigChannel
 127              	.LVL1:
 128              		.loc 1 147 6 discriminator 1 view .LVU48
 129 0058 20B9     		cbnz	r0, .L6
 130              	.L1:
 148:Core/Src/adc.c **** 
 149:Core/Src/adc.c ****   {
 150:Core/Src/adc.c **** 
 151:Core/Src/adc.c ****     Error_Handler();
 152:Core/Src/adc.c **** 
 153:Core/Src/adc.c ****   }
 154:Core/Src/adc.c **** 
 155:Core/Src/adc.c ****   /* USER CODE BEGIN ADC2_Init 2 */
 156:Core/Src/adc.c **** 
ARM GAS  C:\Users\naoki\AppData\Local\Temp\ccSdjnZj.s 			page 6


 157:Core/Src/adc.c **** 
 158:Core/Src/adc.c **** 
 159:Core/Src/adc.c ****   /* USER CODE END ADC2_Init 2 */
 160:Core/Src/adc.c **** 
 161:Core/Src/adc.c **** 
 162:Core/Src/adc.c **** 
 163:Core/Src/adc.c **** }
 131              		.loc 1 163 1 view .LVU49
 132 005a 07B0     		add	sp, sp, #28
 133              	.LCFI2:
 134              		.cfi_remember_state
 135              		.cfi_def_cfa_offset 4
 136              		@ sp needed
 137 005c 00BD     		pop	{pc}
 138              	.L5:
 139              	.LCFI3:
 140              		.cfi_restore_state
 125:Core/Src/adc.c **** 
 141              		.loc 1 125 5 is_stmt 1 view .LVU50
 142 005e FFF7FEFF 		bl	Error_Handler
 143              	.LVL2:
 144 0062 EDE7     		b	.L2
 145              	.L6:
 151:Core/Src/adc.c **** 
 146              		.loc 1 151 5 view .LVU51
 147 0064 FFF7FEFF 		bl	Error_Handler
 148              	.LVL3:
 149              		.loc 1 163 1 is_stmt 0 view .LVU52
 150 0068 F7E7     		b	.L1
 151              	.L8:
 152 006a 00BF     		.align	2
 153              	.L7:
 154 006c 00000000 		.word	hadc2
 155 0070 00010050 		.word	1342177536
 156              		.cfi_endproc
 157              	.LFE130:
 159              		.section	.text.MX_ADC3_Init,"ax",%progbits
 160              		.align	1
 161              		.global	MX_ADC3_Init
 162              		.syntax unified
 163              		.thumb
 164              		.thumb_func
 166              	MX_ADC3_Init:
 167              	.LFB131:
 164:Core/Src/adc.c **** 
 165:Core/Src/adc.c **** /* ADC3 init function */
 166:Core/Src/adc.c **** 
 167:Core/Src/adc.c **** void MX_ADC3_Init(void)
 168:Core/Src/adc.c **** 
 169:Core/Src/adc.c **** {
 168              		.loc 1 169 1 is_stmt 1 view -0
 169              		.cfi_startproc
 170              		@ args = 0, pretend = 0, frame = 40
 171              		@ frame_needed = 0, uses_anonymous_args = 0
 172 0000 00B5     		push	{lr}
 173              	.LCFI4:
 174              		.cfi_def_cfa_offset 4
ARM GAS  C:\Users\naoki\AppData\Local\Temp\ccSdjnZj.s 			page 7


 175              		.cfi_offset 14, -4
 176 0002 8BB0     		sub	sp, sp, #44
 177              	.LCFI5:
 178              		.cfi_def_cfa_offset 48
 170:Core/Src/adc.c **** 
 171:Core/Src/adc.c **** 
 172:Core/Src/adc.c **** 
 173:Core/Src/adc.c ****   /* USER CODE BEGIN ADC3_Init 0 */
 174:Core/Src/adc.c **** 
 175:Core/Src/adc.c **** 
 176:Core/Src/adc.c **** 
 177:Core/Src/adc.c ****   /* USER CODE END ADC3_Init 0 */
 178:Core/Src/adc.c **** 
 179:Core/Src/adc.c **** 
 180:Core/Src/adc.c **** 
 181:Core/Src/adc.c ****   ADC_MultiModeTypeDef multimode = {0};
 179              		.loc 1 181 3 view .LVU54
 180              		.loc 1 181 24 is_stmt 0 view .LVU55
 181 0004 0023     		movs	r3, #0
 182 0006 0793     		str	r3, [sp, #28]
 183 0008 0893     		str	r3, [sp, #32]
 184 000a 0993     		str	r3, [sp, #36]
 182:Core/Src/adc.c **** 
 183:Core/Src/adc.c ****   ADC_ChannelConfTypeDef sConfig = {0};
 185              		.loc 1 183 3 is_stmt 1 view .LVU56
 186              		.loc 1 183 26 is_stmt 0 view .LVU57
 187 000c 0193     		str	r3, [sp, #4]
 188 000e 0293     		str	r3, [sp, #8]
 189 0010 0393     		str	r3, [sp, #12]
 190 0012 0493     		str	r3, [sp, #16]
 191 0014 0593     		str	r3, [sp, #20]
 192 0016 0693     		str	r3, [sp, #24]
 184:Core/Src/adc.c **** 
 185:Core/Src/adc.c **** 
 186:Core/Src/adc.c **** 
 187:Core/Src/adc.c ****   /* USER CODE BEGIN ADC3_Init 1 */
 188:Core/Src/adc.c **** 
 189:Core/Src/adc.c **** 
 190:Core/Src/adc.c **** 
 191:Core/Src/adc.c ****   /* USER CODE END ADC3_Init 1 */
 192:Core/Src/adc.c **** 
 193:Core/Src/adc.c **** 
 194:Core/Src/adc.c **** 
 195:Core/Src/adc.c ****   /** Common config
 196:Core/Src/adc.c **** 
 197:Core/Src/adc.c ****   */
 198:Core/Src/adc.c **** 
 199:Core/Src/adc.c ****   hadc3.Instance = ADC3;
 193              		.loc 1 199 3 is_stmt 1 view .LVU58
 194              		.loc 1 199 18 is_stmt 0 view .LVU59
 195 0018 1B48     		ldr	r0, .L17
 196 001a 1C4A     		ldr	r2, .L17+4
 197 001c 0260     		str	r2, [r0]
 200:Core/Src/adc.c **** 
 201:Core/Src/adc.c ****   hadc3.Init.ClockPrescaler = ADC_CLOCK_ASYNC_DIV1;
 198              		.loc 1 201 3 is_stmt 1 view .LVU60
 199              		.loc 1 201 29 is_stmt 0 view .LVU61
ARM GAS  C:\Users\naoki\AppData\Local\Temp\ccSdjnZj.s 			page 8


 200 001e 4360     		str	r3, [r0, #4]
 202:Core/Src/adc.c **** 
 203:Core/Src/adc.c ****   hadc3.Init.Resolution = ADC_RESOLUTION_12B;
 201              		.loc 1 203 3 is_stmt 1 view .LVU62
 202              		.loc 1 203 25 is_stmt 0 view .LVU63
 203 0020 8360     		str	r3, [r0, #8]
 204:Core/Src/adc.c **** 
 205:Core/Src/adc.c ****   hadc3.Init.ScanConvMode = ADC_SCAN_DISABLE;
 204              		.loc 1 205 3 is_stmt 1 view .LVU64
 205              		.loc 1 205 27 is_stmt 0 view .LVU65
 206 0022 0361     		str	r3, [r0, #16]
 206:Core/Src/adc.c **** 
 207:Core/Src/adc.c ****   hadc3.Init.ContinuousConvMode = DISABLE;
 207              		.loc 1 207 3 is_stmt 1 view .LVU66
 208              		.loc 1 207 33 is_stmt 0 view .LVU67
 209 0024 4376     		strb	r3, [r0, #25]
 208:Core/Src/adc.c **** 
 209:Core/Src/adc.c ****   hadc3.Init.DiscontinuousConvMode = DISABLE;
 210              		.loc 1 209 3 is_stmt 1 view .LVU68
 211              		.loc 1 209 36 is_stmt 0 view .LVU69
 212 0026 80F82030 		strb	r3, [r0, #32]
 210:Core/Src/adc.c **** 
 211:Core/Src/adc.c ****   hadc3.Init.ExternalTrigConvEdge = ADC_EXTERNALTRIGCONVEDGE_NONE;
 213              		.loc 1 211 3 is_stmt 1 view .LVU70
 214              		.loc 1 211 35 is_stmt 0 view .LVU71
 215 002a C362     		str	r3, [r0, #44]
 212:Core/Src/adc.c **** 
 213:Core/Src/adc.c ****   hadc3.Init.ExternalTrigConv = ADC_SOFTWARE_START;
 216              		.loc 1 213 3 is_stmt 1 view .LVU72
 217              		.loc 1 213 31 is_stmt 0 view .LVU73
 218 002c 0122     		movs	r2, #1
 219 002e 8262     		str	r2, [r0, #40]
 214:Core/Src/adc.c **** 
 215:Core/Src/adc.c ****   hadc3.Init.DataAlign = ADC_DATAALIGN_RIGHT;
 220              		.loc 1 215 3 is_stmt 1 view .LVU74
 221              		.loc 1 215 24 is_stmt 0 view .LVU75
 222 0030 C360     		str	r3, [r0, #12]
 216:Core/Src/adc.c **** 
 217:Core/Src/adc.c ****   hadc3.Init.NbrOfConversion = 1;
 223              		.loc 1 217 3 is_stmt 1 view .LVU76
 224              		.loc 1 217 30 is_stmt 0 view .LVU77
 225 0032 C261     		str	r2, [r0, #28]
 218:Core/Src/adc.c **** 
 219:Core/Src/adc.c ****   hadc3.Init.DMAContinuousRequests = DISABLE;
 226              		.loc 1 219 3 is_stmt 1 view .LVU78
 227              		.loc 1 219 36 is_stmt 0 view .LVU79
 228 0034 80F83030 		strb	r3, [r0, #48]
 220:Core/Src/adc.c **** 
 221:Core/Src/adc.c ****   hadc3.Init.EOCSelection = ADC_EOC_SINGLE_CONV;
 229              		.loc 1 221 3 is_stmt 1 view .LVU80
 230              		.loc 1 221 27 is_stmt 0 view .LVU81
 231 0038 0422     		movs	r2, #4
 232 003a 4261     		str	r2, [r0, #20]
 222:Core/Src/adc.c **** 
 223:Core/Src/adc.c ****   hadc3.Init.LowPowerAutoWait = DISABLE;
 233              		.loc 1 223 3 is_stmt 1 view .LVU82
 234              		.loc 1 223 31 is_stmt 0 view .LVU83
ARM GAS  C:\Users\naoki\AppData\Local\Temp\ccSdjnZj.s 			page 9


 235 003c 0376     		strb	r3, [r0, #24]
 224:Core/Src/adc.c **** 
 225:Core/Src/adc.c ****   hadc3.Init.Overrun = ADC_OVR_DATA_OVERWRITTEN;
 236              		.loc 1 225 3 is_stmt 1 view .LVU84
 237              		.loc 1 225 22 is_stmt 0 view .LVU85
 238 003e 4363     		str	r3, [r0, #52]
 226:Core/Src/adc.c **** 
 227:Core/Src/adc.c ****   if (HAL_ADC_Init(&hadc3) != HAL_OK)
 239              		.loc 1 227 3 is_stmt 1 view .LVU86
 240              		.loc 1 227 7 is_stmt 0 view .LVU87
 241 0040 FFF7FEFF 		bl	HAL_ADC_Init
 242              	.LVL4:
 243              		.loc 1 227 6 discriminator 1 view .LVU88
 244 0044 B0B9     		cbnz	r0, .L14
 245              	.L10:
 228:Core/Src/adc.c **** 
 229:Core/Src/adc.c ****   {
 230:Core/Src/adc.c **** 
 231:Core/Src/adc.c ****     Error_Handler();
 232:Core/Src/adc.c **** 
 233:Core/Src/adc.c ****   }
 234:Core/Src/adc.c **** 
 235:Core/Src/adc.c **** 
 236:Core/Src/adc.c **** 
 237:Core/Src/adc.c ****   /** Configure the ADC multi-mode
 238:Core/Src/adc.c **** 
 239:Core/Src/adc.c ****   */
 240:Core/Src/adc.c **** 
 241:Core/Src/adc.c ****   multimode.Mode = ADC_MODE_INDEPENDENT;
 246              		.loc 1 241 3 is_stmt 1 view .LVU89
 247              		.loc 1 241 18 is_stmt 0 view .LVU90
 248 0046 0023     		movs	r3, #0
 249 0048 0793     		str	r3, [sp, #28]
 242:Core/Src/adc.c **** 
 243:Core/Src/adc.c ****   if (HAL_ADCEx_MultiModeConfigChannel(&hadc3, &multimode) != HAL_OK)
 250              		.loc 1 243 3 is_stmt 1 view .LVU91
 251              		.loc 1 243 7 is_stmt 0 view .LVU92
 252 004a 07A9     		add	r1, sp, #28
 253 004c 0E48     		ldr	r0, .L17
 254 004e FFF7FEFF 		bl	HAL_ADCEx_MultiModeConfigChannel
 255              	.LVL5:
 256              		.loc 1 243 6 discriminator 1 view .LVU93
 257 0052 90B9     		cbnz	r0, .L15
 258              	.L11:
 244:Core/Src/adc.c **** 
 245:Core/Src/adc.c ****   {
 246:Core/Src/adc.c **** 
 247:Core/Src/adc.c ****     Error_Handler();
 248:Core/Src/adc.c **** 
 249:Core/Src/adc.c ****   }
 250:Core/Src/adc.c **** 
 251:Core/Src/adc.c **** 
 252:Core/Src/adc.c **** 
 253:Core/Src/adc.c ****   /** Configure Regular Channel
 254:Core/Src/adc.c **** 
 255:Core/Src/adc.c ****   */
 256:Core/Src/adc.c **** 
ARM GAS  C:\Users\naoki\AppData\Local\Temp\ccSdjnZj.s 			page 10


 257:Core/Src/adc.c ****   sConfig.Channel = ADC_CHANNEL_5;
 259              		.loc 1 257 3 is_stmt 1 view .LVU94
 260              		.loc 1 257 19 is_stmt 0 view .LVU95
 261 0054 0523     		movs	r3, #5
 262 0056 0193     		str	r3, [sp, #4]
 258:Core/Src/adc.c **** 
 259:Core/Src/adc.c ****   sConfig.Rank = ADC_REGULAR_RANK_1;
 263              		.loc 1 259 3 is_stmt 1 view .LVU96
 264              		.loc 1 259 16 is_stmt 0 view .LVU97
 265 0058 0123     		movs	r3, #1
 266 005a 0293     		str	r3, [sp, #8]
 260:Core/Src/adc.c **** 
 261:Core/Src/adc.c ****   sConfig.SingleDiff = ADC_SINGLE_ENDED;
 267              		.loc 1 261 3 is_stmt 1 view .LVU98
 268              		.loc 1 261 22 is_stmt 0 view .LVU99
 269 005c 0023     		movs	r3, #0
 270 005e 0493     		str	r3, [sp, #16]
 262:Core/Src/adc.c **** 
 263:Core/Src/adc.c ****   sConfig.SamplingTime = ADC_SAMPLETIME_1CYCLE_5;
 271              		.loc 1 263 3 is_stmt 1 view .LVU100
 272              		.loc 1 263 24 is_stmt 0 view .LVU101
 273 0060 0393     		str	r3, [sp, #12]
 264:Core/Src/adc.c **** 
 265:Core/Src/adc.c ****   sConfig.OffsetNumber = ADC_OFFSET_NONE;
 274              		.loc 1 265 3 is_stmt 1 view .LVU102
 275              		.loc 1 265 24 is_stmt 0 view .LVU103
 276 0062 0593     		str	r3, [sp, #20]
 266:Core/Src/adc.c **** 
 267:Core/Src/adc.c ****   sConfig.Offset = 0;
 277              		.loc 1 267 3 is_stmt 1 view .LVU104
 278              		.loc 1 267 18 is_stmt 0 view .LVU105
 279 0064 0693     		str	r3, [sp, #24]
 268:Core/Src/adc.c **** 
 269:Core/Src/adc.c ****   if (HAL_ADC_ConfigChannel(&hadc3, &sConfig) != HAL_OK)
 280              		.loc 1 269 3 is_stmt 1 view .LVU106
 281              		.loc 1 269 7 is_stmt 0 view .LVU107
 282 0066 01A9     		add	r1, sp, #4
 283 0068 0748     		ldr	r0, .L17
 284 006a FFF7FEFF 		bl	HAL_ADC_ConfigChannel
 285              	.LVL6:
 286              		.loc 1 269 6 discriminator 1 view .LVU108
 287 006e 38B9     		cbnz	r0, .L16
 288              	.L9:
 270:Core/Src/adc.c **** 
 271:Core/Src/adc.c ****   {
 272:Core/Src/adc.c **** 
 273:Core/Src/adc.c ****     Error_Handler();
 274:Core/Src/adc.c **** 
 275:Core/Src/adc.c ****   }
 276:Core/Src/adc.c **** 
 277:Core/Src/adc.c ****   /* USER CODE BEGIN ADC3_Init 2 */
 278:Core/Src/adc.c **** 
 279:Core/Src/adc.c **** 
 280:Core/Src/adc.c **** 
 281:Core/Src/adc.c ****   /* USER CODE END ADC3_Init 2 */
 282:Core/Src/adc.c **** 
 283:Core/Src/adc.c **** 
ARM GAS  C:\Users\naoki\AppData\Local\Temp\ccSdjnZj.s 			page 11


 284:Core/Src/adc.c **** 
 285:Core/Src/adc.c **** }
 289              		.loc 1 285 1 view .LVU109
 290 0070 0BB0     		add	sp, sp, #44
 291              	.LCFI6:
 292              		.cfi_remember_state
 293              		.cfi_def_cfa_offset 4
 294              		@ sp needed
 295 0072 00BD     		pop	{pc}
 296              	.L14:
 297              	.LCFI7:
 298              		.cfi_restore_state
 231:Core/Src/adc.c **** 
 299              		.loc 1 231 5 is_stmt 1 view .LVU110
 300 0074 FFF7FEFF 		bl	Error_Handler
 301              	.LVL7:
 302 0078 E5E7     		b	.L10
 303              	.L15:
 247:Core/Src/adc.c **** 
 304              		.loc 1 247 5 view .LVU111
 305 007a FFF7FEFF 		bl	Error_Handler
 306              	.LVL8:
 307 007e E9E7     		b	.L11
 308              	.L16:
 273:Core/Src/adc.c **** 
 309              		.loc 1 273 5 view .LVU112
 310 0080 FFF7FEFF 		bl	Error_Handler
 311              	.LVL9:
 312              		.loc 1 285 1 is_stmt 0 view .LVU113
 313 0084 F4E7     		b	.L9
 314              	.L18:
 315 0086 00BF     		.align	2
 316              	.L17:
 317 0088 00000000 		.word	hadc3
 318 008c 00040050 		.word	1342178304
 319              		.cfi_endproc
 320              	.LFE131:
 322              		.section	.text.MX_ADC4_Init,"ax",%progbits
 323              		.align	1
 324              		.global	MX_ADC4_Init
 325              		.syntax unified
 326              		.thumb
 327              		.thumb_func
 329              	MX_ADC4_Init:
 330              	.LFB132:
 286:Core/Src/adc.c **** 
 287:Core/Src/adc.c **** /* ADC4 init function */
 288:Core/Src/adc.c **** 
 289:Core/Src/adc.c **** void MX_ADC4_Init(void)
 290:Core/Src/adc.c **** 
 291:Core/Src/adc.c **** {
 331              		.loc 1 291 1 is_stmt 1 view -0
 332              		.cfi_startproc
 333              		@ args = 0, pretend = 0, frame = 24
 334              		@ frame_needed = 0, uses_anonymous_args = 0
 335 0000 00B5     		push	{lr}
 336              	.LCFI8:
ARM GAS  C:\Users\naoki\AppData\Local\Temp\ccSdjnZj.s 			page 12


 337              		.cfi_def_cfa_offset 4
 338              		.cfi_offset 14, -4
 339 0002 87B0     		sub	sp, sp, #28
 340              	.LCFI9:
 341              		.cfi_def_cfa_offset 32
 292:Core/Src/adc.c **** 
 293:Core/Src/adc.c **** 
 294:Core/Src/adc.c **** 
 295:Core/Src/adc.c ****   /* USER CODE BEGIN ADC4_Init 0 */
 296:Core/Src/adc.c **** 
 297:Core/Src/adc.c **** 
 298:Core/Src/adc.c **** 
 299:Core/Src/adc.c ****   /* USER CODE END ADC4_Init 0 */
 300:Core/Src/adc.c **** 
 301:Core/Src/adc.c **** 
 302:Core/Src/adc.c **** 
 303:Core/Src/adc.c ****   ADC_ChannelConfTypeDef sConfig = {0};
 342              		.loc 1 303 3 view .LVU115
 343              		.loc 1 303 26 is_stmt 0 view .LVU116
 344 0004 0023     		movs	r3, #0
 345 0006 0093     		str	r3, [sp]
 346 0008 0193     		str	r3, [sp, #4]
 347 000a 0293     		str	r3, [sp, #8]
 348 000c 0393     		str	r3, [sp, #12]
 349 000e 0493     		str	r3, [sp, #16]
 350 0010 0593     		str	r3, [sp, #20]
 304:Core/Src/adc.c **** 
 305:Core/Src/adc.c **** 
 306:Core/Src/adc.c **** 
 307:Core/Src/adc.c ****   /* USER CODE BEGIN ADC4_Init 1 */
 308:Core/Src/adc.c **** 
 309:Core/Src/adc.c **** 
 310:Core/Src/adc.c **** 
 311:Core/Src/adc.c ****   /* USER CODE END ADC4_Init 1 */
 312:Core/Src/adc.c **** 
 313:Core/Src/adc.c **** 
 314:Core/Src/adc.c **** 
 315:Core/Src/adc.c ****   /** Common config
 316:Core/Src/adc.c **** 
 317:Core/Src/adc.c ****   */
 318:Core/Src/adc.c **** 
 319:Core/Src/adc.c ****   hadc4.Instance = ADC4;
 351              		.loc 1 319 3 is_stmt 1 view .LVU117
 352              		.loc 1 319 18 is_stmt 0 view .LVU118
 353 0012 1648     		ldr	r0, .L25
 354 0014 164A     		ldr	r2, .L25+4
 355 0016 0260     		str	r2, [r0]
 320:Core/Src/adc.c **** 
 321:Core/Src/adc.c ****   hadc4.Init.ClockPrescaler = ADC_CLOCK_ASYNC_DIV1;
 356              		.loc 1 321 3 is_stmt 1 view .LVU119
 357              		.loc 1 321 29 is_stmt 0 view .LVU120
 358 0018 4360     		str	r3, [r0, #4]
 322:Core/Src/adc.c **** 
 323:Core/Src/adc.c ****   hadc4.Init.Resolution = ADC_RESOLUTION_12B;
 359              		.loc 1 323 3 is_stmt 1 view .LVU121
 360              		.loc 1 323 25 is_stmt 0 view .LVU122
 361 001a 8360     		str	r3, [r0, #8]
ARM GAS  C:\Users\naoki\AppData\Local\Temp\ccSdjnZj.s 			page 13


 324:Core/Src/adc.c **** 
 325:Core/Src/adc.c ****   hadc4.Init.ScanConvMode = ADC_SCAN_DISABLE;
 362              		.loc 1 325 3 is_stmt 1 view .LVU123
 363              		.loc 1 325 27 is_stmt 0 view .LVU124
 364 001c 0361     		str	r3, [r0, #16]
 326:Core/Src/adc.c **** 
 327:Core/Src/adc.c ****   hadc4.Init.ContinuousConvMode = DISABLE;
 365              		.loc 1 327 3 is_stmt 1 view .LVU125
 366              		.loc 1 327 33 is_stmt 0 view .LVU126
 367 001e 4376     		strb	r3, [r0, #25]
 328:Core/Src/adc.c **** 
 329:Core/Src/adc.c ****   hadc4.Init.DiscontinuousConvMode = DISABLE;
 368              		.loc 1 329 3 is_stmt 1 view .LVU127
 369              		.loc 1 329 36 is_stmt 0 view .LVU128
 370 0020 80F82030 		strb	r3, [r0, #32]
 330:Core/Src/adc.c **** 
 331:Core/Src/adc.c ****   hadc4.Init.ExternalTrigConvEdge = ADC_EXTERNALTRIGCONVEDGE_NONE;
 371              		.loc 1 331 3 is_stmt 1 view .LVU129
 372              		.loc 1 331 35 is_stmt 0 view .LVU130
 373 0024 C362     		str	r3, [r0, #44]
 332:Core/Src/adc.c **** 
 333:Core/Src/adc.c ****   hadc4.Init.ExternalTrigConv = ADC_SOFTWARE_START;
 374              		.loc 1 333 3 is_stmt 1 view .LVU131
 375              		.loc 1 333 31 is_stmt 0 view .LVU132
 376 0026 0122     		movs	r2, #1
 377 0028 8262     		str	r2, [r0, #40]
 334:Core/Src/adc.c **** 
 335:Core/Src/adc.c ****   hadc4.Init.DataAlign = ADC_DATAALIGN_RIGHT;
 378              		.loc 1 335 3 is_stmt 1 view .LVU133
 379              		.loc 1 335 24 is_stmt 0 view .LVU134
 380 002a C360     		str	r3, [r0, #12]
 336:Core/Src/adc.c **** 
 337:Core/Src/adc.c ****   hadc4.Init.NbrOfConversion = 1;
 381              		.loc 1 337 3 is_stmt 1 view .LVU135
 382              		.loc 1 337 30 is_stmt 0 view .LVU136
 383 002c C261     		str	r2, [r0, #28]
 338:Core/Src/adc.c **** 
 339:Core/Src/adc.c ****   hadc4.Init.DMAContinuousRequests = DISABLE;
 384              		.loc 1 339 3 is_stmt 1 view .LVU137
 385              		.loc 1 339 36 is_stmt 0 view .LVU138
 386 002e 80F83030 		strb	r3, [r0, #48]
 340:Core/Src/adc.c **** 
 341:Core/Src/adc.c ****   hadc4.Init.EOCSelection = ADC_EOC_SINGLE_CONV;
 387              		.loc 1 341 3 is_stmt 1 view .LVU139
 388              		.loc 1 341 27 is_stmt 0 view .LVU140
 389 0032 0422     		movs	r2, #4
 390 0034 4261     		str	r2, [r0, #20]
 342:Core/Src/adc.c **** 
 343:Core/Src/adc.c ****   hadc4.Init.LowPowerAutoWait = DISABLE;
 391              		.loc 1 343 3 is_stmt 1 view .LVU141
 392              		.loc 1 343 31 is_stmt 0 view .LVU142
 393 0036 0376     		strb	r3, [r0, #24]
 344:Core/Src/adc.c **** 
 345:Core/Src/adc.c ****   hadc4.Init.Overrun = ADC_OVR_DATA_OVERWRITTEN;
 394              		.loc 1 345 3 is_stmt 1 view .LVU143
 395              		.loc 1 345 22 is_stmt 0 view .LVU144
 396 0038 4363     		str	r3, [r0, #52]
ARM GAS  C:\Users\naoki\AppData\Local\Temp\ccSdjnZj.s 			page 14


 346:Core/Src/adc.c **** 
 347:Core/Src/adc.c ****   if (HAL_ADC_Init(&hadc4) != HAL_OK)
 397              		.loc 1 347 3 is_stmt 1 view .LVU145
 398              		.loc 1 347 7 is_stmt 0 view .LVU146
 399 003a FFF7FEFF 		bl	HAL_ADC_Init
 400              	.LVL10:
 401              		.loc 1 347 6 discriminator 1 view .LVU147
 402 003e 78B9     		cbnz	r0, .L23
 403              	.L20:
 348:Core/Src/adc.c **** 
 349:Core/Src/adc.c ****   {
 350:Core/Src/adc.c **** 
 351:Core/Src/adc.c ****     Error_Handler();
 352:Core/Src/adc.c **** 
 353:Core/Src/adc.c ****   }
 354:Core/Src/adc.c **** 
 355:Core/Src/adc.c **** 
 356:Core/Src/adc.c **** 
 357:Core/Src/adc.c ****   /** Configure Regular Channel
 358:Core/Src/adc.c **** 
 359:Core/Src/adc.c ****   */
 360:Core/Src/adc.c **** 
 361:Core/Src/adc.c ****   sConfig.Channel = ADC_CHANNEL_4;
 404              		.loc 1 361 3 is_stmt 1 view .LVU148
 405              		.loc 1 361 19 is_stmt 0 view .LVU149
 406 0040 0423     		movs	r3, #4
 407 0042 0093     		str	r3, [sp]
 362:Core/Src/adc.c **** 
 363:Core/Src/adc.c ****   sConfig.Rank = ADC_REGULAR_RANK_1;
 408              		.loc 1 363 3 is_stmt 1 view .LVU150
 409              		.loc 1 363 16 is_stmt 0 view .LVU151
 410 0044 0123     		movs	r3, #1
 411 0046 0193     		str	r3, [sp, #4]
 364:Core/Src/adc.c **** 
 365:Core/Src/adc.c ****   sConfig.SingleDiff = ADC_SINGLE_ENDED;
 412              		.loc 1 365 3 is_stmt 1 view .LVU152
 413              		.loc 1 365 22 is_stmt 0 view .LVU153
 414 0048 0023     		movs	r3, #0
 415 004a 0393     		str	r3, [sp, #12]
 366:Core/Src/adc.c **** 
 367:Core/Src/adc.c ****   sConfig.SamplingTime = ADC_SAMPLETIME_1CYCLE_5;
 416              		.loc 1 367 3 is_stmt 1 view .LVU154
 417              		.loc 1 367 24 is_stmt 0 view .LVU155
 418 004c 0293     		str	r3, [sp, #8]
 368:Core/Src/adc.c **** 
 369:Core/Src/adc.c ****   sConfig.OffsetNumber = ADC_OFFSET_NONE;
 419              		.loc 1 369 3 is_stmt 1 view .LVU156
 420              		.loc 1 369 24 is_stmt 0 view .LVU157
 421 004e 0493     		str	r3, [sp, #16]
 370:Core/Src/adc.c **** 
 371:Core/Src/adc.c ****   sConfig.Offset = 0;
 422              		.loc 1 371 3 is_stmt 1 view .LVU158
 423              		.loc 1 371 18 is_stmt 0 view .LVU159
 424 0050 0593     		str	r3, [sp, #20]
 372:Core/Src/adc.c **** 
 373:Core/Src/adc.c ****   if (HAL_ADC_ConfigChannel(&hadc4, &sConfig) != HAL_OK)
 425              		.loc 1 373 3 is_stmt 1 view .LVU160
ARM GAS  C:\Users\naoki\AppData\Local\Temp\ccSdjnZj.s 			page 15


 426              		.loc 1 373 7 is_stmt 0 view .LVU161
 427 0052 6946     		mov	r1, sp
 428 0054 0548     		ldr	r0, .L25
 429 0056 FFF7FEFF 		bl	HAL_ADC_ConfigChannel
 430              	.LVL11:
 431              		.loc 1 373 6 discriminator 1 view .LVU162
 432 005a 20B9     		cbnz	r0, .L24
 433              	.L19:
 374:Core/Src/adc.c **** 
 375:Core/Src/adc.c ****   {
 376:Core/Src/adc.c **** 
 377:Core/Src/adc.c ****     Error_Handler();
 378:Core/Src/adc.c **** 
 379:Core/Src/adc.c ****   }
 380:Core/Src/adc.c **** 
 381:Core/Src/adc.c ****   /* USER CODE BEGIN ADC4_Init 2 */
 382:Core/Src/adc.c **** 
 383:Core/Src/adc.c **** 
 384:Core/Src/adc.c **** 
 385:Core/Src/adc.c ****   /* USER CODE END ADC4_Init 2 */
 386:Core/Src/adc.c **** 
 387:Core/Src/adc.c **** 
 388:Core/Src/adc.c **** 
 389:Core/Src/adc.c **** }
 434              		.loc 1 389 1 view .LVU163
 435 005c 07B0     		add	sp, sp, #28
 436              	.LCFI10:
 437              		.cfi_remember_state
 438              		.cfi_def_cfa_offset 4
 439              		@ sp needed
 440 005e 00BD     		pop	{pc}
 441              	.L23:
 442              	.LCFI11:
 443              		.cfi_restore_state
 351:Core/Src/adc.c **** 
 444              		.loc 1 351 5 is_stmt 1 view .LVU164
 445 0060 FFF7FEFF 		bl	Error_Handler
 446              	.LVL12:
 447 0064 ECE7     		b	.L20
 448              	.L24:
 377:Core/Src/adc.c **** 
 449              		.loc 1 377 5 view .LVU165
 450 0066 FFF7FEFF 		bl	Error_Handler
 451              	.LVL13:
 452              		.loc 1 389 1 is_stmt 0 view .LVU166
 453 006a F7E7     		b	.L19
 454              	.L26:
 455              		.align	2
 456              	.L25:
 457 006c 00000000 		.word	hadc4
 458 0070 00050050 		.word	1342178560
 459              		.cfi_endproc
 460              	.LFE132:
 462              		.section	.text.HAL_ADC_MspInit,"ax",%progbits
 463              		.align	1
 464              		.global	HAL_ADC_MspInit
 465              		.syntax unified
ARM GAS  C:\Users\naoki\AppData\Local\Temp\ccSdjnZj.s 			page 16


 466              		.thumb
 467              		.thumb_func
 469              	HAL_ADC_MspInit:
 470              	.LVL14:
 471              	.LFB133:
 390:Core/Src/adc.c **** 
 391:Core/Src/adc.c **** 
 392:Core/Src/adc.c **** 
 393:Core/Src/adc.c **** static uint32_t HAL_RCC_ADC34_CLK_ENABLED=0;
 394:Core/Src/adc.c **** 
 395:Core/Src/adc.c **** 
 396:Core/Src/adc.c **** 
 397:Core/Src/adc.c **** void HAL_ADC_MspInit(ADC_HandleTypeDef* adcHandle)
 398:Core/Src/adc.c **** 
 399:Core/Src/adc.c **** {
 472              		.loc 1 399 1 is_stmt 1 view -0
 473              		.cfi_startproc
 474              		@ args = 0, pretend = 0, frame = 48
 475              		@ frame_needed = 0, uses_anonymous_args = 0
 476              		.loc 1 399 1 is_stmt 0 view .LVU168
 477 0000 00B5     		push	{lr}
 478              	.LCFI12:
 479              		.cfi_def_cfa_offset 4
 480              		.cfi_offset 14, -4
 481 0002 8DB0     		sub	sp, sp, #52
 482              	.LCFI13:
 483              		.cfi_def_cfa_offset 56
 400:Core/Src/adc.c **** 
 401:Core/Src/adc.c **** 
 402:Core/Src/adc.c **** 
 403:Core/Src/adc.c ****   GPIO_InitTypeDef GPIO_InitStruct = {0};
 484              		.loc 1 403 3 is_stmt 1 view .LVU169
 485              		.loc 1 403 20 is_stmt 0 view .LVU170
 486 0004 0023     		movs	r3, #0
 487 0006 0793     		str	r3, [sp, #28]
 488 0008 0893     		str	r3, [sp, #32]
 489 000a 0993     		str	r3, [sp, #36]
 490 000c 0A93     		str	r3, [sp, #40]
 491 000e 0B93     		str	r3, [sp, #44]
 404:Core/Src/adc.c **** 
 405:Core/Src/adc.c ****   if(adcHandle->Instance==ADC2)
 492              		.loc 1 405 3 is_stmt 1 view .LVU171
 493              		.loc 1 405 15 is_stmt 0 view .LVU172
 494 0010 0368     		ldr	r3, [r0]
 495              		.loc 1 405 5 view .LVU173
 496 0012 394A     		ldr	r2, .L39
 497 0014 9342     		cmp	r3, r2
 498 0016 07D0     		beq	.L34
 406:Core/Src/adc.c **** 
 407:Core/Src/adc.c ****   {
 408:Core/Src/adc.c **** 
 409:Core/Src/adc.c ****   /* USER CODE BEGIN ADC2_MspInit 0 */
 410:Core/Src/adc.c **** 
 411:Core/Src/adc.c **** 
 412:Core/Src/adc.c **** 
 413:Core/Src/adc.c ****   /* USER CODE END ADC2_MspInit 0 */
 414:Core/Src/adc.c **** 
ARM GAS  C:\Users\naoki\AppData\Local\Temp\ccSdjnZj.s 			page 17


 415:Core/Src/adc.c ****     /* ADC2 clock enable */
 416:Core/Src/adc.c **** 
 417:Core/Src/adc.c ****     __HAL_RCC_ADC12_CLK_ENABLE();
 418:Core/Src/adc.c **** 
 419:Core/Src/adc.c **** 
 420:Core/Src/adc.c **** 
 421:Core/Src/adc.c ****     __HAL_RCC_GPIOA_CLK_ENABLE();
 422:Core/Src/adc.c **** 
 423:Core/Src/adc.c ****     /**ADC2 GPIO Configuration
 424:Core/Src/adc.c **** 
 425:Core/Src/adc.c ****     PA4     ------> ADC2_IN1
 426:Core/Src/adc.c **** 
 427:Core/Src/adc.c ****     */
 428:Core/Src/adc.c **** 
 429:Core/Src/adc.c ****     GPIO_InitStruct.Pin = GPIO_PIN_4;
 430:Core/Src/adc.c **** 
 431:Core/Src/adc.c ****     GPIO_InitStruct.Mode = GPIO_MODE_ANALOG;
 432:Core/Src/adc.c **** 
 433:Core/Src/adc.c ****     GPIO_InitStruct.Pull = GPIO_NOPULL;
 434:Core/Src/adc.c **** 
 435:Core/Src/adc.c ****     HAL_GPIO_Init(GPIOA, &GPIO_InitStruct);
 436:Core/Src/adc.c **** 
 437:Core/Src/adc.c **** 
 438:Core/Src/adc.c **** 
 439:Core/Src/adc.c ****   /* USER CODE BEGIN ADC2_MspInit 1 */
 440:Core/Src/adc.c **** 
 441:Core/Src/adc.c **** 
 442:Core/Src/adc.c **** 
 443:Core/Src/adc.c ****   /* USER CODE END ADC2_MspInit 1 */
 444:Core/Src/adc.c **** 
 445:Core/Src/adc.c ****   }
 446:Core/Src/adc.c **** 
 447:Core/Src/adc.c ****   else if(adcHandle->Instance==ADC3)
 499              		.loc 1 447 8 is_stmt 1 view .LVU174
 500              		.loc 1 447 10 is_stmt 0 view .LVU175
 501 0018 384A     		ldr	r2, .L39+4
 502 001a 9342     		cmp	r3, r2
 503 001c 21D0     		beq	.L35
 448:Core/Src/adc.c **** 
 449:Core/Src/adc.c ****   {
 450:Core/Src/adc.c **** 
 451:Core/Src/adc.c ****   /* USER CODE BEGIN ADC3_MspInit 0 */
 452:Core/Src/adc.c **** 
 453:Core/Src/adc.c **** 
 454:Core/Src/adc.c **** 
 455:Core/Src/adc.c ****   /* USER CODE END ADC3_MspInit 0 */
 456:Core/Src/adc.c **** 
 457:Core/Src/adc.c ****     /* ADC3 clock enable */
 458:Core/Src/adc.c **** 
 459:Core/Src/adc.c ****     HAL_RCC_ADC34_CLK_ENABLED++;
 460:Core/Src/adc.c **** 
 461:Core/Src/adc.c ****     if(HAL_RCC_ADC34_CLK_ENABLED==1){
 462:Core/Src/adc.c **** 
 463:Core/Src/adc.c ****       __HAL_RCC_ADC34_CLK_ENABLE();
 464:Core/Src/adc.c **** 
 465:Core/Src/adc.c ****     }
 466:Core/Src/adc.c **** 
ARM GAS  C:\Users\naoki\AppData\Local\Temp\ccSdjnZj.s 			page 18


 467:Core/Src/adc.c **** 
 468:Core/Src/adc.c **** 
 469:Core/Src/adc.c ****     __HAL_RCC_GPIOB_CLK_ENABLE();
 470:Core/Src/adc.c **** 
 471:Core/Src/adc.c ****     /**ADC3 GPIO Configuration
 472:Core/Src/adc.c **** 
 473:Core/Src/adc.c ****     PB13     ------> ADC3_IN5
 474:Core/Src/adc.c **** 
 475:Core/Src/adc.c ****     */
 476:Core/Src/adc.c **** 
 477:Core/Src/adc.c ****     GPIO_InitStruct.Pin = GPIO_PIN_13;
 478:Core/Src/adc.c **** 
 479:Core/Src/adc.c ****     GPIO_InitStruct.Mode = GPIO_MODE_ANALOG;
 480:Core/Src/adc.c **** 
 481:Core/Src/adc.c ****     GPIO_InitStruct.Pull = GPIO_NOPULL;
 482:Core/Src/adc.c **** 
 483:Core/Src/adc.c ****     HAL_GPIO_Init(GPIOB, &GPIO_InitStruct);
 484:Core/Src/adc.c **** 
 485:Core/Src/adc.c **** 
 486:Core/Src/adc.c **** 
 487:Core/Src/adc.c ****   /* USER CODE BEGIN ADC3_MspInit 1 */
 488:Core/Src/adc.c **** 
 489:Core/Src/adc.c **** 
 490:Core/Src/adc.c **** 
 491:Core/Src/adc.c ****   /* USER CODE END ADC3_MspInit 1 */
 492:Core/Src/adc.c **** 
 493:Core/Src/adc.c ****   }
 494:Core/Src/adc.c **** 
 495:Core/Src/adc.c ****   else if(adcHandle->Instance==ADC4)
 504              		.loc 1 495 8 is_stmt 1 view .LVU176
 505              		.loc 1 495 10 is_stmt 0 view .LVU177
 506 001e 384A     		ldr	r2, .L39+8
 507 0020 9342     		cmp	r3, r2
 508 0022 43D0     		beq	.L36
 509              	.LVL15:
 510              	.L27:
 496:Core/Src/adc.c **** 
 497:Core/Src/adc.c ****   {
 498:Core/Src/adc.c **** 
 499:Core/Src/adc.c ****   /* USER CODE BEGIN ADC4_MspInit 0 */
 500:Core/Src/adc.c **** 
 501:Core/Src/adc.c **** 
 502:Core/Src/adc.c **** 
 503:Core/Src/adc.c ****   /* USER CODE END ADC4_MspInit 0 */
 504:Core/Src/adc.c **** 
 505:Core/Src/adc.c ****     /* ADC4 clock enable */
 506:Core/Src/adc.c **** 
 507:Core/Src/adc.c ****     HAL_RCC_ADC34_CLK_ENABLED++;
 508:Core/Src/adc.c **** 
 509:Core/Src/adc.c ****     if(HAL_RCC_ADC34_CLK_ENABLED==1){
 510:Core/Src/adc.c **** 
 511:Core/Src/adc.c ****       __HAL_RCC_ADC34_CLK_ENABLE();
 512:Core/Src/adc.c **** 
 513:Core/Src/adc.c ****     }
 514:Core/Src/adc.c **** 
 515:Core/Src/adc.c **** 
 516:Core/Src/adc.c **** 
ARM GAS  C:\Users\naoki\AppData\Local\Temp\ccSdjnZj.s 			page 19


 517:Core/Src/adc.c ****     __HAL_RCC_GPIOB_CLK_ENABLE();
 518:Core/Src/adc.c **** 
 519:Core/Src/adc.c ****     /**ADC4 GPIO Configuration
 520:Core/Src/adc.c **** 
 521:Core/Src/adc.c ****     PB14     ------> ADC4_IN4
 522:Core/Src/adc.c **** 
 523:Core/Src/adc.c ****     */
 524:Core/Src/adc.c **** 
 525:Core/Src/adc.c ****     GPIO_InitStruct.Pin = GPIO_PIN_14;
 526:Core/Src/adc.c **** 
 527:Core/Src/adc.c ****     GPIO_InitStruct.Mode = GPIO_MODE_ANALOG;
 528:Core/Src/adc.c **** 
 529:Core/Src/adc.c ****     GPIO_InitStruct.Pull = GPIO_NOPULL;
 530:Core/Src/adc.c **** 
 531:Core/Src/adc.c ****     HAL_GPIO_Init(GPIOB, &GPIO_InitStruct);
 532:Core/Src/adc.c **** 
 533:Core/Src/adc.c **** 
 534:Core/Src/adc.c **** 
 535:Core/Src/adc.c ****   /* USER CODE BEGIN ADC4_MspInit 1 */
 536:Core/Src/adc.c **** 
 537:Core/Src/adc.c **** 
 538:Core/Src/adc.c **** 
 539:Core/Src/adc.c ****   /* USER CODE END ADC4_MspInit 1 */
 540:Core/Src/adc.c **** 
 541:Core/Src/adc.c ****   }
 542:Core/Src/adc.c **** 
 543:Core/Src/adc.c **** }
 511              		.loc 1 543 1 view .LVU178
 512 0024 0DB0     		add	sp, sp, #52
 513              	.LCFI14:
 514              		.cfi_remember_state
 515              		.cfi_def_cfa_offset 4
 516              		@ sp needed
 517 0026 00BD     		pop	{pc}
 518              	.LVL16:
 519              	.L34:
 520              	.LCFI15:
 521              		.cfi_restore_state
 417:Core/Src/adc.c **** 
 522              		.loc 1 417 5 is_stmt 1 view .LVU179
 523              	.LBB2:
 417:Core/Src/adc.c **** 
 524              		.loc 1 417 5 view .LVU180
 417:Core/Src/adc.c **** 
 525              		.loc 1 417 5 view .LVU181
 526 0028 364B     		ldr	r3, .L39+12
 527 002a 5A69     		ldr	r2, [r3, #20]
 528 002c 42F08052 		orr	r2, r2, #268435456
 529 0030 5A61     		str	r2, [r3, #20]
 417:Core/Src/adc.c **** 
 530              		.loc 1 417 5 view .LVU182
 531 0032 5A69     		ldr	r2, [r3, #20]
 532 0034 02F08052 		and	r2, r2, #268435456
 533 0038 0192     		str	r2, [sp, #4]
 417:Core/Src/adc.c **** 
 534              		.loc 1 417 5 view .LVU183
 535 003a 019A     		ldr	r2, [sp, #4]
ARM GAS  C:\Users\naoki\AppData\Local\Temp\ccSdjnZj.s 			page 20


 536              	.LBE2:
 417:Core/Src/adc.c **** 
 537              		.loc 1 417 5 view .LVU184
 421:Core/Src/adc.c **** 
 538              		.loc 1 421 5 view .LVU185
 539              	.LBB3:
 421:Core/Src/adc.c **** 
 540              		.loc 1 421 5 view .LVU186
 421:Core/Src/adc.c **** 
 541              		.loc 1 421 5 view .LVU187
 542 003c 5A69     		ldr	r2, [r3, #20]
 543 003e 42F40032 		orr	r2, r2, #131072
 544 0042 5A61     		str	r2, [r3, #20]
 421:Core/Src/adc.c **** 
 545              		.loc 1 421 5 view .LVU188
 546 0044 5B69     		ldr	r3, [r3, #20]
 547 0046 03F40033 		and	r3, r3, #131072
 548 004a 0293     		str	r3, [sp, #8]
 421:Core/Src/adc.c **** 
 549              		.loc 1 421 5 view .LVU189
 550 004c 029B     		ldr	r3, [sp, #8]
 551              	.LBE3:
 421:Core/Src/adc.c **** 
 552              		.loc 1 421 5 view .LVU190
 429:Core/Src/adc.c **** 
 553              		.loc 1 429 5 view .LVU191
 429:Core/Src/adc.c **** 
 554              		.loc 1 429 25 is_stmt 0 view .LVU192
 555 004e 1023     		movs	r3, #16
 556 0050 0793     		str	r3, [sp, #28]
 431:Core/Src/adc.c **** 
 557              		.loc 1 431 5 is_stmt 1 view .LVU193
 431:Core/Src/adc.c **** 
 558              		.loc 1 431 26 is_stmt 0 view .LVU194
 559 0052 0323     		movs	r3, #3
 560 0054 0893     		str	r3, [sp, #32]
 433:Core/Src/adc.c **** 
 561              		.loc 1 433 5 is_stmt 1 view .LVU195
 435:Core/Src/adc.c **** 
 562              		.loc 1 435 5 view .LVU196
 563 0056 07A9     		add	r1, sp, #28
 564 0058 4FF09040 		mov	r0, #1207959552
 565              	.LVL17:
 435:Core/Src/adc.c **** 
 566              		.loc 1 435 5 is_stmt 0 view .LVU197
 567 005c FFF7FEFF 		bl	HAL_GPIO_Init
 568              	.LVL18:
 569 0060 E0E7     		b	.L27
 570              	.LVL19:
 571              	.L35:
 459:Core/Src/adc.c **** 
 572              		.loc 1 459 5 is_stmt 1 view .LVU198
 459:Core/Src/adc.c **** 
 573              		.loc 1 459 30 is_stmt 0 view .LVU199
 574 0062 294A     		ldr	r2, .L39+16
 575 0064 1368     		ldr	r3, [r2]
 576 0066 0133     		adds	r3, r3, #1
ARM GAS  C:\Users\naoki\AppData\Local\Temp\ccSdjnZj.s 			page 21


 577 0068 1360     		str	r3, [r2]
 461:Core/Src/adc.c **** 
 578              		.loc 1 461 5 is_stmt 1 view .LVU200
 461:Core/Src/adc.c **** 
 579              		.loc 1 461 7 is_stmt 0 view .LVU201
 580 006a 012B     		cmp	r3, #1
 581 006c 13D0     		beq	.L37
 582              	.L31:
 463:Core/Src/adc.c **** 
 583              		.loc 1 463 7 is_stmt 1 view .LVU202
 469:Core/Src/adc.c **** 
 584              		.loc 1 469 5 view .LVU203
 585              	.LBB4:
 469:Core/Src/adc.c **** 
 586              		.loc 1 469 5 view .LVU204
 469:Core/Src/adc.c **** 
 587              		.loc 1 469 5 view .LVU205
 588 006e 254B     		ldr	r3, .L39+12
 589 0070 5A69     		ldr	r2, [r3, #20]
 590 0072 42F48022 		orr	r2, r2, #262144
 591 0076 5A61     		str	r2, [r3, #20]
 469:Core/Src/adc.c **** 
 592              		.loc 1 469 5 view .LVU206
 593 0078 5B69     		ldr	r3, [r3, #20]
 594 007a 03F48023 		and	r3, r3, #262144
 595 007e 0493     		str	r3, [sp, #16]
 469:Core/Src/adc.c **** 
 596              		.loc 1 469 5 view .LVU207
 597 0080 049B     		ldr	r3, [sp, #16]
 598              	.LBE4:
 469:Core/Src/adc.c **** 
 599              		.loc 1 469 5 view .LVU208
 477:Core/Src/adc.c **** 
 600              		.loc 1 477 5 view .LVU209
 477:Core/Src/adc.c **** 
 601              		.loc 1 477 25 is_stmt 0 view .LVU210
 602 0082 4FF40053 		mov	r3, #8192
 603 0086 0793     		str	r3, [sp, #28]
 479:Core/Src/adc.c **** 
 604              		.loc 1 479 5 is_stmt 1 view .LVU211
 479:Core/Src/adc.c **** 
 605              		.loc 1 479 26 is_stmt 0 view .LVU212
 606 0088 0323     		movs	r3, #3
 607 008a 0893     		str	r3, [sp, #32]
 481:Core/Src/adc.c **** 
 608              		.loc 1 481 5 is_stmt 1 view .LVU213
 483:Core/Src/adc.c **** 
 609              		.loc 1 483 5 view .LVU214
 610 008c 07A9     		add	r1, sp, #28
 611 008e 1F48     		ldr	r0, .L39+20
 612              	.LVL20:
 483:Core/Src/adc.c **** 
 613              		.loc 1 483 5 is_stmt 0 view .LVU215
 614 0090 FFF7FEFF 		bl	HAL_GPIO_Init
 615              	.LVL21:
 616 0094 C6E7     		b	.L27
 617              	.LVL22:
ARM GAS  C:\Users\naoki\AppData\Local\Temp\ccSdjnZj.s 			page 22


 618              	.L37:
 463:Core/Src/adc.c **** 
 619              		.loc 1 463 7 is_stmt 1 view .LVU216
 620              	.LBB5:
 463:Core/Src/adc.c **** 
 621              		.loc 1 463 7 view .LVU217
 463:Core/Src/adc.c **** 
 622              		.loc 1 463 7 view .LVU218
 623 0096 1B4B     		ldr	r3, .L39+12
 624 0098 5A69     		ldr	r2, [r3, #20]
 625 009a 42F00052 		orr	r2, r2, #536870912
 626 009e 5A61     		str	r2, [r3, #20]
 463:Core/Src/adc.c **** 
 627              		.loc 1 463 7 view .LVU219
 628 00a0 5B69     		ldr	r3, [r3, #20]
 629 00a2 03F00053 		and	r3, r3, #536870912
 630 00a6 0393     		str	r3, [sp, #12]
 463:Core/Src/adc.c **** 
 631              		.loc 1 463 7 view .LVU220
 632 00a8 039B     		ldr	r3, [sp, #12]
 633 00aa E0E7     		b	.L31
 634              	.L36:
 635              	.LBE5:
 507:Core/Src/adc.c **** 
 636              		.loc 1 507 5 view .LVU221
 507:Core/Src/adc.c **** 
 637              		.loc 1 507 30 is_stmt 0 view .LVU222
 638 00ac 164A     		ldr	r2, .L39+16
 639 00ae 1368     		ldr	r3, [r2]
 640 00b0 0133     		adds	r3, r3, #1
 641 00b2 1360     		str	r3, [r2]
 509:Core/Src/adc.c **** 
 642              		.loc 1 509 5 is_stmt 1 view .LVU223
 509:Core/Src/adc.c **** 
 643              		.loc 1 509 7 is_stmt 0 view .LVU224
 644 00b4 012B     		cmp	r3, #1
 645 00b6 13D0     		beq	.L38
 646              	.L32:
 511:Core/Src/adc.c **** 
 647              		.loc 1 511 7 is_stmt 1 view .LVU225
 517:Core/Src/adc.c **** 
 648              		.loc 1 517 5 view .LVU226
 649              	.LBB6:
 517:Core/Src/adc.c **** 
 650              		.loc 1 517 5 view .LVU227
 517:Core/Src/adc.c **** 
 651              		.loc 1 517 5 view .LVU228
 652 00b8 124B     		ldr	r3, .L39+12
 653 00ba 5A69     		ldr	r2, [r3, #20]
 654 00bc 42F48022 		orr	r2, r2, #262144
 655 00c0 5A61     		str	r2, [r3, #20]
 517:Core/Src/adc.c **** 
 656              		.loc 1 517 5 view .LVU229
 657 00c2 5B69     		ldr	r3, [r3, #20]
 658 00c4 03F48023 		and	r3, r3, #262144
 659 00c8 0693     		str	r3, [sp, #24]
 517:Core/Src/adc.c **** 
ARM GAS  C:\Users\naoki\AppData\Local\Temp\ccSdjnZj.s 			page 23


 660              		.loc 1 517 5 view .LVU230
 661 00ca 069B     		ldr	r3, [sp, #24]
 662              	.LBE6:
 517:Core/Src/adc.c **** 
 663              		.loc 1 517 5 view .LVU231
 525:Core/Src/adc.c **** 
 664              		.loc 1 525 5 view .LVU232
 525:Core/Src/adc.c **** 
 665              		.loc 1 525 25 is_stmt 0 view .LVU233
 666 00cc 4FF48043 		mov	r3, #16384
 667 00d0 0793     		str	r3, [sp, #28]
 527:Core/Src/adc.c **** 
 668              		.loc 1 527 5 is_stmt 1 view .LVU234
 527:Core/Src/adc.c **** 
 669              		.loc 1 527 26 is_stmt 0 view .LVU235
 670 00d2 0323     		movs	r3, #3
 671 00d4 0893     		str	r3, [sp, #32]
 529:Core/Src/adc.c **** 
 672              		.loc 1 529 5 is_stmt 1 view .LVU236
 531:Core/Src/adc.c **** 
 673              		.loc 1 531 5 view .LVU237
 674 00d6 07A9     		add	r1, sp, #28
 675 00d8 0C48     		ldr	r0, .L39+20
 676              	.LVL23:
 531:Core/Src/adc.c **** 
 677              		.loc 1 531 5 is_stmt 0 view .LVU238
 678 00da FFF7FEFF 		bl	HAL_GPIO_Init
 679              	.LVL24:
 680              		.loc 1 543 1 view .LVU239
 681 00de A1E7     		b	.L27
 682              	.LVL25:
 683              	.L38:
 511:Core/Src/adc.c **** 
 684              		.loc 1 511 7 is_stmt 1 view .LVU240
 685              	.LBB7:
 511:Core/Src/adc.c **** 
 686              		.loc 1 511 7 view .LVU241
 511:Core/Src/adc.c **** 
 687              		.loc 1 511 7 view .LVU242
 688 00e0 084B     		ldr	r3, .L39+12
 689 00e2 5A69     		ldr	r2, [r3, #20]
 690 00e4 42F00052 		orr	r2, r2, #536870912
 691 00e8 5A61     		str	r2, [r3, #20]
 511:Core/Src/adc.c **** 
 692              		.loc 1 511 7 view .LVU243
 693 00ea 5B69     		ldr	r3, [r3, #20]
 694 00ec 03F00053 		and	r3, r3, #536870912
 695 00f0 0593     		str	r3, [sp, #20]
 511:Core/Src/adc.c **** 
 696              		.loc 1 511 7 view .LVU244
 697 00f2 059B     		ldr	r3, [sp, #20]
 698 00f4 E0E7     		b	.L32
 699              	.L40:
 700 00f6 00BF     		.align	2
 701              	.L39:
 702 00f8 00010050 		.word	1342177536
 703 00fc 00040050 		.word	1342178304
ARM GAS  C:\Users\naoki\AppData\Local\Temp\ccSdjnZj.s 			page 24


 704 0100 00050050 		.word	1342178560
 705 0104 00100240 		.word	1073876992
 706 0108 00000000 		.word	HAL_RCC_ADC34_CLK_ENABLED
 707 010c 00040048 		.word	1207960576
 708              	.LBE7:
 709              		.cfi_endproc
 710              	.LFE133:
 712              		.section	.text.HAL_ADC_MspDeInit,"ax",%progbits
 713              		.align	1
 714              		.global	HAL_ADC_MspDeInit
 715              		.syntax unified
 716              		.thumb
 717              		.thumb_func
 719              	HAL_ADC_MspDeInit:
 720              	.LVL26:
 721              	.LFB134:
 544:Core/Src/adc.c **** 
 545:Core/Src/adc.c **** 
 546:Core/Src/adc.c **** 
 547:Core/Src/adc.c **** void HAL_ADC_MspDeInit(ADC_HandleTypeDef* adcHandle)
 548:Core/Src/adc.c **** 
 549:Core/Src/adc.c **** {
 722              		.loc 1 549 1 view -0
 723              		.cfi_startproc
 724              		@ args = 0, pretend = 0, frame = 0
 725              		@ frame_needed = 0, uses_anonymous_args = 0
 726              		.loc 1 549 1 is_stmt 0 view .LVU246
 727 0000 08B5     		push	{r3, lr}
 728              	.LCFI16:
 729              		.cfi_def_cfa_offset 8
 730              		.cfi_offset 3, -8
 731              		.cfi_offset 14, -4
 550:Core/Src/adc.c **** 
 551:Core/Src/adc.c **** 
 552:Core/Src/adc.c **** 
 553:Core/Src/adc.c ****   if(adcHandle->Instance==ADC2)
 732              		.loc 1 553 3 is_stmt 1 view .LVU247
 733              		.loc 1 553 15 is_stmt 0 view .LVU248
 734 0002 0368     		ldr	r3, [r0]
 735              		.loc 1 553 5 view .LVU249
 736 0004 1A4A     		ldr	r2, .L51
 737 0006 9342     		cmp	r3, r2
 738 0008 06D0     		beq	.L48
 554:Core/Src/adc.c **** 
 555:Core/Src/adc.c ****   {
 556:Core/Src/adc.c **** 
 557:Core/Src/adc.c ****   /* USER CODE BEGIN ADC2_MspDeInit 0 */
 558:Core/Src/adc.c **** 
 559:Core/Src/adc.c **** 
 560:Core/Src/adc.c **** 
 561:Core/Src/adc.c ****   /* USER CODE END ADC2_MspDeInit 0 */
 562:Core/Src/adc.c **** 
 563:Core/Src/adc.c ****     /* Peripheral clock disable */
 564:Core/Src/adc.c **** 
 565:Core/Src/adc.c ****     __HAL_RCC_ADC12_CLK_DISABLE();
 566:Core/Src/adc.c **** 
 567:Core/Src/adc.c **** 
ARM GAS  C:\Users\naoki\AppData\Local\Temp\ccSdjnZj.s 			page 25


 568:Core/Src/adc.c **** 
 569:Core/Src/adc.c ****     /**ADC2 GPIO Configuration
 570:Core/Src/adc.c **** 
 571:Core/Src/adc.c ****     PA4     ------> ADC2_IN1
 572:Core/Src/adc.c **** 
 573:Core/Src/adc.c ****     */
 574:Core/Src/adc.c **** 
 575:Core/Src/adc.c ****     HAL_GPIO_DeInit(GPIOA, GPIO_PIN_4);
 576:Core/Src/adc.c **** 
 577:Core/Src/adc.c **** 
 578:Core/Src/adc.c **** 
 579:Core/Src/adc.c ****   /* USER CODE BEGIN ADC2_MspDeInit 1 */
 580:Core/Src/adc.c **** 
 581:Core/Src/adc.c **** 
 582:Core/Src/adc.c **** 
 583:Core/Src/adc.c ****   /* USER CODE END ADC2_MspDeInit 1 */
 584:Core/Src/adc.c **** 
 585:Core/Src/adc.c ****   }
 586:Core/Src/adc.c **** 
 587:Core/Src/adc.c ****   else if(adcHandle->Instance==ADC3)
 739              		.loc 1 587 8 is_stmt 1 view .LVU250
 740              		.loc 1 587 10 is_stmt 0 view .LVU251
 741 000a 1A4A     		ldr	r2, .L51+4
 742 000c 9342     		cmp	r3, r2
 743 000e 0ED0     		beq	.L49
 588:Core/Src/adc.c **** 
 589:Core/Src/adc.c ****   {
 590:Core/Src/adc.c **** 
 591:Core/Src/adc.c ****   /* USER CODE BEGIN ADC3_MspDeInit 0 */
 592:Core/Src/adc.c **** 
 593:Core/Src/adc.c **** 
 594:Core/Src/adc.c **** 
 595:Core/Src/adc.c ****   /* USER CODE END ADC3_MspDeInit 0 */
 596:Core/Src/adc.c **** 
 597:Core/Src/adc.c ****     /* Peripheral clock disable */
 598:Core/Src/adc.c **** 
 599:Core/Src/adc.c ****     HAL_RCC_ADC34_CLK_ENABLED--;
 600:Core/Src/adc.c **** 
 601:Core/Src/adc.c ****     if(HAL_RCC_ADC34_CLK_ENABLED==0){
 602:Core/Src/adc.c **** 
 603:Core/Src/adc.c ****       __HAL_RCC_ADC34_CLK_DISABLE();
 604:Core/Src/adc.c **** 
 605:Core/Src/adc.c ****     }
 606:Core/Src/adc.c **** 
 607:Core/Src/adc.c **** 
 608:Core/Src/adc.c **** 
 609:Core/Src/adc.c ****     /**ADC3 GPIO Configuration
 610:Core/Src/adc.c **** 
 611:Core/Src/adc.c ****     PB13     ------> ADC3_IN5
 612:Core/Src/adc.c **** 
 613:Core/Src/adc.c ****     */
 614:Core/Src/adc.c **** 
 615:Core/Src/adc.c ****     HAL_GPIO_DeInit(GPIOB, GPIO_PIN_13);
 616:Core/Src/adc.c **** 
 617:Core/Src/adc.c **** 
 618:Core/Src/adc.c **** 
 619:Core/Src/adc.c ****   /* USER CODE BEGIN ADC3_MspDeInit 1 */
ARM GAS  C:\Users\naoki\AppData\Local\Temp\ccSdjnZj.s 			page 26


 620:Core/Src/adc.c **** 
 621:Core/Src/adc.c **** 
 622:Core/Src/adc.c **** 
 623:Core/Src/adc.c ****   /* USER CODE END ADC3_MspDeInit 1 */
 624:Core/Src/adc.c **** 
 625:Core/Src/adc.c ****   }
 626:Core/Src/adc.c **** 
 627:Core/Src/adc.c ****   else if(adcHandle->Instance==ADC4)
 744              		.loc 1 627 8 is_stmt 1 view .LVU252
 745              		.loc 1 627 10 is_stmt 0 view .LVU253
 746 0010 194A     		ldr	r2, .L51+8
 747 0012 9342     		cmp	r3, r2
 748 0014 1BD0     		beq	.L50
 749              	.LVL27:
 750              	.L41:
 628:Core/Src/adc.c **** 
 629:Core/Src/adc.c ****   {
 630:Core/Src/adc.c **** 
 631:Core/Src/adc.c ****   /* USER CODE BEGIN ADC4_MspDeInit 0 */
 632:Core/Src/adc.c **** 
 633:Core/Src/adc.c **** 
 634:Core/Src/adc.c **** 
 635:Core/Src/adc.c ****   /* USER CODE END ADC4_MspDeInit 0 */
 636:Core/Src/adc.c **** 
 637:Core/Src/adc.c ****     /* Peripheral clock disable */
 638:Core/Src/adc.c **** 
 639:Core/Src/adc.c ****     HAL_RCC_ADC34_CLK_ENABLED--;
 640:Core/Src/adc.c **** 
 641:Core/Src/adc.c ****     if(HAL_RCC_ADC34_CLK_ENABLED==0){
 642:Core/Src/adc.c **** 
 643:Core/Src/adc.c ****       __HAL_RCC_ADC34_CLK_DISABLE();
 644:Core/Src/adc.c **** 
 645:Core/Src/adc.c ****     }
 646:Core/Src/adc.c **** 
 647:Core/Src/adc.c **** 
 648:Core/Src/adc.c **** 
 649:Core/Src/adc.c ****     /**ADC4 GPIO Configuration
 650:Core/Src/adc.c **** 
 651:Core/Src/adc.c ****     PB14     ------> ADC4_IN4
 652:Core/Src/adc.c **** 
 653:Core/Src/adc.c ****     */
 654:Core/Src/adc.c **** 
 655:Core/Src/adc.c ****     HAL_GPIO_DeInit(GPIOB, GPIO_PIN_14);
 656:Core/Src/adc.c **** 
 657:Core/Src/adc.c **** 
 658:Core/Src/adc.c **** 
 659:Core/Src/adc.c ****   /* USER CODE BEGIN ADC4_MspDeInit 1 */
 660:Core/Src/adc.c **** 
 661:Core/Src/adc.c **** 
 662:Core/Src/adc.c **** 
 663:Core/Src/adc.c ****   /* USER CODE END ADC4_MspDeInit 1 */
 664:Core/Src/adc.c **** 
 665:Core/Src/adc.c ****   }
 666:Core/Src/adc.c **** 
 667:Core/Src/adc.c **** }
 751              		.loc 1 667 1 view .LVU254
 752 0016 08BD     		pop	{r3, pc}
ARM GAS  C:\Users\naoki\AppData\Local\Temp\ccSdjnZj.s 			page 27


 753              	.LVL28:
 754              	.L48:
 565:Core/Src/adc.c **** 
 755              		.loc 1 565 5 is_stmt 1 view .LVU255
 756 0018 184A     		ldr	r2, .L51+12
 757 001a 5369     		ldr	r3, [r2, #20]
 758 001c 23F08053 		bic	r3, r3, #268435456
 759 0020 5361     		str	r3, [r2, #20]
 575:Core/Src/adc.c **** 
 760              		.loc 1 575 5 view .LVU256
 761 0022 1021     		movs	r1, #16
 762 0024 4FF09040 		mov	r0, #1207959552
 763              	.LVL29:
 575:Core/Src/adc.c **** 
 764              		.loc 1 575 5 is_stmt 0 view .LVU257
 765 0028 FFF7FEFF 		bl	HAL_GPIO_DeInit
 766              	.LVL30:
 767 002c F3E7     		b	.L41
 768              	.LVL31:
 769              	.L49:
 599:Core/Src/adc.c **** 
 770              		.loc 1 599 5 is_stmt 1 view .LVU258
 599:Core/Src/adc.c **** 
 771              		.loc 1 599 30 is_stmt 0 view .LVU259
 772 002e 144A     		ldr	r2, .L51+16
 773 0030 1368     		ldr	r3, [r2]
 774 0032 013B     		subs	r3, r3, #1
 775 0034 1360     		str	r3, [r2]
 601:Core/Src/adc.c **** 
 776              		.loc 1 601 5 is_stmt 1 view .LVU260
 601:Core/Src/adc.c **** 
 777              		.loc 1 601 7 is_stmt 0 view .LVU261
 778 0036 23B9     		cbnz	r3, .L45
 603:Core/Src/adc.c **** 
 779              		.loc 1 603 7 is_stmt 1 view .LVU262
 780 0038 104A     		ldr	r2, .L51+12
 781 003a 5369     		ldr	r3, [r2, #20]
 782 003c 23F00053 		bic	r3, r3, #536870912
 783 0040 5361     		str	r3, [r2, #20]
 784              	.L45:
 615:Core/Src/adc.c **** 
 785              		.loc 1 615 5 view .LVU263
 786 0042 4FF40051 		mov	r1, #8192
 787 0046 0F48     		ldr	r0, .L51+20
 788              	.LVL32:
 615:Core/Src/adc.c **** 
 789              		.loc 1 615 5 is_stmt 0 view .LVU264
 790 0048 FFF7FEFF 		bl	HAL_GPIO_DeInit
 791              	.LVL33:
 792 004c E3E7     		b	.L41
 793              	.LVL34:
 794              	.L50:
 639:Core/Src/adc.c **** 
 795              		.loc 1 639 5 is_stmt 1 view .LVU265
 639:Core/Src/adc.c **** 
 796              		.loc 1 639 30 is_stmt 0 view .LVU266
 797 004e 0C4A     		ldr	r2, .L51+16
ARM GAS  C:\Users\naoki\AppData\Local\Temp\ccSdjnZj.s 			page 28


 798 0050 1368     		ldr	r3, [r2]
 799 0052 013B     		subs	r3, r3, #1
 800 0054 1360     		str	r3, [r2]
 641:Core/Src/adc.c **** 
 801              		.loc 1 641 5 is_stmt 1 view .LVU267
 641:Core/Src/adc.c **** 
 802              		.loc 1 641 7 is_stmt 0 view .LVU268
 803 0056 23B9     		cbnz	r3, .L46
 643:Core/Src/adc.c **** 
 804              		.loc 1 643 7 is_stmt 1 view .LVU269
 805 0058 084A     		ldr	r2, .L51+12
 806 005a 5369     		ldr	r3, [r2, #20]
 807 005c 23F00053 		bic	r3, r3, #536870912
 808 0060 5361     		str	r3, [r2, #20]
 809              	.L46:
 655:Core/Src/adc.c **** 
 810              		.loc 1 655 5 view .LVU270
 811 0062 4FF48041 		mov	r1, #16384
 812 0066 0748     		ldr	r0, .L51+20
 813              	.LVL35:
 655:Core/Src/adc.c **** 
 814              		.loc 1 655 5 is_stmt 0 view .LVU271
 815 0068 FFF7FEFF 		bl	HAL_GPIO_DeInit
 816              	.LVL36:
 817              		.loc 1 667 1 view .LVU272
 818 006c D3E7     		b	.L41
 819              	.L52:
 820 006e 00BF     		.align	2
 821              	.L51:
 822 0070 00010050 		.word	1342177536
 823 0074 00040050 		.word	1342178304
 824 0078 00050050 		.word	1342178560
 825 007c 00100240 		.word	1073876992
 826 0080 00000000 		.word	HAL_RCC_ADC34_CLK_ENABLED
 827 0084 00040048 		.word	1207960576
 828              		.cfi_endproc
 829              	.LFE134:
 831              		.section	.bss.HAL_RCC_ADC34_CLK_ENABLED,"aw",%nobits
 832              		.align	2
 835              	HAL_RCC_ADC34_CLK_ENABLED:
 836 0000 00000000 		.space	4
 837              		.global	hadc4
 838              		.section	.bss.hadc4,"aw",%nobits
 839              		.align	2
 842              	hadc4:
 843 0000 00000000 		.space	80
 843      00000000 
 843      00000000 
 843      00000000 
 843      00000000 
 844              		.global	hadc3
 845              		.section	.bss.hadc3,"aw",%nobits
 846              		.align	2
 849              	hadc3:
 850 0000 00000000 		.space	80
 850      00000000 
 850      00000000 
ARM GAS  C:\Users\naoki\AppData\Local\Temp\ccSdjnZj.s 			page 29


 850      00000000 
 850      00000000 
 851              		.global	hadc2
 852              		.section	.bss.hadc2,"aw",%nobits
 853              		.align	2
 856              	hadc2:
 857 0000 00000000 		.space	80
 857      00000000 
 857      00000000 
 857      00000000 
 857      00000000 
 858              		.text
 859              	.Letext0:
 860              		.file 2 "C:/built/gnu/arm-none-eabi/include/machine/_default_types.h"
 861              		.file 3 "C:/built/gnu/arm-none-eabi/include/sys/_stdint.h"
 862              		.file 4 "Drivers/CMSIS/Device/ST/STM32F3xx/Include/stm32f303xc.h"
 863              		.file 5 "Drivers/CMSIS/Device/ST/STM32F3xx/Include/stm32f3xx.h"
 864              		.file 6 "Drivers/STM32F3xx_HAL_Driver/Inc/stm32f3xx_hal_def.h"
 865              		.file 7 "Drivers/STM32F3xx_HAL_Driver/Inc/stm32f3xx_hal_gpio.h"
 866              		.file 8 "Drivers/STM32F3xx_HAL_Driver/Inc/stm32f3xx_hal_dma.h"
 867              		.file 9 "Drivers/STM32F3xx_HAL_Driver/Inc/stm32f3xx_hal_adc_ex.h"
 868              		.file 10 "Drivers/STM32F3xx_HAL_Driver/Inc/stm32f3xx_hal_adc.h"
 869              		.file 11 "Core/Inc/adc.h"
 870              		.file 12 "Core/Inc/main.h"
ARM GAS  C:\Users\naoki\AppData\Local\Temp\ccSdjnZj.s 			page 30

