ARM GAS  C:\Temp\ccZihlc1.s 			page 1


   1              		.cpu cortex-m4
   2              		.arch armv7e-m
   3              		.fpu fpv4-sp-d16
   4              		.eabi_attribute 27, 1
   5              		.eabi_attribute 28, 1
   6              		.eabi_attribute 20, 1
   7              		.eabi_attribute 21, 1
   8              		.eabi_attribute 23, 3
   9              		.eabi_attribute 24, 1
  10              		.eabi_attribute 25, 1
  11              		.eabi_attribute 26, 1
  12              		.eabi_attribute 30, 1
  13              		.eabi_attribute 34, 1
  14              		.eabi_attribute 18, 4
  15              		.file	"stm32f3xx_hal_exti.c"
  16              		.text
  17              	.Ltext0:
  18              		.cfi_sections	.debug_frame
  19              		.file 1 "Drivers/STM32F3xx_HAL_Driver/Src/stm32f3xx_hal_exti.c"
  20              		.section	.text.HAL_EXTI_SetConfigLine,"ax",%progbits
  21              		.align	1
  22              		.global	HAL_EXTI_SetConfigLine
  23              		.syntax unified
  24              		.thumb
  25              		.thumb_func
  27              	HAL_EXTI_SetConfigLine:
  28              	.LVL0:
  29              	.LFB130:
   1:Drivers/STM32F3xx_HAL_Driver/Src/stm32f3xx_hal_exti.c **** /**
   2:Drivers/STM32F3xx_HAL_Driver/Src/stm32f3xx_hal_exti.c ****   ******************************************************************************
   3:Drivers/STM32F3xx_HAL_Driver/Src/stm32f3xx_hal_exti.c ****   * @file    stm32f3xx_hal_exti.c
   4:Drivers/STM32F3xx_HAL_Driver/Src/stm32f3xx_hal_exti.c ****   * @author  MCD Application Team
   5:Drivers/STM32F3xx_HAL_Driver/Src/stm32f3xx_hal_exti.c ****   * @brief   EXTI HAL module driver.
   6:Drivers/STM32F3xx_HAL_Driver/Src/stm32f3xx_hal_exti.c ****   *          This file provides firmware functions to manage the following
   7:Drivers/STM32F3xx_HAL_Driver/Src/stm32f3xx_hal_exti.c ****   *          functionalities of the Extended Interrupts and events controller (EXTI) peripheral:
   8:Drivers/STM32F3xx_HAL_Driver/Src/stm32f3xx_hal_exti.c ****   *           + Initialization and de-initialization functions
   9:Drivers/STM32F3xx_HAL_Driver/Src/stm32f3xx_hal_exti.c ****   *           + IO operation functions
  10:Drivers/STM32F3xx_HAL_Driver/Src/stm32f3xx_hal_exti.c ****   *
  11:Drivers/STM32F3xx_HAL_Driver/Src/stm32f3xx_hal_exti.c ****   ******************************************************************************
  12:Drivers/STM32F3xx_HAL_Driver/Src/stm32f3xx_hal_exti.c ****   * @attention
  13:Drivers/STM32F3xx_HAL_Driver/Src/stm32f3xx_hal_exti.c ****   *
  14:Drivers/STM32F3xx_HAL_Driver/Src/stm32f3xx_hal_exti.c ****   * Copyright (c) 2019 STMicroelectronics.
  15:Drivers/STM32F3xx_HAL_Driver/Src/stm32f3xx_hal_exti.c ****   * All rights reserved.
  16:Drivers/STM32F3xx_HAL_Driver/Src/stm32f3xx_hal_exti.c ****   *
  17:Drivers/STM32F3xx_HAL_Driver/Src/stm32f3xx_hal_exti.c ****   * This software is licensed under terms that can be found in the LICENSE file
  18:Drivers/STM32F3xx_HAL_Driver/Src/stm32f3xx_hal_exti.c ****   * in the root directory of this software component.
  19:Drivers/STM32F3xx_HAL_Driver/Src/stm32f3xx_hal_exti.c ****   * If no LICENSE file comes with this software, it is provided AS-IS.
  20:Drivers/STM32F3xx_HAL_Driver/Src/stm32f3xx_hal_exti.c ****   *
  21:Drivers/STM32F3xx_HAL_Driver/Src/stm32f3xx_hal_exti.c ****   ******************************************************************************
  22:Drivers/STM32F3xx_HAL_Driver/Src/stm32f3xx_hal_exti.c ****   @verbatim
  23:Drivers/STM32F3xx_HAL_Driver/Src/stm32f3xx_hal_exti.c ****   ==============================================================================
  24:Drivers/STM32F3xx_HAL_Driver/Src/stm32f3xx_hal_exti.c ****                     ##### EXTI Peripheral features #####
  25:Drivers/STM32F3xx_HAL_Driver/Src/stm32f3xx_hal_exti.c ****   ==============================================================================
  26:Drivers/STM32F3xx_HAL_Driver/Src/stm32f3xx_hal_exti.c ****   [..]
  27:Drivers/STM32F3xx_HAL_Driver/Src/stm32f3xx_hal_exti.c ****     (+) Each Exti line can be configured within this driver.
  28:Drivers/STM32F3xx_HAL_Driver/Src/stm32f3xx_hal_exti.c **** 
  29:Drivers/STM32F3xx_HAL_Driver/Src/stm32f3xx_hal_exti.c ****     (+) Exti line can be configured in 3 different modes
ARM GAS  C:\Temp\ccZihlc1.s 			page 2


  30:Drivers/STM32F3xx_HAL_Driver/Src/stm32f3xx_hal_exti.c ****         (++) Interrupt
  31:Drivers/STM32F3xx_HAL_Driver/Src/stm32f3xx_hal_exti.c ****         (++) Event
  32:Drivers/STM32F3xx_HAL_Driver/Src/stm32f3xx_hal_exti.c ****         (++) Both of them
  33:Drivers/STM32F3xx_HAL_Driver/Src/stm32f3xx_hal_exti.c **** 
  34:Drivers/STM32F3xx_HAL_Driver/Src/stm32f3xx_hal_exti.c ****     (+) Configurable Exti lines can be configured with 3 different triggers
  35:Drivers/STM32F3xx_HAL_Driver/Src/stm32f3xx_hal_exti.c ****         (++) Rising
  36:Drivers/STM32F3xx_HAL_Driver/Src/stm32f3xx_hal_exti.c ****         (++) Falling
  37:Drivers/STM32F3xx_HAL_Driver/Src/stm32f3xx_hal_exti.c ****         (++) Both of them
  38:Drivers/STM32F3xx_HAL_Driver/Src/stm32f3xx_hal_exti.c **** 
  39:Drivers/STM32F3xx_HAL_Driver/Src/stm32f3xx_hal_exti.c ****     (+) When set in interrupt mode, configurable Exti lines have two different
  40:Drivers/STM32F3xx_HAL_Driver/Src/stm32f3xx_hal_exti.c ****         interrupts pending registers which allow to distinguish which transition
  41:Drivers/STM32F3xx_HAL_Driver/Src/stm32f3xx_hal_exti.c ****         occurs:
  42:Drivers/STM32F3xx_HAL_Driver/Src/stm32f3xx_hal_exti.c ****         (++) Rising edge pending interrupt
  43:Drivers/STM32F3xx_HAL_Driver/Src/stm32f3xx_hal_exti.c ****         (++) Falling
  44:Drivers/STM32F3xx_HAL_Driver/Src/stm32f3xx_hal_exti.c **** 
  45:Drivers/STM32F3xx_HAL_Driver/Src/stm32f3xx_hal_exti.c ****     (+) Exti lines 0 to 15 are linked to gpio pin number 0 to 15. Gpio port can
  46:Drivers/STM32F3xx_HAL_Driver/Src/stm32f3xx_hal_exti.c ****         be selected through multiplexer.
  47:Drivers/STM32F3xx_HAL_Driver/Src/stm32f3xx_hal_exti.c **** 
  48:Drivers/STM32F3xx_HAL_Driver/Src/stm32f3xx_hal_exti.c ****                      ##### How to use this driver #####
  49:Drivers/STM32F3xx_HAL_Driver/Src/stm32f3xx_hal_exti.c ****   ==============================================================================
  50:Drivers/STM32F3xx_HAL_Driver/Src/stm32f3xx_hal_exti.c ****   [..]
  51:Drivers/STM32F3xx_HAL_Driver/Src/stm32f3xx_hal_exti.c **** 
  52:Drivers/STM32F3xx_HAL_Driver/Src/stm32f3xx_hal_exti.c ****     (#) Configure the EXTI line using HAL_EXTI_SetConfigLine().
  53:Drivers/STM32F3xx_HAL_Driver/Src/stm32f3xx_hal_exti.c ****         (++) Choose the interrupt line number by setting "Line" member from
  54:Drivers/STM32F3xx_HAL_Driver/Src/stm32f3xx_hal_exti.c ****              EXTI_ConfigTypeDef structure.
  55:Drivers/STM32F3xx_HAL_Driver/Src/stm32f3xx_hal_exti.c ****         (++) Configure the interrupt and/or event mode using "Mode" member from
  56:Drivers/STM32F3xx_HAL_Driver/Src/stm32f3xx_hal_exti.c ****              EXTI_ConfigTypeDef structure.
  57:Drivers/STM32F3xx_HAL_Driver/Src/stm32f3xx_hal_exti.c ****         (++) For configurable lines, configure rising and/or falling trigger
  58:Drivers/STM32F3xx_HAL_Driver/Src/stm32f3xx_hal_exti.c ****              "Trigger" member from EXTI_ConfigTypeDef structure.
  59:Drivers/STM32F3xx_HAL_Driver/Src/stm32f3xx_hal_exti.c ****         (++) For Exti lines linked to gpio, choose gpio port using "GPIOSel"
  60:Drivers/STM32F3xx_HAL_Driver/Src/stm32f3xx_hal_exti.c ****              member from GPIO_InitTypeDef structure.
  61:Drivers/STM32F3xx_HAL_Driver/Src/stm32f3xx_hal_exti.c **** 
  62:Drivers/STM32F3xx_HAL_Driver/Src/stm32f3xx_hal_exti.c ****     (#) Get current Exti configuration of a dedicated line using
  63:Drivers/STM32F3xx_HAL_Driver/Src/stm32f3xx_hal_exti.c ****         HAL_EXTI_GetConfigLine().
  64:Drivers/STM32F3xx_HAL_Driver/Src/stm32f3xx_hal_exti.c ****         (++) Provide exiting handle as parameter.
  65:Drivers/STM32F3xx_HAL_Driver/Src/stm32f3xx_hal_exti.c ****         (++) Provide pointer on EXTI_ConfigTypeDef structure as second parameter.
  66:Drivers/STM32F3xx_HAL_Driver/Src/stm32f3xx_hal_exti.c **** 
  67:Drivers/STM32F3xx_HAL_Driver/Src/stm32f3xx_hal_exti.c ****     (#) Clear Exti configuration of a dedicated line using HAL_EXTI_ClearConfigLine().
  68:Drivers/STM32F3xx_HAL_Driver/Src/stm32f3xx_hal_exti.c ****         (++) Provide exiting handle as parameter.
  69:Drivers/STM32F3xx_HAL_Driver/Src/stm32f3xx_hal_exti.c **** 
  70:Drivers/STM32F3xx_HAL_Driver/Src/stm32f3xx_hal_exti.c ****     (#) Register callback to treat Exti interrupts using HAL_EXTI_RegisterCallback().
  71:Drivers/STM32F3xx_HAL_Driver/Src/stm32f3xx_hal_exti.c ****         (++) Provide exiting handle as first parameter.
  72:Drivers/STM32F3xx_HAL_Driver/Src/stm32f3xx_hal_exti.c ****         (++) Provide which callback will be registered using one value from
  73:Drivers/STM32F3xx_HAL_Driver/Src/stm32f3xx_hal_exti.c ****              EXTI_CallbackIDTypeDef.
  74:Drivers/STM32F3xx_HAL_Driver/Src/stm32f3xx_hal_exti.c ****         (++) Provide callback function pointer.
  75:Drivers/STM32F3xx_HAL_Driver/Src/stm32f3xx_hal_exti.c **** 
  76:Drivers/STM32F3xx_HAL_Driver/Src/stm32f3xx_hal_exti.c ****     (#) Get interrupt pending bit using HAL_EXTI_GetPending().
  77:Drivers/STM32F3xx_HAL_Driver/Src/stm32f3xx_hal_exti.c **** 
  78:Drivers/STM32F3xx_HAL_Driver/Src/stm32f3xx_hal_exti.c ****     (#) Clear interrupt pending bit using HAL_EXTI_ClearPending().
  79:Drivers/STM32F3xx_HAL_Driver/Src/stm32f3xx_hal_exti.c **** 
  80:Drivers/STM32F3xx_HAL_Driver/Src/stm32f3xx_hal_exti.c ****     (#) Generate software interrupt using HAL_EXTI_GenerateSWI().
  81:Drivers/STM32F3xx_HAL_Driver/Src/stm32f3xx_hal_exti.c **** 
  82:Drivers/STM32F3xx_HAL_Driver/Src/stm32f3xx_hal_exti.c ****   @endverbatim
  83:Drivers/STM32F3xx_HAL_Driver/Src/stm32f3xx_hal_exti.c ****   */
  84:Drivers/STM32F3xx_HAL_Driver/Src/stm32f3xx_hal_exti.c **** 
  85:Drivers/STM32F3xx_HAL_Driver/Src/stm32f3xx_hal_exti.c **** /* Includes ------------------------------------------------------------------*/
  86:Drivers/STM32F3xx_HAL_Driver/Src/stm32f3xx_hal_exti.c **** #include "stm32f3xx_hal.h"
ARM GAS  C:\Temp\ccZihlc1.s 			page 3


  87:Drivers/STM32F3xx_HAL_Driver/Src/stm32f3xx_hal_exti.c **** 
  88:Drivers/STM32F3xx_HAL_Driver/Src/stm32f3xx_hal_exti.c **** /** @addtogroup STM32F3xx_HAL_Driver
  89:Drivers/STM32F3xx_HAL_Driver/Src/stm32f3xx_hal_exti.c ****   * @{
  90:Drivers/STM32F3xx_HAL_Driver/Src/stm32f3xx_hal_exti.c ****   */
  91:Drivers/STM32F3xx_HAL_Driver/Src/stm32f3xx_hal_exti.c **** 
  92:Drivers/STM32F3xx_HAL_Driver/Src/stm32f3xx_hal_exti.c **** /** @addtogroup EXTI
  93:Drivers/STM32F3xx_HAL_Driver/Src/stm32f3xx_hal_exti.c ****   * @{
  94:Drivers/STM32F3xx_HAL_Driver/Src/stm32f3xx_hal_exti.c ****   */
  95:Drivers/STM32F3xx_HAL_Driver/Src/stm32f3xx_hal_exti.c **** /** MISRA C:2012 deviation rule has been granted for following rule:
  96:Drivers/STM32F3xx_HAL_Driver/Src/stm32f3xx_hal_exti.c ****   * Rule-18.1_b - Medium: Array `EXTICR' 1st subscript interval [0,7] may be out
  97:Drivers/STM32F3xx_HAL_Driver/Src/stm32f3xx_hal_exti.c ****   * of bounds [0,3] in following API :
  98:Drivers/STM32F3xx_HAL_Driver/Src/stm32f3xx_hal_exti.c ****   * HAL_EXTI_SetConfigLine
  99:Drivers/STM32F3xx_HAL_Driver/Src/stm32f3xx_hal_exti.c ****   * HAL_EXTI_GetConfigLine
 100:Drivers/STM32F3xx_HAL_Driver/Src/stm32f3xx_hal_exti.c ****   * HAL_EXTI_ClearConfigLine
 101:Drivers/STM32F3xx_HAL_Driver/Src/stm32f3xx_hal_exti.c ****   */
 102:Drivers/STM32F3xx_HAL_Driver/Src/stm32f3xx_hal_exti.c **** 
 103:Drivers/STM32F3xx_HAL_Driver/Src/stm32f3xx_hal_exti.c **** #ifdef HAL_EXTI_MODULE_ENABLED
 104:Drivers/STM32F3xx_HAL_Driver/Src/stm32f3xx_hal_exti.c **** 
 105:Drivers/STM32F3xx_HAL_Driver/Src/stm32f3xx_hal_exti.c **** /* Private typedef -----------------------------------------------------------*/
 106:Drivers/STM32F3xx_HAL_Driver/Src/stm32f3xx_hal_exti.c **** /* Private defines -----------------------------------------------------------*/
 107:Drivers/STM32F3xx_HAL_Driver/Src/stm32f3xx_hal_exti.c **** /** @defgroup EXTI_Private_Constants EXTI Private Constants
 108:Drivers/STM32F3xx_HAL_Driver/Src/stm32f3xx_hal_exti.c ****   * @{
 109:Drivers/STM32F3xx_HAL_Driver/Src/stm32f3xx_hal_exti.c ****   */
 110:Drivers/STM32F3xx_HAL_Driver/Src/stm32f3xx_hal_exti.c **** #define EXTI_MODE_OFFSET                    0x08u   /* 0x20: offset between CPU IMR/EMR registers *
 111:Drivers/STM32F3xx_HAL_Driver/Src/stm32f3xx_hal_exti.c **** #define EXTI_CONFIG_OFFSET                  0x08u   /* 0x20: offset between CPU Rising/Falling conf
 112:Drivers/STM32F3xx_HAL_Driver/Src/stm32f3xx_hal_exti.c **** /**
 113:Drivers/STM32F3xx_HAL_Driver/Src/stm32f3xx_hal_exti.c ****   * @}
 114:Drivers/STM32F3xx_HAL_Driver/Src/stm32f3xx_hal_exti.c ****   */
 115:Drivers/STM32F3xx_HAL_Driver/Src/stm32f3xx_hal_exti.c **** 
 116:Drivers/STM32F3xx_HAL_Driver/Src/stm32f3xx_hal_exti.c **** /* Private macros ------------------------------------------------------------*/
 117:Drivers/STM32F3xx_HAL_Driver/Src/stm32f3xx_hal_exti.c **** /* Private variables ---------------------------------------------------------*/
 118:Drivers/STM32F3xx_HAL_Driver/Src/stm32f3xx_hal_exti.c **** /* Private function prototypes -----------------------------------------------*/
 119:Drivers/STM32F3xx_HAL_Driver/Src/stm32f3xx_hal_exti.c **** /* Exported functions --------------------------------------------------------*/
 120:Drivers/STM32F3xx_HAL_Driver/Src/stm32f3xx_hal_exti.c **** 
 121:Drivers/STM32F3xx_HAL_Driver/Src/stm32f3xx_hal_exti.c **** /** @addtogroup EXTI_Exported_Functions
 122:Drivers/STM32F3xx_HAL_Driver/Src/stm32f3xx_hal_exti.c ****   * @{
 123:Drivers/STM32F3xx_HAL_Driver/Src/stm32f3xx_hal_exti.c ****   */
 124:Drivers/STM32F3xx_HAL_Driver/Src/stm32f3xx_hal_exti.c **** 
 125:Drivers/STM32F3xx_HAL_Driver/Src/stm32f3xx_hal_exti.c **** /** @addtogroup EXTI_Exported_Functions_Group1
 126:Drivers/STM32F3xx_HAL_Driver/Src/stm32f3xx_hal_exti.c ****   * @brief    Configuration functions
 127:Drivers/STM32F3xx_HAL_Driver/Src/stm32f3xx_hal_exti.c ****   *
 128:Drivers/STM32F3xx_HAL_Driver/Src/stm32f3xx_hal_exti.c **** @verbatim
 129:Drivers/STM32F3xx_HAL_Driver/Src/stm32f3xx_hal_exti.c ****  ===============================================================================
 130:Drivers/STM32F3xx_HAL_Driver/Src/stm32f3xx_hal_exti.c ****               ##### Configuration functions #####
 131:Drivers/STM32F3xx_HAL_Driver/Src/stm32f3xx_hal_exti.c ****  ===============================================================================
 132:Drivers/STM32F3xx_HAL_Driver/Src/stm32f3xx_hal_exti.c **** 
 133:Drivers/STM32F3xx_HAL_Driver/Src/stm32f3xx_hal_exti.c **** @endverbatim
 134:Drivers/STM32F3xx_HAL_Driver/Src/stm32f3xx_hal_exti.c ****   * @{
 135:Drivers/STM32F3xx_HAL_Driver/Src/stm32f3xx_hal_exti.c ****   */
 136:Drivers/STM32F3xx_HAL_Driver/Src/stm32f3xx_hal_exti.c **** 
 137:Drivers/STM32F3xx_HAL_Driver/Src/stm32f3xx_hal_exti.c **** /**
 138:Drivers/STM32F3xx_HAL_Driver/Src/stm32f3xx_hal_exti.c ****   * @brief  Set configuration of a dedicated Exti line.
 139:Drivers/STM32F3xx_HAL_Driver/Src/stm32f3xx_hal_exti.c ****   * @param  hexti Exti handle.
 140:Drivers/STM32F3xx_HAL_Driver/Src/stm32f3xx_hal_exti.c ****   * @param  pExtiConfig Pointer on EXTI configuration to be set.
 141:Drivers/STM32F3xx_HAL_Driver/Src/stm32f3xx_hal_exti.c ****   * @retval HAL Status.
 142:Drivers/STM32F3xx_HAL_Driver/Src/stm32f3xx_hal_exti.c ****   */
 143:Drivers/STM32F3xx_HAL_Driver/Src/stm32f3xx_hal_exti.c **** HAL_StatusTypeDef HAL_EXTI_SetConfigLine(EXTI_HandleTypeDef *hexti, EXTI_ConfigTypeDef *pExtiConfig
ARM GAS  C:\Temp\ccZihlc1.s 			page 4


 144:Drivers/STM32F3xx_HAL_Driver/Src/stm32f3xx_hal_exti.c **** {
  30              		.loc 1 144 1 view -0
  31              		.cfi_startproc
  32              		@ args = 0, pretend = 0, frame = 0
  33              		@ frame_needed = 0, uses_anonymous_args = 0
 145:Drivers/STM32F3xx_HAL_Driver/Src/stm32f3xx_hal_exti.c ****   __IO uint32_t *regaddr;
  34              		.loc 1 145 3 view .LVU1
 146:Drivers/STM32F3xx_HAL_Driver/Src/stm32f3xx_hal_exti.c ****   uint32_t regval;
  35              		.loc 1 146 3 view .LVU2
 147:Drivers/STM32F3xx_HAL_Driver/Src/stm32f3xx_hal_exti.c ****   uint32_t linepos;
  36              		.loc 1 147 3 view .LVU3
 148:Drivers/STM32F3xx_HAL_Driver/Src/stm32f3xx_hal_exti.c ****   uint32_t maskline;
  37              		.loc 1 148 3 view .LVU4
 149:Drivers/STM32F3xx_HAL_Driver/Src/stm32f3xx_hal_exti.c ****   uint32_t offset;
  38              		.loc 1 149 3 view .LVU5
 150:Drivers/STM32F3xx_HAL_Driver/Src/stm32f3xx_hal_exti.c **** 
 151:Drivers/STM32F3xx_HAL_Driver/Src/stm32f3xx_hal_exti.c ****   /* Check null pointer */
 152:Drivers/STM32F3xx_HAL_Driver/Src/stm32f3xx_hal_exti.c ****   if ((hexti == NULL) || (pExtiConfig == NULL))
  39              		.loc 1 152 3 view .LVU6
  40              		.loc 1 152 6 is_stmt 0 view .LVU7
  41 0000 0028     		cmp	r0, #0
  42 0002 70D0     		beq	.L12
  43              		.loc 1 152 23 discriminator 1 view .LVU8
  44 0004 0029     		cmp	r1, #0
  45 0006 70D0     		beq	.L13
 144:Drivers/STM32F3xx_HAL_Driver/Src/stm32f3xx_hal_exti.c ****   __IO uint32_t *regaddr;
  46              		.loc 1 144 1 view .LVU9
  47 0008 30B5     		push	{r4, r5, lr}
  48              	.LCFI0:
  49              		.cfi_def_cfa_offset 12
  50              		.cfi_offset 4, -12
  51              		.cfi_offset 5, -8
  52              		.cfi_offset 14, -4
 153:Drivers/STM32F3xx_HAL_Driver/Src/stm32f3xx_hal_exti.c ****   {
 154:Drivers/STM32F3xx_HAL_Driver/Src/stm32f3xx_hal_exti.c ****     return HAL_ERROR;
 155:Drivers/STM32F3xx_HAL_Driver/Src/stm32f3xx_hal_exti.c ****   }
 156:Drivers/STM32F3xx_HAL_Driver/Src/stm32f3xx_hal_exti.c **** 
 157:Drivers/STM32F3xx_HAL_Driver/Src/stm32f3xx_hal_exti.c ****   /* Check parameters */
 158:Drivers/STM32F3xx_HAL_Driver/Src/stm32f3xx_hal_exti.c ****   assert_param(IS_EXTI_LINE(pExtiConfig->Line));
  53              		.loc 1 158 3 is_stmt 1 view .LVU10
 159:Drivers/STM32F3xx_HAL_Driver/Src/stm32f3xx_hal_exti.c ****   assert_param(IS_EXTI_MODE(pExtiConfig->Mode));
  54              		.loc 1 159 3 view .LVU11
 160:Drivers/STM32F3xx_HAL_Driver/Src/stm32f3xx_hal_exti.c **** 
 161:Drivers/STM32F3xx_HAL_Driver/Src/stm32f3xx_hal_exti.c ****   /* Assign line number to handle */
 162:Drivers/STM32F3xx_HAL_Driver/Src/stm32f3xx_hal_exti.c ****   hexti->Line = pExtiConfig->Line;
  55              		.loc 1 162 3 view .LVU12
  56              		.loc 1 162 28 is_stmt 0 view .LVU13
  57 000a 0A68     		ldr	r2, [r1]
  58              		.loc 1 162 15 view .LVU14
  59 000c 0260     		str	r2, [r0]
 163:Drivers/STM32F3xx_HAL_Driver/Src/stm32f3xx_hal_exti.c **** 
 164:Drivers/STM32F3xx_HAL_Driver/Src/stm32f3xx_hal_exti.c ****   /* Compute line register offset and line mask */
 165:Drivers/STM32F3xx_HAL_Driver/Src/stm32f3xx_hal_exti.c ****   offset = ((pExtiConfig->Line & EXTI_REG_MASK) >> EXTI_REG_SHIFT);
  60              		.loc 1 165 3 is_stmt 1 view .LVU15
  61              		.loc 1 165 10 is_stmt 0 view .LVU16
  62 000e C2F30043 		ubfx	r3, r2, #16, #1
  63              	.LVL1:
ARM GAS  C:\Temp\ccZihlc1.s 			page 5


 166:Drivers/STM32F3xx_HAL_Driver/Src/stm32f3xx_hal_exti.c ****   linepos = (pExtiConfig->Line & EXTI_PIN_MASK);
  64              		.loc 1 166 3 is_stmt 1 view .LVU17
  65              		.loc 1 166 11 is_stmt 0 view .LVU18
  66 0012 02F01F0C 		and	ip, r2, #31
  67              	.LVL2:
 167:Drivers/STM32F3xx_HAL_Driver/Src/stm32f3xx_hal_exti.c ****   maskline = (1uL << linepos);
  68              		.loc 1 167 3 is_stmt 1 view .LVU19
  69              		.loc 1 167 12 is_stmt 0 view .LVU20
  70 0016 0120     		movs	r0, #1
  71              	.LVL3:
  72              		.loc 1 167 12 view .LVU21
  73 0018 00FA0CF0 		lsl	r0, r0, ip
  74              	.LVL4:
 168:Drivers/STM32F3xx_HAL_Driver/Src/stm32f3xx_hal_exti.c **** 
 169:Drivers/STM32F3xx_HAL_Driver/Src/stm32f3xx_hal_exti.c ****   /* Configure triggers for configurable lines */
 170:Drivers/STM32F3xx_HAL_Driver/Src/stm32f3xx_hal_exti.c ****   if ((pExtiConfig->Line & EXTI_CONFIG) != 0x00u)
  75              		.loc 1 170 3 is_stmt 1 view .LVU22
  76              		.loc 1 170 6 is_stmt 0 view .LVU23
  77 001c 12F0007F 		tst	r2, #33554432
  78 0020 1FD0     		beq	.L3
 171:Drivers/STM32F3xx_HAL_Driver/Src/stm32f3xx_hal_exti.c ****   {
 172:Drivers/STM32F3xx_HAL_Driver/Src/stm32f3xx_hal_exti.c ****     assert_param(IS_EXTI_TRIGGER(pExtiConfig->Trigger));
  79              		.loc 1 172 5 is_stmt 1 view .LVU24
 173:Drivers/STM32F3xx_HAL_Driver/Src/stm32f3xx_hal_exti.c **** 
 174:Drivers/STM32F3xx_HAL_Driver/Src/stm32f3xx_hal_exti.c ****     /* Configure rising trigger */
 175:Drivers/STM32F3xx_HAL_Driver/Src/stm32f3xx_hal_exti.c ****     regaddr = (&EXTI->RTSR + (EXTI_CONFIG_OFFSET * offset));
  80              		.loc 1 175 5 view .LVU25
  81              		.loc 1 175 28 is_stmt 0 view .LVU26
  82 0022 4FEA431E 		lsl	lr, r3, #5
  83              	.LVL5:
 176:Drivers/STM32F3xx_HAL_Driver/Src/stm32f3xx_hal_exti.c ****     regval = *regaddr;
  84              		.loc 1 176 5 is_stmt 1 view .LVU27
  85              		.loc 1 176 12 is_stmt 0 view .LVU28
  86 0026 324C     		ldr	r4, .L19
  87 0028 5EF80440 		ldr	r4, [lr, r4]
  88              	.LVL6:
 177:Drivers/STM32F3xx_HAL_Driver/Src/stm32f3xx_hal_exti.c **** 
 178:Drivers/STM32F3xx_HAL_Driver/Src/stm32f3xx_hal_exti.c ****     /* Mask or set line */
 179:Drivers/STM32F3xx_HAL_Driver/Src/stm32f3xx_hal_exti.c ****     if ((pExtiConfig->Trigger & EXTI_TRIGGER_RISING) != 0x00u)
  89              		.loc 1 179 5 is_stmt 1 view .LVU29
  90              		.loc 1 179 8 is_stmt 0 view .LVU30
  91 002c 8D68     		ldr	r5, [r1, #8]
  92 002e 15F0010F 		tst	r5, #1
  93 0032 32D0     		beq	.L4
 180:Drivers/STM32F3xx_HAL_Driver/Src/stm32f3xx_hal_exti.c ****     {
 181:Drivers/STM32F3xx_HAL_Driver/Src/stm32f3xx_hal_exti.c ****       regval |= maskline;
  94              		.loc 1 181 7 is_stmt 1 view .LVU31
  95              		.loc 1 181 14 is_stmt 0 view .LVU32
  96 0034 0443     		orrs	r4, r4, r0
  97              	.LVL7:
  98              		.loc 1 181 14 view .LVU33
  99 0036 2546     		mov	r5, r4
 100              	.LVL8:
 101              	.L5:
 182:Drivers/STM32F3xx_HAL_Driver/Src/stm32f3xx_hal_exti.c ****     }
 183:Drivers/STM32F3xx_HAL_Driver/Src/stm32f3xx_hal_exti.c ****     else
 184:Drivers/STM32F3xx_HAL_Driver/Src/stm32f3xx_hal_exti.c ****     {
ARM GAS  C:\Temp\ccZihlc1.s 			page 6


 185:Drivers/STM32F3xx_HAL_Driver/Src/stm32f3xx_hal_exti.c ****       regval &= ~maskline;
 186:Drivers/STM32F3xx_HAL_Driver/Src/stm32f3xx_hal_exti.c ****     }
 187:Drivers/STM32F3xx_HAL_Driver/Src/stm32f3xx_hal_exti.c **** 
 188:Drivers/STM32F3xx_HAL_Driver/Src/stm32f3xx_hal_exti.c ****     /* Store rising trigger mode */
 189:Drivers/STM32F3xx_HAL_Driver/Src/stm32f3xx_hal_exti.c ****     *regaddr = regval;
 102              		.loc 1 189 5 is_stmt 1 view .LVU34
 103              		.loc 1 189 14 is_stmt 0 view .LVU35
 104 0038 2D4C     		ldr	r4, .L19
 105 003a 4EF80450 		str	r5, [lr, r4]
 190:Drivers/STM32F3xx_HAL_Driver/Src/stm32f3xx_hal_exti.c **** 
 191:Drivers/STM32F3xx_HAL_Driver/Src/stm32f3xx_hal_exti.c ****     /* Configure falling trigger */
 192:Drivers/STM32F3xx_HAL_Driver/Src/stm32f3xx_hal_exti.c ****     regaddr = (&EXTI->FTSR + (EXTI_CONFIG_OFFSET * offset));
 106              		.loc 1 192 5 is_stmt 1 view .LVU36
 107              	.LVL9:
 193:Drivers/STM32F3xx_HAL_Driver/Src/stm32f3xx_hal_exti.c ****     regval = *regaddr;
 108              		.loc 1 193 5 view .LVU37
 109              		.loc 1 193 12 is_stmt 0 view .LVU38
 110 003e 0434     		adds	r4, r4, #4
 111 0040 5EF80440 		ldr	r4, [lr, r4]
 112              	.LVL10:
 194:Drivers/STM32F3xx_HAL_Driver/Src/stm32f3xx_hal_exti.c **** 
 195:Drivers/STM32F3xx_HAL_Driver/Src/stm32f3xx_hal_exti.c ****     /* Mask or set line */
 196:Drivers/STM32F3xx_HAL_Driver/Src/stm32f3xx_hal_exti.c ****     if ((pExtiConfig->Trigger & EXTI_TRIGGER_FALLING) != 0x00u)
 113              		.loc 1 196 5 is_stmt 1 view .LVU39
 114              		.loc 1 196 8 is_stmt 0 view .LVU40
 115 0044 8D68     		ldr	r5, [r1, #8]
 116 0046 15F0020F 		tst	r5, #2
 117 004a 2AD0     		beq	.L6
 197:Drivers/STM32F3xx_HAL_Driver/Src/stm32f3xx_hal_exti.c ****     {
 198:Drivers/STM32F3xx_HAL_Driver/Src/stm32f3xx_hal_exti.c ****       regval |= maskline;
 118              		.loc 1 198 7 is_stmt 1 view .LVU41
 119              		.loc 1 198 14 is_stmt 0 view .LVU42
 120 004c 0443     		orrs	r4, r4, r0
 121              	.LVL11:
 122              		.loc 1 198 14 view .LVU43
 123 004e 2546     		mov	r5, r4
 124              	.LVL12:
 125              	.L7:
 199:Drivers/STM32F3xx_HAL_Driver/Src/stm32f3xx_hal_exti.c ****     }
 200:Drivers/STM32F3xx_HAL_Driver/Src/stm32f3xx_hal_exti.c ****     else
 201:Drivers/STM32F3xx_HAL_Driver/Src/stm32f3xx_hal_exti.c ****     {
 202:Drivers/STM32F3xx_HAL_Driver/Src/stm32f3xx_hal_exti.c ****       regval &= ~maskline;
 203:Drivers/STM32F3xx_HAL_Driver/Src/stm32f3xx_hal_exti.c ****     }
 204:Drivers/STM32F3xx_HAL_Driver/Src/stm32f3xx_hal_exti.c **** 
 205:Drivers/STM32F3xx_HAL_Driver/Src/stm32f3xx_hal_exti.c ****     /* Store falling trigger mode */
 206:Drivers/STM32F3xx_HAL_Driver/Src/stm32f3xx_hal_exti.c ****     *regaddr = regval;
 126              		.loc 1 206 5 is_stmt 1 view .LVU44
 127              		.loc 1 206 14 is_stmt 0 view .LVU45
 128 0050 284C     		ldr	r4, .L19+4
 129 0052 4EF80450 		str	r5, [lr, r4]
 207:Drivers/STM32F3xx_HAL_Driver/Src/stm32f3xx_hal_exti.c **** 
 208:Drivers/STM32F3xx_HAL_Driver/Src/stm32f3xx_hal_exti.c ****     /* Configure gpio port selection in case of gpio exti line */
 209:Drivers/STM32F3xx_HAL_Driver/Src/stm32f3xx_hal_exti.c ****     if ((pExtiConfig->Line & EXTI_GPIO) == EXTI_GPIO)
 130              		.loc 1 209 5 is_stmt 1 view .LVU46
 131              		.loc 1 209 28 is_stmt 0 view .LVU47
 132 0056 0C68     		ldr	r4, [r1]
 133 0058 04F0C06E 		and	lr, r4, #100663296
ARM GAS  C:\Temp\ccZihlc1.s 			page 7


 134              	.LVL13:
 135              		.loc 1 209 8 view .LVU48
 136 005c BEF1C06F 		cmp	lr, #100663296
 137 0060 23D0     		beq	.L18
 138              	.LVL14:
 139              	.L3:
 210:Drivers/STM32F3xx_HAL_Driver/Src/stm32f3xx_hal_exti.c ****     {
 211:Drivers/STM32F3xx_HAL_Driver/Src/stm32f3xx_hal_exti.c ****       assert_param(IS_EXTI_GPIO_PORT(pExtiConfig->GPIOSel));
 212:Drivers/STM32F3xx_HAL_Driver/Src/stm32f3xx_hal_exti.c ****       assert_param(IS_EXTI_GPIO_PIN(linepos));
 213:Drivers/STM32F3xx_HAL_Driver/Src/stm32f3xx_hal_exti.c **** 
 214:Drivers/STM32F3xx_HAL_Driver/Src/stm32f3xx_hal_exti.c ****       regval = SYSCFG->EXTICR[linepos >> 2u];
 215:Drivers/STM32F3xx_HAL_Driver/Src/stm32f3xx_hal_exti.c ****       regval &= ~(SYSCFG_EXTICR1_EXTI0 << (SYSCFG_EXTICR1_EXTI1_Pos * (linepos & 0x03u)));
 216:Drivers/STM32F3xx_HAL_Driver/Src/stm32f3xx_hal_exti.c ****       regval |= (pExtiConfig->GPIOSel << (SYSCFG_EXTICR1_EXTI1_Pos * (linepos & 0x03u)));
 217:Drivers/STM32F3xx_HAL_Driver/Src/stm32f3xx_hal_exti.c ****       SYSCFG->EXTICR[linepos >> 2u] = regval;
 218:Drivers/STM32F3xx_HAL_Driver/Src/stm32f3xx_hal_exti.c ****     }
 219:Drivers/STM32F3xx_HAL_Driver/Src/stm32f3xx_hal_exti.c ****   }
 220:Drivers/STM32F3xx_HAL_Driver/Src/stm32f3xx_hal_exti.c **** 
 221:Drivers/STM32F3xx_HAL_Driver/Src/stm32f3xx_hal_exti.c ****   /* Configure interrupt mode : read current mode */
 222:Drivers/STM32F3xx_HAL_Driver/Src/stm32f3xx_hal_exti.c ****   regaddr = (&EXTI->IMR + (EXTI_MODE_OFFSET * offset));
 140              		.loc 1 222 3 is_stmt 1 view .LVU49
 141              		.loc 1 222 25 is_stmt 0 view .LVU50
 142 0062 5B01     		lsls	r3, r3, #5
 143              	.LVL15:
 144              		.loc 1 222 11 view .LVU51
 145 0064 03F18042 		add	r2, r3, #1073741824
 146 0068 02F58232 		add	r2, r2, #66560
 147              	.LVL16:
 223:Drivers/STM32F3xx_HAL_Driver/Src/stm32f3xx_hal_exti.c ****   regval = *regaddr;
 148              		.loc 1 223 3 is_stmt 1 view .LVU52
 149              		.loc 1 223 10 is_stmt 0 view .LVU53
 150 006c D2F800C0 		ldr	ip, [r2]
 151              	.LVL17:
 224:Drivers/STM32F3xx_HAL_Driver/Src/stm32f3xx_hal_exti.c **** 
 225:Drivers/STM32F3xx_HAL_Driver/Src/stm32f3xx_hal_exti.c ****   /* Mask or set line */
 226:Drivers/STM32F3xx_HAL_Driver/Src/stm32f3xx_hal_exti.c ****   if ((pExtiConfig->Mode & EXTI_MODE_INTERRUPT) != 0x00u)
 152              		.loc 1 226 3 is_stmt 1 view .LVU54
 153              		.loc 1 226 6 is_stmt 0 view .LVU55
 154 0070 4C68     		ldr	r4, [r1, #4]
 155 0072 14F0010F 		tst	r4, #1
 156 0076 30D0     		beq	.L8
 227:Drivers/STM32F3xx_HAL_Driver/Src/stm32f3xx_hal_exti.c ****   {
 228:Drivers/STM32F3xx_HAL_Driver/Src/stm32f3xx_hal_exti.c ****     regval |= maskline;
 157              		.loc 1 228 5 is_stmt 1 view .LVU56
 158              		.loc 1 228 12 is_stmt 0 view .LVU57
 159 0078 40EA0C0C 		orr	ip, r0, ip
 160              	.LVL18:
 161              	.L9:
 229:Drivers/STM32F3xx_HAL_Driver/Src/stm32f3xx_hal_exti.c ****   }
 230:Drivers/STM32F3xx_HAL_Driver/Src/stm32f3xx_hal_exti.c ****   else
 231:Drivers/STM32F3xx_HAL_Driver/Src/stm32f3xx_hal_exti.c ****   {
 232:Drivers/STM32F3xx_HAL_Driver/Src/stm32f3xx_hal_exti.c ****     regval &= ~maskline;
 233:Drivers/STM32F3xx_HAL_Driver/Src/stm32f3xx_hal_exti.c ****   }
 234:Drivers/STM32F3xx_HAL_Driver/Src/stm32f3xx_hal_exti.c **** 
 235:Drivers/STM32F3xx_HAL_Driver/Src/stm32f3xx_hal_exti.c ****   /* Store interrupt mode */
 236:Drivers/STM32F3xx_HAL_Driver/Src/stm32f3xx_hal_exti.c ****   *regaddr = regval;
 162              		.loc 1 236 3 is_stmt 1 view .LVU58
 163              		.loc 1 236 12 is_stmt 0 view .LVU59
ARM GAS  C:\Temp\ccZihlc1.s 			page 8


 164 007c C2F800C0 		str	ip, [r2]
 237:Drivers/STM32F3xx_HAL_Driver/Src/stm32f3xx_hal_exti.c **** 
 238:Drivers/STM32F3xx_HAL_Driver/Src/stm32f3xx_hal_exti.c ****   /* Configure event mode : read current mode */
 239:Drivers/STM32F3xx_HAL_Driver/Src/stm32f3xx_hal_exti.c ****   regaddr = (&EXTI->EMR + (EXTI_MODE_OFFSET * offset));
 165              		.loc 1 239 3 is_stmt 1 view .LVU60
 166              		.loc 1 239 11 is_stmt 0 view .LVU61
 167 0080 DFF878C0 		ldr	ip, .L19+12
 168              	.LVL19:
 240:Drivers/STM32F3xx_HAL_Driver/Src/stm32f3xx_hal_exti.c ****   regval = *regaddr;
 169              		.loc 1 240 3 is_stmt 1 view .LVU62
 170              		.loc 1 240 10 is_stmt 0 view .LVU63
 171 0084 53F80C20 		ldr	r2, [r3, ip]
 172              	.LVL20:
 241:Drivers/STM32F3xx_HAL_Driver/Src/stm32f3xx_hal_exti.c **** 
 242:Drivers/STM32F3xx_HAL_Driver/Src/stm32f3xx_hal_exti.c ****   /* Mask or set line */
 243:Drivers/STM32F3xx_HAL_Driver/Src/stm32f3xx_hal_exti.c ****   if ((pExtiConfig->Mode & EXTI_MODE_EVENT) != 0x00u)
 173              		.loc 1 243 3 is_stmt 1 view .LVU64
 174              		.loc 1 243 19 is_stmt 0 view .LVU65
 175 0088 4968     		ldr	r1, [r1, #4]
 176              	.LVL21:
 177              		.loc 1 243 6 view .LVU66
 178 008a 11F0020F 		tst	r1, #2
 179 008e 27D0     		beq	.L10
 244:Drivers/STM32F3xx_HAL_Driver/Src/stm32f3xx_hal_exti.c ****   {
 245:Drivers/STM32F3xx_HAL_Driver/Src/stm32f3xx_hal_exti.c ****     regval |= maskline;
 180              		.loc 1 245 5 is_stmt 1 view .LVU67
 181              		.loc 1 245 12 is_stmt 0 view .LVU68
 182 0090 0243     		orrs	r2, r2, r0
 183              	.LVL22:
 184              	.L11:
 246:Drivers/STM32F3xx_HAL_Driver/Src/stm32f3xx_hal_exti.c ****   }
 247:Drivers/STM32F3xx_HAL_Driver/Src/stm32f3xx_hal_exti.c ****   else
 248:Drivers/STM32F3xx_HAL_Driver/Src/stm32f3xx_hal_exti.c ****   {
 249:Drivers/STM32F3xx_HAL_Driver/Src/stm32f3xx_hal_exti.c ****     regval &= ~maskline;
 250:Drivers/STM32F3xx_HAL_Driver/Src/stm32f3xx_hal_exti.c ****   }
 251:Drivers/STM32F3xx_HAL_Driver/Src/stm32f3xx_hal_exti.c **** 
 252:Drivers/STM32F3xx_HAL_Driver/Src/stm32f3xx_hal_exti.c ****   /* Store event mode */
 253:Drivers/STM32F3xx_HAL_Driver/Src/stm32f3xx_hal_exti.c ****   *regaddr = regval;
 185              		.loc 1 253 3 is_stmt 1 view .LVU69
 186              		.loc 1 253 12 is_stmt 0 view .LVU70
 187 0092 43F80C20 		str	r2, [r3, ip]
 254:Drivers/STM32F3xx_HAL_Driver/Src/stm32f3xx_hal_exti.c **** 
 255:Drivers/STM32F3xx_HAL_Driver/Src/stm32f3xx_hal_exti.c ****   return HAL_OK;
 188              		.loc 1 255 3 is_stmt 1 view .LVU71
 189              		.loc 1 255 10 is_stmt 0 view .LVU72
 190 0096 0020     		movs	r0, #0
 191              	.LVL23:
 256:Drivers/STM32F3xx_HAL_Driver/Src/stm32f3xx_hal_exti.c **** }
 192              		.loc 1 256 1 view .LVU73
 193 0098 30BD     		pop	{r4, r5, pc}
 194              	.LVL24:
 195              	.L4:
 185:Drivers/STM32F3xx_HAL_Driver/Src/stm32f3xx_hal_exti.c ****     }
 196              		.loc 1 185 7 is_stmt 1 view .LVU74
 185:Drivers/STM32F3xx_HAL_Driver/Src/stm32f3xx_hal_exti.c ****     }
 197              		.loc 1 185 14 is_stmt 0 view .LVU75
 198 009a 24EA0004 		bic	r4, r4, r0
ARM GAS  C:\Temp\ccZihlc1.s 			page 9


 199              	.LVL25:
 185:Drivers/STM32F3xx_HAL_Driver/Src/stm32f3xx_hal_exti.c ****     }
 200              		.loc 1 185 14 view .LVU76
 201 009e 2546     		mov	r5, r4
 202 00a0 CAE7     		b	.L5
 203              	.LVL26:
 204              	.L6:
 202:Drivers/STM32F3xx_HAL_Driver/Src/stm32f3xx_hal_exti.c ****     }
 205              		.loc 1 202 7 is_stmt 1 view .LVU77
 202:Drivers/STM32F3xx_HAL_Driver/Src/stm32f3xx_hal_exti.c ****     }
 206              		.loc 1 202 14 is_stmt 0 view .LVU78
 207 00a2 24EA0004 		bic	r4, r4, r0
 208              	.LVL27:
 202:Drivers/STM32F3xx_HAL_Driver/Src/stm32f3xx_hal_exti.c ****     }
 209              		.loc 1 202 14 view .LVU79
 210 00a6 2546     		mov	r5, r4
 211 00a8 D2E7     		b	.L7
 212              	.LVL28:
 213              	.L18:
 211:Drivers/STM32F3xx_HAL_Driver/Src/stm32f3xx_hal_exti.c ****       assert_param(IS_EXTI_GPIO_PIN(linepos));
 214              		.loc 1 211 7 is_stmt 1 view .LVU80
 212:Drivers/STM32F3xx_HAL_Driver/Src/stm32f3xx_hal_exti.c **** 
 215              		.loc 1 212 7 view .LVU81
 214:Drivers/STM32F3xx_HAL_Driver/Src/stm32f3xx_hal_exti.c ****       regval &= ~(SYSCFG_EXTICR1_EXTI0 << (SYSCFG_EXTICR1_EXTI1_Pos * (linepos & 0x03u)));
 216              		.loc 1 214 7 view .LVU82
 214:Drivers/STM32F3xx_HAL_Driver/Src/stm32f3xx_hal_exti.c ****       regval &= ~(SYSCFG_EXTICR1_EXTI0 << (SYSCFG_EXTICR1_EXTI1_Pos * (linepos & 0x03u)));
 217              		.loc 1 214 39 is_stmt 0 view .LVU83
 218 00aa 4FEA9C0C 		lsr	ip, ip, #2
 219              	.LVL29:
 214:Drivers/STM32F3xx_HAL_Driver/Src/stm32f3xx_hal_exti.c ****       regval &= ~(SYSCFG_EXTICR1_EXTI0 << (SYSCFG_EXTICR1_EXTI1_Pos * (linepos & 0x03u)));
 220              		.loc 1 214 14 view .LVU84
 221 00ae 0CF1020C 		add	ip, ip, #2
 222 00b2 114C     		ldr	r4, .L19+8
 223 00b4 54F82C50 		ldr	r5, [r4, ip, lsl #2]
 224              	.LVL30:
 215:Drivers/STM32F3xx_HAL_Driver/Src/stm32f3xx_hal_exti.c ****       regval |= (pExtiConfig->GPIOSel << (SYSCFG_EXTICR1_EXTI1_Pos * (linepos & 0x03u)));
 225              		.loc 1 215 7 is_stmt 1 view .LVU85
 215:Drivers/STM32F3xx_HAL_Driver/Src/stm32f3xx_hal_exti.c ****       regval |= (pExtiConfig->GPIOSel << (SYSCFG_EXTICR1_EXTI1_Pos * (linepos & 0x03u)));
 226              		.loc 1 215 80 is_stmt 0 view .LVU86
 227 00b8 02F00302 		and	r2, r2, #3
 228              	.LVL31:
 215:Drivers/STM32F3xx_HAL_Driver/Src/stm32f3xx_hal_exti.c ****       regval |= (pExtiConfig->GPIOSel << (SYSCFG_EXTICR1_EXTI1_Pos * (linepos & 0x03u)));
 229              		.loc 1 215 69 view .LVU87
 230 00bc 9200     		lsls	r2, r2, #2
 215:Drivers/STM32F3xx_HAL_Driver/Src/stm32f3xx_hal_exti.c ****       regval |= (pExtiConfig->GPIOSel << (SYSCFG_EXTICR1_EXTI1_Pos * (linepos & 0x03u)));
 231              		.loc 1 215 40 view .LVU88
 232 00be 4FF00F0E 		mov	lr, #15
 233 00c2 0EFA02FE 		lsl	lr, lr, r2
 215:Drivers/STM32F3xx_HAL_Driver/Src/stm32f3xx_hal_exti.c ****       regval |= (pExtiConfig->GPIOSel << (SYSCFG_EXTICR1_EXTI1_Pos * (linepos & 0x03u)));
 234              		.loc 1 215 14 view .LVU89
 235 00c6 25EA0E0E 		bic	lr, r5, lr
 236              	.LVL32:
 216:Drivers/STM32F3xx_HAL_Driver/Src/stm32f3xx_hal_exti.c ****       SYSCFG->EXTICR[linepos >> 2u] = regval;
 237              		.loc 1 216 7 is_stmt 1 view .LVU90
 216:Drivers/STM32F3xx_HAL_Driver/Src/stm32f3xx_hal_exti.c ****       SYSCFG->EXTICR[linepos >> 2u] = regval;
 238              		.loc 1 216 39 is_stmt 0 view .LVU91
 239 00ca CD68     		ldr	r5, [r1, #12]
ARM GAS  C:\Temp\ccZihlc1.s 			page 10


 240 00cc 05FA02F2 		lsl	r2, r5, r2
 216:Drivers/STM32F3xx_HAL_Driver/Src/stm32f3xx_hal_exti.c ****       SYSCFG->EXTICR[linepos >> 2u] = regval;
 241              		.loc 1 216 14 view .LVU92
 242 00d0 42EA0E02 		orr	r2, r2, lr
 243              	.LVL33:
 217:Drivers/STM32F3xx_HAL_Driver/Src/stm32f3xx_hal_exti.c ****     }
 244              		.loc 1 217 7 is_stmt 1 view .LVU93
 217:Drivers/STM32F3xx_HAL_Driver/Src/stm32f3xx_hal_exti.c ****     }
 245              		.loc 1 217 37 is_stmt 0 view .LVU94
 246 00d4 44F82C20 		str	r2, [r4, ip, lsl #2]
 247 00d8 C3E7     		b	.L3
 248              	.LVL34:
 249              	.L8:
 232:Drivers/STM32F3xx_HAL_Driver/Src/stm32f3xx_hal_exti.c ****   }
 250              		.loc 1 232 5 is_stmt 1 view .LVU95
 232:Drivers/STM32F3xx_HAL_Driver/Src/stm32f3xx_hal_exti.c ****   }
 251              		.loc 1 232 12 is_stmt 0 view .LVU96
 252 00da 2CEA000C 		bic	ip, ip, r0
 253              	.LVL35:
 232:Drivers/STM32F3xx_HAL_Driver/Src/stm32f3xx_hal_exti.c ****   }
 254              		.loc 1 232 12 view .LVU97
 255 00de CDE7     		b	.L9
 256              	.LVL36:
 257              	.L10:
 249:Drivers/STM32F3xx_HAL_Driver/Src/stm32f3xx_hal_exti.c ****   }
 258              		.loc 1 249 5 is_stmt 1 view .LVU98
 249:Drivers/STM32F3xx_HAL_Driver/Src/stm32f3xx_hal_exti.c ****   }
 259              		.loc 1 249 12 is_stmt 0 view .LVU99
 260 00e0 22EA0002 		bic	r2, r2, r0
 261              	.LVL37:
 249:Drivers/STM32F3xx_HAL_Driver/Src/stm32f3xx_hal_exti.c ****   }
 262              		.loc 1 249 12 view .LVU100
 263 00e4 D5E7     		b	.L11
 264              	.LVL38:
 265              	.L12:
 266              	.LCFI1:
 267              		.cfi_def_cfa_offset 0
 268              		.cfi_restore 4
 269              		.cfi_restore 5
 270              		.cfi_restore 14
 154:Drivers/STM32F3xx_HAL_Driver/Src/stm32f3xx_hal_exti.c ****   }
 271              		.loc 1 154 12 view .LVU101
 272 00e6 0120     		movs	r0, #1
 273              	.LVL39:
 154:Drivers/STM32F3xx_HAL_Driver/Src/stm32f3xx_hal_exti.c ****   }
 274              		.loc 1 154 12 view .LVU102
 275 00e8 7047     		bx	lr
 276              	.LVL40:
 277              	.L13:
 154:Drivers/STM32F3xx_HAL_Driver/Src/stm32f3xx_hal_exti.c ****   }
 278              		.loc 1 154 12 view .LVU103
 279 00ea 0120     		movs	r0, #1
 280              	.LVL41:
 281              		.loc 1 256 1 view .LVU104
 282 00ec 7047     		bx	lr
 283              	.L20:
 284 00ee 00BF     		.align	2
ARM GAS  C:\Temp\ccZihlc1.s 			page 11


 285              	.L19:
 286 00f0 08040140 		.word	1073808392
 287 00f4 0C040140 		.word	1073808396
 288 00f8 00000140 		.word	1073807360
 289 00fc 04040140 		.word	1073808388
 290              		.cfi_endproc
 291              	.LFE130:
 293              		.section	.text.HAL_EXTI_GetConfigLine,"ax",%progbits
 294              		.align	1
 295              		.global	HAL_EXTI_GetConfigLine
 296              		.syntax unified
 297              		.thumb
 298              		.thumb_func
 300              	HAL_EXTI_GetConfigLine:
 301              	.LVL42:
 302              	.LFB131:
 257:Drivers/STM32F3xx_HAL_Driver/Src/stm32f3xx_hal_exti.c **** 
 258:Drivers/STM32F3xx_HAL_Driver/Src/stm32f3xx_hal_exti.c **** /**
 259:Drivers/STM32F3xx_HAL_Driver/Src/stm32f3xx_hal_exti.c ****   * @brief  Get configuration of a dedicated Exti line.
 260:Drivers/STM32F3xx_HAL_Driver/Src/stm32f3xx_hal_exti.c ****   * @param  hexti Exti handle.
 261:Drivers/STM32F3xx_HAL_Driver/Src/stm32f3xx_hal_exti.c ****   * @param  pExtiConfig Pointer on structure to store Exti configuration.
 262:Drivers/STM32F3xx_HAL_Driver/Src/stm32f3xx_hal_exti.c ****   * @retval HAL Status.
 263:Drivers/STM32F3xx_HAL_Driver/Src/stm32f3xx_hal_exti.c ****   */
 264:Drivers/STM32F3xx_HAL_Driver/Src/stm32f3xx_hal_exti.c **** HAL_StatusTypeDef HAL_EXTI_GetConfigLine(EXTI_HandleTypeDef *hexti, EXTI_ConfigTypeDef *pExtiConfig
 265:Drivers/STM32F3xx_HAL_Driver/Src/stm32f3xx_hal_exti.c **** {
 303              		.loc 1 265 1 is_stmt 1 view -0
 304              		.cfi_startproc
 305              		@ args = 0, pretend = 0, frame = 0
 306              		@ frame_needed = 0, uses_anonymous_args = 0
 266:Drivers/STM32F3xx_HAL_Driver/Src/stm32f3xx_hal_exti.c ****   __IO uint32_t *regaddr;
 307              		.loc 1 266 3 view .LVU106
 267:Drivers/STM32F3xx_HAL_Driver/Src/stm32f3xx_hal_exti.c ****   uint32_t regval;
 308              		.loc 1 267 3 view .LVU107
 268:Drivers/STM32F3xx_HAL_Driver/Src/stm32f3xx_hal_exti.c ****   uint32_t linepos;
 309              		.loc 1 268 3 view .LVU108
 269:Drivers/STM32F3xx_HAL_Driver/Src/stm32f3xx_hal_exti.c ****   uint32_t maskline;
 310              		.loc 1 269 3 view .LVU109
 270:Drivers/STM32F3xx_HAL_Driver/Src/stm32f3xx_hal_exti.c ****   uint32_t offset;
 311              		.loc 1 270 3 view .LVU110
 271:Drivers/STM32F3xx_HAL_Driver/Src/stm32f3xx_hal_exti.c **** 
 272:Drivers/STM32F3xx_HAL_Driver/Src/stm32f3xx_hal_exti.c ****   /* Check null pointer */
 273:Drivers/STM32F3xx_HAL_Driver/Src/stm32f3xx_hal_exti.c ****   if ((hexti == NULL) || (pExtiConfig == NULL))
 312              		.loc 1 273 3 view .LVU111
 313              		.loc 1 273 6 is_stmt 0 view .LVU112
 314 0000 0028     		cmp	r0, #0
 315 0002 5FD0     		beq	.L28
 316              		.loc 1 273 23 discriminator 1 view .LVU113
 317 0004 0029     		cmp	r1, #0
 318 0006 5FD0     		beq	.L29
 265:Drivers/STM32F3xx_HAL_Driver/Src/stm32f3xx_hal_exti.c ****   __IO uint32_t *regaddr;
 319              		.loc 1 265 1 view .LVU114
 320 0008 10B5     		push	{r4, lr}
 321              	.LCFI2:
 322              		.cfi_def_cfa_offset 8
 323              		.cfi_offset 4, -8
 324              		.cfi_offset 14, -4
 274:Drivers/STM32F3xx_HAL_Driver/Src/stm32f3xx_hal_exti.c ****   {
ARM GAS  C:\Temp\ccZihlc1.s 			page 12


 275:Drivers/STM32F3xx_HAL_Driver/Src/stm32f3xx_hal_exti.c ****     return HAL_ERROR;
 276:Drivers/STM32F3xx_HAL_Driver/Src/stm32f3xx_hal_exti.c ****   }
 277:Drivers/STM32F3xx_HAL_Driver/Src/stm32f3xx_hal_exti.c **** 
 278:Drivers/STM32F3xx_HAL_Driver/Src/stm32f3xx_hal_exti.c ****   /* Check the parameter */
 279:Drivers/STM32F3xx_HAL_Driver/Src/stm32f3xx_hal_exti.c ****   assert_param(IS_EXTI_LINE(hexti->Line));
 325              		.loc 1 279 3 is_stmt 1 view .LVU115
 280:Drivers/STM32F3xx_HAL_Driver/Src/stm32f3xx_hal_exti.c **** 
 281:Drivers/STM32F3xx_HAL_Driver/Src/stm32f3xx_hal_exti.c ****   /* Store handle line number to configuration structure */
 282:Drivers/STM32F3xx_HAL_Driver/Src/stm32f3xx_hal_exti.c ****   pExtiConfig->Line = hexti->Line;
 326              		.loc 1 282 3 view .LVU116
 327              		.loc 1 282 28 is_stmt 0 view .LVU117
 328 000a 0368     		ldr	r3, [r0]
 329              		.loc 1 282 21 view .LVU118
 330 000c 0B60     		str	r3, [r1]
 283:Drivers/STM32F3xx_HAL_Driver/Src/stm32f3xx_hal_exti.c **** 
 284:Drivers/STM32F3xx_HAL_Driver/Src/stm32f3xx_hal_exti.c ****   /* compute line register offset and line mask */
 285:Drivers/STM32F3xx_HAL_Driver/Src/stm32f3xx_hal_exti.c ****   offset = ((pExtiConfig->Line & EXTI_REG_MASK) >> EXTI_REG_SHIFT);
 331              		.loc 1 285 3 is_stmt 1 view .LVU119
 332              		.loc 1 285 10 is_stmt 0 view .LVU120
 333 000e C3F30040 		ubfx	r0, r3, #16, #1
 334              	.LVL43:
 286:Drivers/STM32F3xx_HAL_Driver/Src/stm32f3xx_hal_exti.c ****   linepos = (pExtiConfig->Line & EXTI_PIN_MASK);
 335              		.loc 1 286 3 is_stmt 1 view .LVU121
 336              		.loc 1 286 11 is_stmt 0 view .LVU122
 337 0012 03F01F0E 		and	lr, r3, #31
 338              	.LVL44:
 287:Drivers/STM32F3xx_HAL_Driver/Src/stm32f3xx_hal_exti.c ****   maskline = (1uL << linepos);
 339              		.loc 1 287 3 is_stmt 1 view .LVU123
 340              		.loc 1 287 12 is_stmt 0 view .LVU124
 341 0016 0122     		movs	r2, #1
 342 0018 02FA0EF2 		lsl	r2, r2, lr
 343              	.LVL45:
 288:Drivers/STM32F3xx_HAL_Driver/Src/stm32f3xx_hal_exti.c **** 
 289:Drivers/STM32F3xx_HAL_Driver/Src/stm32f3xx_hal_exti.c ****   /* 1] Get core mode : interrupt */
 290:Drivers/STM32F3xx_HAL_Driver/Src/stm32f3xx_hal_exti.c ****   regaddr = (&EXTI->IMR + (EXTI_MODE_OFFSET * offset));
 344              		.loc 1 290 3 is_stmt 1 view .LVU125
 345              		.loc 1 290 25 is_stmt 0 view .LVU126
 346 001c 4001     		lsls	r0, r0, #5
 347              	.LVL46:
 348              		.loc 1 290 11 view .LVU127
 349 001e 00F1804C 		add	ip, r0, #1073741824
 350 0022 0CF5823C 		add	ip, ip, #66560
 351              	.LVL47:
 291:Drivers/STM32F3xx_HAL_Driver/Src/stm32f3xx_hal_exti.c ****   regval = *regaddr;
 352              		.loc 1 291 3 is_stmt 1 view .LVU128
 353              		.loc 1 291 10 is_stmt 0 view .LVU129
 354 0026 DCF800C0 		ldr	ip, [ip]
 355              	.LVL48:
 292:Drivers/STM32F3xx_HAL_Driver/Src/stm32f3xx_hal_exti.c **** 
 293:Drivers/STM32F3xx_HAL_Driver/Src/stm32f3xx_hal_exti.c ****   /* Check if selected line is enable */
 294:Drivers/STM32F3xx_HAL_Driver/Src/stm32f3xx_hal_exti.c ****   if ((regval & maskline) != 0x00u)
 356              		.loc 1 294 3 is_stmt 1 view .LVU130
 357              		.loc 1 294 6 is_stmt 0 view .LVU131
 358 002a 12EA0C0F 		tst	r2, ip
 359 002e 34D0     		beq	.L23
 295:Drivers/STM32F3xx_HAL_Driver/Src/stm32f3xx_hal_exti.c ****   {
 296:Drivers/STM32F3xx_HAL_Driver/Src/stm32f3xx_hal_exti.c ****     pExtiConfig->Mode = EXTI_MODE_INTERRUPT;
ARM GAS  C:\Temp\ccZihlc1.s 			page 13


 360              		.loc 1 296 5 is_stmt 1 view .LVU132
 361              		.loc 1 296 23 is_stmt 0 view .LVU133
 362 0030 4FF0010C 		mov	ip, #1
 363              	.LVL49:
 364              		.loc 1 296 23 view .LVU134
 365 0034 C1F804C0 		str	ip, [r1, #4]
 366              	.L24:
 297:Drivers/STM32F3xx_HAL_Driver/Src/stm32f3xx_hal_exti.c ****   }
 298:Drivers/STM32F3xx_HAL_Driver/Src/stm32f3xx_hal_exti.c ****   else
 299:Drivers/STM32F3xx_HAL_Driver/Src/stm32f3xx_hal_exti.c ****   {
 300:Drivers/STM32F3xx_HAL_Driver/Src/stm32f3xx_hal_exti.c ****     pExtiConfig->Mode = EXTI_MODE_NONE;
 301:Drivers/STM32F3xx_HAL_Driver/Src/stm32f3xx_hal_exti.c ****   }
 302:Drivers/STM32F3xx_HAL_Driver/Src/stm32f3xx_hal_exti.c **** 
 303:Drivers/STM32F3xx_HAL_Driver/Src/stm32f3xx_hal_exti.c ****   /* Get event mode */
 304:Drivers/STM32F3xx_HAL_Driver/Src/stm32f3xx_hal_exti.c ****   regaddr = (&EXTI->EMR + (EXTI_MODE_OFFSET * offset));
 367              		.loc 1 304 3 is_stmt 1 view .LVU135
 368              		.loc 1 304 11 is_stmt 0 view .LVU136
 369 0038 DFF898C0 		ldr	ip, .L37+4
 370              	.LVL50:
 305:Drivers/STM32F3xx_HAL_Driver/Src/stm32f3xx_hal_exti.c ****   regval = *regaddr;
 371              		.loc 1 305 3 is_stmt 1 view .LVU137
 372              		.loc 1 305 10 is_stmt 0 view .LVU138
 373 003c 50F80CC0 		ldr	ip, [r0, ip]
 374              	.LVL51:
 306:Drivers/STM32F3xx_HAL_Driver/Src/stm32f3xx_hal_exti.c **** 
 307:Drivers/STM32F3xx_HAL_Driver/Src/stm32f3xx_hal_exti.c ****   /* Check if selected line is enable */
 308:Drivers/STM32F3xx_HAL_Driver/Src/stm32f3xx_hal_exti.c ****   if ((regval & maskline) != 0x00u)
 375              		.loc 1 308 3 is_stmt 1 view .LVU139
 376              		.loc 1 308 6 is_stmt 0 view .LVU140
 377 0040 12EA0C0F 		tst	r2, ip
 378 0044 04D0     		beq	.L25
 309:Drivers/STM32F3xx_HAL_Driver/Src/stm32f3xx_hal_exti.c ****   {
 310:Drivers/STM32F3xx_HAL_Driver/Src/stm32f3xx_hal_exti.c ****     pExtiConfig->Mode |= EXTI_MODE_EVENT;
 379              		.loc 1 310 5 is_stmt 1 view .LVU141
 380              		.loc 1 310 23 is_stmt 0 view .LVU142
 381 0046 4C68     		ldr	r4, [r1, #4]
 382 0048 44F0020C 		orr	ip, r4, #2
 383              	.LVL52:
 384              		.loc 1 310 23 view .LVU143
 385 004c C1F804C0 		str	ip, [r1, #4]
 386              	.L25:
 311:Drivers/STM32F3xx_HAL_Driver/Src/stm32f3xx_hal_exti.c ****   }
 312:Drivers/STM32F3xx_HAL_Driver/Src/stm32f3xx_hal_exti.c **** 
 313:Drivers/STM32F3xx_HAL_Driver/Src/stm32f3xx_hal_exti.c ****   /* Get default Trigger and GPIOSel configuration */
 314:Drivers/STM32F3xx_HAL_Driver/Src/stm32f3xx_hal_exti.c ****   pExtiConfig->Trigger = EXTI_TRIGGER_NONE;
 387              		.loc 1 314 3 is_stmt 1 view .LVU144
 388              		.loc 1 314 24 is_stmt 0 view .LVU145
 389 0050 4FF0000C 		mov	ip, #0
 390 0054 C1F808C0 		str	ip, [r1, #8]
 315:Drivers/STM32F3xx_HAL_Driver/Src/stm32f3xx_hal_exti.c ****   pExtiConfig->GPIOSel = 0x00u;
 391              		.loc 1 315 3 is_stmt 1 view .LVU146
 392              		.loc 1 315 24 is_stmt 0 view .LVU147
 393 0058 C1F80CC0 		str	ip, [r1, #12]
 316:Drivers/STM32F3xx_HAL_Driver/Src/stm32f3xx_hal_exti.c **** 
 317:Drivers/STM32F3xx_HAL_Driver/Src/stm32f3xx_hal_exti.c ****   /* 2] Get trigger for configurable lines : rising */
 318:Drivers/STM32F3xx_HAL_Driver/Src/stm32f3xx_hal_exti.c ****   if ((pExtiConfig->Line & EXTI_CONFIG) != 0x00u)
 394              		.loc 1 318 3 is_stmt 1 view .LVU148
ARM GAS  C:\Temp\ccZihlc1.s 			page 14


 395              		.loc 1 318 6 is_stmt 0 view .LVU149
 396 005c 13F0007F 		tst	r3, #33554432
 397 0060 34D0     		beq	.L30
 319:Drivers/STM32F3xx_HAL_Driver/Src/stm32f3xx_hal_exti.c ****   {
 320:Drivers/STM32F3xx_HAL_Driver/Src/stm32f3xx_hal_exti.c ****     regaddr = (&EXTI->RTSR + (EXTI_CONFIG_OFFSET * offset));
 398              		.loc 1 320 5 is_stmt 1 view .LVU150
 399              		.loc 1 320 13 is_stmt 0 view .LVU151
 400 0062 DFF874C0 		ldr	ip, .L37+8
 401              	.LVL53:
 321:Drivers/STM32F3xx_HAL_Driver/Src/stm32f3xx_hal_exti.c ****     regval = *regaddr;
 402              		.loc 1 321 5 is_stmt 1 view .LVU152
 403              		.loc 1 321 12 is_stmt 0 view .LVU153
 404 0066 50F80CC0 		ldr	ip, [r0, ip]
 405              	.LVL54:
 322:Drivers/STM32F3xx_HAL_Driver/Src/stm32f3xx_hal_exti.c **** 
 323:Drivers/STM32F3xx_HAL_Driver/Src/stm32f3xx_hal_exti.c ****     /* Check if configuration of selected line is enable */
 324:Drivers/STM32F3xx_HAL_Driver/Src/stm32f3xx_hal_exti.c ****     if ((regval & maskline) != 0x00u)
 406              		.loc 1 324 5 is_stmt 1 view .LVU154
 407              		.loc 1 324 8 is_stmt 0 view .LVU155
 408 006a 12EA0C0F 		tst	r2, ip
 409 006e 03D0     		beq	.L26
 325:Drivers/STM32F3xx_HAL_Driver/Src/stm32f3xx_hal_exti.c ****     {
 326:Drivers/STM32F3xx_HAL_Driver/Src/stm32f3xx_hal_exti.c ****       pExtiConfig->Trigger = EXTI_TRIGGER_RISING;
 410              		.loc 1 326 7 is_stmt 1 view .LVU156
 411              		.loc 1 326 28 is_stmt 0 view .LVU157
 412 0070 4FF0010C 		mov	ip, #1
 413              	.LVL55:
 414              		.loc 1 326 28 view .LVU158
 415 0074 C1F808C0 		str	ip, [r1, #8]
 416              	.L26:
 327:Drivers/STM32F3xx_HAL_Driver/Src/stm32f3xx_hal_exti.c ****     }
 328:Drivers/STM32F3xx_HAL_Driver/Src/stm32f3xx_hal_exti.c **** 
 329:Drivers/STM32F3xx_HAL_Driver/Src/stm32f3xx_hal_exti.c ****     /* Get falling configuration */
 330:Drivers/STM32F3xx_HAL_Driver/Src/stm32f3xx_hal_exti.c ****     regaddr = (&EXTI->FTSR + (EXTI_CONFIG_OFFSET * offset));
 417              		.loc 1 330 5 is_stmt 1 view .LVU159
 418              		.loc 1 330 13 is_stmt 0 view .LVU160
 419 0078 DFF860C0 		ldr	ip, .L37+12
 420              	.LVL56:
 331:Drivers/STM32F3xx_HAL_Driver/Src/stm32f3xx_hal_exti.c ****     regval = *regaddr;
 421              		.loc 1 331 5 is_stmt 1 view .LVU161
 422              		.loc 1 331 12 is_stmt 0 view .LVU162
 423 007c 50F80C00 		ldr	r0, [r0, ip]
 424              	.LVL57:
 332:Drivers/STM32F3xx_HAL_Driver/Src/stm32f3xx_hal_exti.c **** 
 333:Drivers/STM32F3xx_HAL_Driver/Src/stm32f3xx_hal_exti.c ****     /* Check if configuration of selected line is enable */
 334:Drivers/STM32F3xx_HAL_Driver/Src/stm32f3xx_hal_exti.c ****     if ((regval & maskline) != 0x00u)
 425              		.loc 1 334 5 is_stmt 1 view .LVU163
 426              		.loc 1 334 8 is_stmt 0 view .LVU164
 427 0080 0242     		tst	r2, r0
 428 0082 03D0     		beq	.L27
 335:Drivers/STM32F3xx_HAL_Driver/Src/stm32f3xx_hal_exti.c ****     {
 336:Drivers/STM32F3xx_HAL_Driver/Src/stm32f3xx_hal_exti.c ****       pExtiConfig->Trigger |= EXTI_TRIGGER_FALLING;
 429              		.loc 1 336 7 is_stmt 1 view .LVU165
 430              		.loc 1 336 18 is_stmt 0 view .LVU166
 431 0084 8A68     		ldr	r2, [r1, #8]
 432              	.LVL58:
 433              		.loc 1 336 28 view .LVU167
ARM GAS  C:\Temp\ccZihlc1.s 			page 15


 434 0086 42F00202 		orr	r2, r2, #2
 435 008a 8A60     		str	r2, [r1, #8]
 436              	.L27:
 337:Drivers/STM32F3xx_HAL_Driver/Src/stm32f3xx_hal_exti.c ****     }
 338:Drivers/STM32F3xx_HAL_Driver/Src/stm32f3xx_hal_exti.c **** 
 339:Drivers/STM32F3xx_HAL_Driver/Src/stm32f3xx_hal_exti.c ****     /* Get Gpio port selection for gpio lines */
 340:Drivers/STM32F3xx_HAL_Driver/Src/stm32f3xx_hal_exti.c ****     if ((pExtiConfig->Line & EXTI_GPIO) == EXTI_GPIO)
 437              		.loc 1 340 5 is_stmt 1 view .LVU168
 438              		.loc 1 340 28 is_stmt 0 view .LVU169
 439 008c 03F0C062 		and	r2, r3, #100663296
 440              		.loc 1 340 8 view .LVU170
 441 0090 B2F1C06F 		cmp	r2, #100663296
 442 0094 06D0     		beq	.L36
 341:Drivers/STM32F3xx_HAL_Driver/Src/stm32f3xx_hal_exti.c ****     {
 342:Drivers/STM32F3xx_HAL_Driver/Src/stm32f3xx_hal_exti.c ****       assert_param(IS_EXTI_GPIO_PIN(linepos));
 343:Drivers/STM32F3xx_HAL_Driver/Src/stm32f3xx_hal_exti.c **** 
 344:Drivers/STM32F3xx_HAL_Driver/Src/stm32f3xx_hal_exti.c ****       regval = SYSCFG->EXTICR[linepos >> 2u];
 345:Drivers/STM32F3xx_HAL_Driver/Src/stm32f3xx_hal_exti.c ****       pExtiConfig->GPIOSel = (regval >> (SYSCFG_EXTICR1_EXTI1_Pos * (linepos & 0x03u))) & SYSCFG_EX
 346:Drivers/STM32F3xx_HAL_Driver/Src/stm32f3xx_hal_exti.c ****     }
 347:Drivers/STM32F3xx_HAL_Driver/Src/stm32f3xx_hal_exti.c ****   }
 348:Drivers/STM32F3xx_HAL_Driver/Src/stm32f3xx_hal_exti.c **** 
 349:Drivers/STM32F3xx_HAL_Driver/Src/stm32f3xx_hal_exti.c ****   return HAL_OK;
 443              		.loc 1 349 10 view .LVU171
 444 0096 0020     		movs	r0, #0
 445              	.LVL59:
 446              		.loc 1 349 10 view .LVU172
 447 0098 19E0     		b	.L22
 448              	.LVL60:
 449              	.L23:
 300:Drivers/STM32F3xx_HAL_Driver/Src/stm32f3xx_hal_exti.c ****   }
 450              		.loc 1 300 5 is_stmt 1 view .LVU173
 300:Drivers/STM32F3xx_HAL_Driver/Src/stm32f3xx_hal_exti.c ****   }
 451              		.loc 1 300 23 is_stmt 0 view .LVU174
 452 009a 4FF0000C 		mov	ip, #0
 453              	.LVL61:
 300:Drivers/STM32F3xx_HAL_Driver/Src/stm32f3xx_hal_exti.c ****   }
 454              		.loc 1 300 23 view .LVU175
 455 009e C1F804C0 		str	ip, [r1, #4]
 456 00a2 C9E7     		b	.L24
 457              	.LVL62:
 458              	.L36:
 342:Drivers/STM32F3xx_HAL_Driver/Src/stm32f3xx_hal_exti.c **** 
 459              		.loc 1 342 7 is_stmt 1 view .LVU176
 344:Drivers/STM32F3xx_HAL_Driver/Src/stm32f3xx_hal_exti.c ****       pExtiConfig->GPIOSel = (regval >> (SYSCFG_EXTICR1_EXTI1_Pos * (linepos & 0x03u))) & SYSCFG_EX
 460              		.loc 1 344 7 view .LVU177
 344:Drivers/STM32F3xx_HAL_Driver/Src/stm32f3xx_hal_exti.c ****       pExtiConfig->GPIOSel = (regval >> (SYSCFG_EXTICR1_EXTI1_Pos * (linepos & 0x03u))) & SYSCFG_EX
 461              		.loc 1 344 39 is_stmt 0 view .LVU178
 462 00a4 4FEA9E02 		lsr	r2, lr, #2
 344:Drivers/STM32F3xx_HAL_Driver/Src/stm32f3xx_hal_exti.c ****       pExtiConfig->GPIOSel = (regval >> (SYSCFG_EXTICR1_EXTI1_Pos * (linepos & 0x03u))) & SYSCFG_EX
 463              		.loc 1 344 14 view .LVU179
 464 00a8 0232     		adds	r2, r2, #2
 465 00aa 0948     		ldr	r0, .L37
 466              	.LVL63:
 344:Drivers/STM32F3xx_HAL_Driver/Src/stm32f3xx_hal_exti.c ****       pExtiConfig->GPIOSel = (regval >> (SYSCFG_EXTICR1_EXTI1_Pos * (linepos & 0x03u))) & SYSCFG_EX
 467              		.loc 1 344 14 view .LVU180
 468 00ac 50F82220 		ldr	r2, [r0, r2, lsl #2]
 469              	.LVL64:
ARM GAS  C:\Temp\ccZihlc1.s 			page 16


 345:Drivers/STM32F3xx_HAL_Driver/Src/stm32f3xx_hal_exti.c ****     }
 470              		.loc 1 345 7 is_stmt 1 view .LVU181
 345:Drivers/STM32F3xx_HAL_Driver/Src/stm32f3xx_hal_exti.c ****     }
 471              		.loc 1 345 78 is_stmt 0 view .LVU182
 472 00b0 03F00303 		and	r3, r3, #3
 473              	.LVL65:
 345:Drivers/STM32F3xx_HAL_Driver/Src/stm32f3xx_hal_exti.c ****     }
 474              		.loc 1 345 67 view .LVU183
 475 00b4 9B00     		lsls	r3, r3, #2
 345:Drivers/STM32F3xx_HAL_Driver/Src/stm32f3xx_hal_exti.c ****     }
 476              		.loc 1 345 38 view .LVU184
 477 00b6 22FA03F3 		lsr	r3, r2, r3
 345:Drivers/STM32F3xx_HAL_Driver/Src/stm32f3xx_hal_exti.c ****     }
 478              		.loc 1 345 89 view .LVU185
 479 00ba 03F00F03 		and	r3, r3, #15
 345:Drivers/STM32F3xx_HAL_Driver/Src/stm32f3xx_hal_exti.c ****     }
 480              		.loc 1 345 28 view .LVU186
 481 00be CB60     		str	r3, [r1, #12]
 482              		.loc 1 349 10 view .LVU187
 483 00c0 0020     		movs	r0, #0
 484 00c2 04E0     		b	.L22
 485              	.LVL66:
 486              	.L28:
 487              	.LCFI3:
 488              		.cfi_def_cfa_offset 0
 489              		.cfi_restore 4
 490              		.cfi_restore 14
 275:Drivers/STM32F3xx_HAL_Driver/Src/stm32f3xx_hal_exti.c ****   }
 491              		.loc 1 275 12 view .LVU188
 492 00c4 0120     		movs	r0, #1
 493              	.LVL67:
 275:Drivers/STM32F3xx_HAL_Driver/Src/stm32f3xx_hal_exti.c ****   }
 494              		.loc 1 275 12 view .LVU189
 495 00c6 7047     		bx	lr
 496              	.LVL68:
 497              	.L29:
 275:Drivers/STM32F3xx_HAL_Driver/Src/stm32f3xx_hal_exti.c ****   }
 498              		.loc 1 275 12 view .LVU190
 499 00c8 0120     		movs	r0, #1
 500              	.LVL69:
 350:Drivers/STM32F3xx_HAL_Driver/Src/stm32f3xx_hal_exti.c **** }
 501              		.loc 1 350 1 view .LVU191
 502 00ca 7047     		bx	lr
 503              	.LVL70:
 504              	.L30:
 505              	.LCFI4:
 506              		.cfi_def_cfa_offset 8
 507              		.cfi_offset 4, -8
 508              		.cfi_offset 14, -4
 349:Drivers/STM32F3xx_HAL_Driver/Src/stm32f3xx_hal_exti.c **** }
 509              		.loc 1 349 10 view .LVU192
 510 00cc 0020     		movs	r0, #0
 511              	.LVL71:
 512              	.L22:
 513              		.loc 1 350 1 view .LVU193
 514 00ce 10BD     		pop	{r4, pc}
 515              	.L38:
ARM GAS  C:\Temp\ccZihlc1.s 			page 17


 516              		.align	2
 517              	.L37:
 518 00d0 00000140 		.word	1073807360
 519 00d4 04040140 		.word	1073808388
 520 00d8 08040140 		.word	1073808392
 521 00dc 0C040140 		.word	1073808396
 522              		.cfi_endproc
 523              	.LFE131:
 525              		.section	.text.HAL_EXTI_ClearConfigLine,"ax",%progbits
 526              		.align	1
 527              		.global	HAL_EXTI_ClearConfigLine
 528              		.syntax unified
 529              		.thumb
 530              		.thumb_func
 532              	HAL_EXTI_ClearConfigLine:
 533              	.LVL72:
 534              	.LFB132:
 351:Drivers/STM32F3xx_HAL_Driver/Src/stm32f3xx_hal_exti.c **** 
 352:Drivers/STM32F3xx_HAL_Driver/Src/stm32f3xx_hal_exti.c **** /**
 353:Drivers/STM32F3xx_HAL_Driver/Src/stm32f3xx_hal_exti.c ****   * @brief  Clear whole configuration of a dedicated Exti line.
 354:Drivers/STM32F3xx_HAL_Driver/Src/stm32f3xx_hal_exti.c ****   * @param  hexti Exti handle.
 355:Drivers/STM32F3xx_HAL_Driver/Src/stm32f3xx_hal_exti.c ****   * @retval HAL Status.
 356:Drivers/STM32F3xx_HAL_Driver/Src/stm32f3xx_hal_exti.c ****   */
 357:Drivers/STM32F3xx_HAL_Driver/Src/stm32f3xx_hal_exti.c **** HAL_StatusTypeDef HAL_EXTI_ClearConfigLine(EXTI_HandleTypeDef *hexti)
 358:Drivers/STM32F3xx_HAL_Driver/Src/stm32f3xx_hal_exti.c **** {
 535              		.loc 1 358 1 is_stmt 1 view -0
 536              		.cfi_startproc
 537              		@ args = 0, pretend = 0, frame = 0
 538              		@ frame_needed = 0, uses_anonymous_args = 0
 359:Drivers/STM32F3xx_HAL_Driver/Src/stm32f3xx_hal_exti.c ****   __IO uint32_t *regaddr;
 539              		.loc 1 359 3 view .LVU195
 360:Drivers/STM32F3xx_HAL_Driver/Src/stm32f3xx_hal_exti.c ****   uint32_t regval;
 540              		.loc 1 360 3 view .LVU196
 361:Drivers/STM32F3xx_HAL_Driver/Src/stm32f3xx_hal_exti.c ****   uint32_t linepos;
 541              		.loc 1 361 3 view .LVU197
 362:Drivers/STM32F3xx_HAL_Driver/Src/stm32f3xx_hal_exti.c ****   uint32_t maskline;
 542              		.loc 1 362 3 view .LVU198
 363:Drivers/STM32F3xx_HAL_Driver/Src/stm32f3xx_hal_exti.c ****   uint32_t offset;
 543              		.loc 1 363 3 view .LVU199
 364:Drivers/STM32F3xx_HAL_Driver/Src/stm32f3xx_hal_exti.c **** 
 365:Drivers/STM32F3xx_HAL_Driver/Src/stm32f3xx_hal_exti.c ****   /* Check null pointer */
 366:Drivers/STM32F3xx_HAL_Driver/Src/stm32f3xx_hal_exti.c ****   if (hexti == NULL)
 544              		.loc 1 366 3 view .LVU200
 545              		.loc 1 366 6 is_stmt 0 view .LVU201
 546 0000 0028     		cmp	r0, #0
 547 0002 43D0     		beq	.L41
 358:Drivers/STM32F3xx_HAL_Driver/Src/stm32f3xx_hal_exti.c ****   __IO uint32_t *regaddr;
 548              		.loc 1 358 1 view .LVU202
 549 0004 30B5     		push	{r4, r5, lr}
 550              	.LCFI5:
 551              		.cfi_def_cfa_offset 12
 552              		.cfi_offset 4, -12
 553              		.cfi_offset 5, -8
 554              		.cfi_offset 14, -4
 555 0006 8646     		mov	lr, r0
 367:Drivers/STM32F3xx_HAL_Driver/Src/stm32f3xx_hal_exti.c ****   {
 368:Drivers/STM32F3xx_HAL_Driver/Src/stm32f3xx_hal_exti.c ****     return HAL_ERROR;
ARM GAS  C:\Temp\ccZihlc1.s 			page 18


 369:Drivers/STM32F3xx_HAL_Driver/Src/stm32f3xx_hal_exti.c ****   }
 370:Drivers/STM32F3xx_HAL_Driver/Src/stm32f3xx_hal_exti.c **** 
 371:Drivers/STM32F3xx_HAL_Driver/Src/stm32f3xx_hal_exti.c ****   /* Check the parameter */
 372:Drivers/STM32F3xx_HAL_Driver/Src/stm32f3xx_hal_exti.c ****   assert_param(IS_EXTI_LINE(hexti->Line));
 556              		.loc 1 372 3 is_stmt 1 view .LVU203
 373:Drivers/STM32F3xx_HAL_Driver/Src/stm32f3xx_hal_exti.c **** 
 374:Drivers/STM32F3xx_HAL_Driver/Src/stm32f3xx_hal_exti.c ****   /* compute line register offset and line mask */
 375:Drivers/STM32F3xx_HAL_Driver/Src/stm32f3xx_hal_exti.c ****   offset = ((hexti->Line & EXTI_REG_MASK) >> EXTI_REG_SHIFT);
 557              		.loc 1 375 3 view .LVU204
 558              		.loc 1 375 19 is_stmt 0 view .LVU205
 559 0008 D0F800C0 		ldr	ip, [r0]
 560              		.loc 1 375 10 view .LVU206
 561 000c CCF30043 		ubfx	r3, ip, #16, #1
 562              	.LVL73:
 376:Drivers/STM32F3xx_HAL_Driver/Src/stm32f3xx_hal_exti.c ****   linepos = (hexti->Line & EXTI_PIN_MASK);
 563              		.loc 1 376 3 is_stmt 1 view .LVU207
 564              		.loc 1 376 11 is_stmt 0 view .LVU208
 565 0010 0CF01F02 		and	r2, ip, #31
 566 0014 1146     		mov	r1, r2
 567 0016 1546     		mov	r5, r2
 568              	.LVL74:
 377:Drivers/STM32F3xx_HAL_Driver/Src/stm32f3xx_hal_exti.c ****   maskline = (1uL << linepos);
 569              		.loc 1 377 3 is_stmt 1 view .LVU209
 570              		.loc 1 377 12 is_stmt 0 view .LVU210
 571 0018 0122     		movs	r2, #1
 572 001a 8A40     		lsls	r2, r2, r1
 573              	.LVL75:
 378:Drivers/STM32F3xx_HAL_Driver/Src/stm32f3xx_hal_exti.c **** 
 379:Drivers/STM32F3xx_HAL_Driver/Src/stm32f3xx_hal_exti.c ****   /* 1] Clear interrupt mode */
 380:Drivers/STM32F3xx_HAL_Driver/Src/stm32f3xx_hal_exti.c ****   regaddr = (&EXTI->IMR + (EXTI_MODE_OFFSET * offset));
 574              		.loc 1 380 3 is_stmt 1 view .LVU211
 575              		.loc 1 380 25 is_stmt 0 view .LVU212
 576 001c 5B01     		lsls	r3, r3, #5
 577              	.LVL76:
 578              		.loc 1 380 11 view .LVU213
 579 001e 03F18041 		add	r1, r3, #1073741824
 580              	.LVL77:
 581              		.loc 1 380 11 view .LVU214
 582 0022 01F58231 		add	r1, r1, #66560
 583              	.LVL78:
 381:Drivers/STM32F3xx_HAL_Driver/Src/stm32f3xx_hal_exti.c ****   regval = (*regaddr & ~maskline);
 584              		.loc 1 381 3 is_stmt 1 view .LVU215
 585              		.loc 1 381 13 is_stmt 0 view .LVU216
 586 0026 0868     		ldr	r0, [r1]
 587              	.LVL79:
 588              		.loc 1 381 24 view .LVU217
 589 0028 D443     		mvns	r4, r2
 590              		.loc 1 381 10 view .LVU218
 591 002a 20EA0200 		bic	r0, r0, r2
 592              	.LVL80:
 382:Drivers/STM32F3xx_HAL_Driver/Src/stm32f3xx_hal_exti.c ****   *regaddr = regval;
 593              		.loc 1 382 3 is_stmt 1 view .LVU219
 594              		.loc 1 382 12 is_stmt 0 view .LVU220
 595 002e 0860     		str	r0, [r1]
 383:Drivers/STM32F3xx_HAL_Driver/Src/stm32f3xx_hal_exti.c **** 
 384:Drivers/STM32F3xx_HAL_Driver/Src/stm32f3xx_hal_exti.c ****   /* 2] Clear event mode */
 385:Drivers/STM32F3xx_HAL_Driver/Src/stm32f3xx_hal_exti.c ****   regaddr = (&EXTI->EMR + (EXTI_MODE_OFFSET * offset));
ARM GAS  C:\Temp\ccZihlc1.s 			page 19


 596              		.loc 1 385 3 is_stmt 1 view .LVU221
 597              		.loc 1 385 11 is_stmt 0 view .LVU222
 598 0030 1848     		ldr	r0, .L49
 599              	.LVL81:
 386:Drivers/STM32F3xx_HAL_Driver/Src/stm32f3xx_hal_exti.c ****   regval = (*regaddr & ~maskline);
 600              		.loc 1 386 3 is_stmt 1 view .LVU223
 601              		.loc 1 386 13 is_stmt 0 view .LVU224
 602 0032 1958     		ldr	r1, [r3, r0]
 603              	.LVL82:
 604              		.loc 1 386 10 view .LVU225
 605 0034 21EA0202 		bic	r2, r1, r2
 606              	.LVL83:
 387:Drivers/STM32F3xx_HAL_Driver/Src/stm32f3xx_hal_exti.c ****   *regaddr = regval;
 607              		.loc 1 387 3 is_stmt 1 view .LVU226
 608              		.loc 1 387 12 is_stmt 0 view .LVU227
 609 0038 1A50     		str	r2, [r3, r0]
 388:Drivers/STM32F3xx_HAL_Driver/Src/stm32f3xx_hal_exti.c **** 
 389:Drivers/STM32F3xx_HAL_Driver/Src/stm32f3xx_hal_exti.c ****   /* 3] Clear triggers in case of configurable lines */
 390:Drivers/STM32F3xx_HAL_Driver/Src/stm32f3xx_hal_exti.c ****   if ((hexti->Line & EXTI_CONFIG) != 0x00u)
 610              		.loc 1 390 3 is_stmt 1 view .LVU228
 611              		.loc 1 390 13 is_stmt 0 view .LVU229
 612 003a DEF80020 		ldr	r2, [lr]
 613              	.LVL84:
 614              		.loc 1 390 6 view .LVU230
 615 003e 12F0007F 		tst	r2, #33554432
 616 0042 25D0     		beq	.L42
 391:Drivers/STM32F3xx_HAL_Driver/Src/stm32f3xx_hal_exti.c ****   {
 392:Drivers/STM32F3xx_HAL_Driver/Src/stm32f3xx_hal_exti.c ****     regaddr = (&EXTI->RTSR + (EXTI_CONFIG_OFFSET * offset));
 617              		.loc 1 392 5 is_stmt 1 view .LVU231
 618              		.loc 1 392 13 is_stmt 0 view .LVU232
 619 0044 1449     		ldr	r1, .L49+4
 620              	.LVL85:
 393:Drivers/STM32F3xx_HAL_Driver/Src/stm32f3xx_hal_exti.c ****     regval = (*regaddr & ~maskline);
 621              		.loc 1 393 5 is_stmt 1 view .LVU233
 622              		.loc 1 393 15 is_stmt 0 view .LVU234
 623 0046 5A58     		ldr	r2, [r3, r1]
 624              		.loc 1 393 12 view .LVU235
 625 0048 2240     		ands	r2, r2, r4
 626              	.LVL86:
 394:Drivers/STM32F3xx_HAL_Driver/Src/stm32f3xx_hal_exti.c ****     *regaddr = regval;
 627              		.loc 1 394 5 is_stmt 1 view .LVU236
 628              		.loc 1 394 14 is_stmt 0 view .LVU237
 629 004a 5A50     		str	r2, [r3, r1]
 395:Drivers/STM32F3xx_HAL_Driver/Src/stm32f3xx_hal_exti.c **** 
 396:Drivers/STM32F3xx_HAL_Driver/Src/stm32f3xx_hal_exti.c ****     regaddr = (&EXTI->FTSR + (EXTI_CONFIG_OFFSET * offset));
 630              		.loc 1 396 5 is_stmt 1 view .LVU238
 631              		.loc 1 396 13 is_stmt 0 view .LVU239
 632 004c 0431     		adds	r1, r1, #4
 633              	.LVL87:
 397:Drivers/STM32F3xx_HAL_Driver/Src/stm32f3xx_hal_exti.c ****     regval = (*regaddr & ~maskline);
 634              		.loc 1 397 5 is_stmt 1 view .LVU240
 635              		.loc 1 397 15 is_stmt 0 view .LVU241
 636 004e 5A58     		ldr	r2, [r3, r1]
 637              	.LVL88:
 638              		.loc 1 397 12 view .LVU242
 639 0050 2240     		ands	r2, r2, r4
 640              	.LVL89:
ARM GAS  C:\Temp\ccZihlc1.s 			page 20


 398:Drivers/STM32F3xx_HAL_Driver/Src/stm32f3xx_hal_exti.c ****     *regaddr = regval;
 641              		.loc 1 398 5 is_stmt 1 view .LVU243
 642              		.loc 1 398 14 is_stmt 0 view .LVU244
 643 0052 5A50     		str	r2, [r3, r1]
 399:Drivers/STM32F3xx_HAL_Driver/Src/stm32f3xx_hal_exti.c **** 
 400:Drivers/STM32F3xx_HAL_Driver/Src/stm32f3xx_hal_exti.c ****     /* Get Gpio port selection for gpio lines */
 401:Drivers/STM32F3xx_HAL_Driver/Src/stm32f3xx_hal_exti.c ****     if ((hexti->Line & EXTI_GPIO) == EXTI_GPIO)
 644              		.loc 1 401 5 is_stmt 1 view .LVU245
 645              		.loc 1 401 15 is_stmt 0 view .LVU246
 646 0054 DEF80030 		ldr	r3, [lr]
 647              	.LVL90:
 648              		.loc 1 401 22 view .LVU247
 649 0058 03F0C063 		and	r3, r3, #100663296
 650              		.loc 1 401 8 view .LVU248
 651 005c B3F1C06F 		cmp	r3, #100663296
 652 0060 01D0     		beq	.L48
 402:Drivers/STM32F3xx_HAL_Driver/Src/stm32f3xx_hal_exti.c ****     {
 403:Drivers/STM32F3xx_HAL_Driver/Src/stm32f3xx_hal_exti.c ****       assert_param(IS_EXTI_GPIO_PIN(linepos));
 404:Drivers/STM32F3xx_HAL_Driver/Src/stm32f3xx_hal_exti.c **** 
 405:Drivers/STM32F3xx_HAL_Driver/Src/stm32f3xx_hal_exti.c ****       regval = SYSCFG->EXTICR[linepos >> 2u];
 406:Drivers/STM32F3xx_HAL_Driver/Src/stm32f3xx_hal_exti.c ****       regval &= ~(SYSCFG_EXTICR1_EXTI0 << (SYSCFG_EXTICR1_EXTI1_Pos * (linepos & 0x03u)));
 407:Drivers/STM32F3xx_HAL_Driver/Src/stm32f3xx_hal_exti.c ****       SYSCFG->EXTICR[linepos >> 2u] = regval;
 408:Drivers/STM32F3xx_HAL_Driver/Src/stm32f3xx_hal_exti.c ****     }
 409:Drivers/STM32F3xx_HAL_Driver/Src/stm32f3xx_hal_exti.c ****   }
 410:Drivers/STM32F3xx_HAL_Driver/Src/stm32f3xx_hal_exti.c **** 
 411:Drivers/STM32F3xx_HAL_Driver/Src/stm32f3xx_hal_exti.c ****   return HAL_OK;
 653              		.loc 1 411 10 view .LVU249
 654 0062 0020     		movs	r0, #0
 655 0064 15E0     		b	.L40
 656              	.L48:
 403:Drivers/STM32F3xx_HAL_Driver/Src/stm32f3xx_hal_exti.c **** 
 657              		.loc 1 403 7 is_stmt 1 view .LVU250
 405:Drivers/STM32F3xx_HAL_Driver/Src/stm32f3xx_hal_exti.c ****       regval &= ~(SYSCFG_EXTICR1_EXTI0 << (SYSCFG_EXTICR1_EXTI1_Pos * (linepos & 0x03u)));
 658              		.loc 1 405 7 view .LVU251
 405:Drivers/STM32F3xx_HAL_Driver/Src/stm32f3xx_hal_exti.c ****       regval &= ~(SYSCFG_EXTICR1_EXTI0 << (SYSCFG_EXTICR1_EXTI1_Pos * (linepos & 0x03u)));
 659              		.loc 1 405 39 is_stmt 0 view .LVU252
 660 0066 AB08     		lsrs	r3, r5, #2
 405:Drivers/STM32F3xx_HAL_Driver/Src/stm32f3xx_hal_exti.c ****       regval &= ~(SYSCFG_EXTICR1_EXTI0 << (SYSCFG_EXTICR1_EXTI1_Pos * (linepos & 0x03u)));
 661              		.loc 1 405 14 view .LVU253
 662 0068 A0F20440 		subw	r0, r0, #1028
 663 006c 0233     		adds	r3, r3, #2
 664 006e 50F82320 		ldr	r2, [r0, r3, lsl #2]
 665              	.LVL91:
 406:Drivers/STM32F3xx_HAL_Driver/Src/stm32f3xx_hal_exti.c ****       SYSCFG->EXTICR[linepos >> 2u] = regval;
 666              		.loc 1 406 7 is_stmt 1 view .LVU254
 406:Drivers/STM32F3xx_HAL_Driver/Src/stm32f3xx_hal_exti.c ****       SYSCFG->EXTICR[linepos >> 2u] = regval;
 667              		.loc 1 406 80 is_stmt 0 view .LVU255
 668 0072 0CF0030C 		and	ip, ip, #3
 669              	.LVL92:
 406:Drivers/STM32F3xx_HAL_Driver/Src/stm32f3xx_hal_exti.c ****       SYSCFG->EXTICR[linepos >> 2u] = regval;
 670              		.loc 1 406 69 view .LVU256
 671 0076 4FEA8C0C 		lsl	ip, ip, #2
 406:Drivers/STM32F3xx_HAL_Driver/Src/stm32f3xx_hal_exti.c ****       SYSCFG->EXTICR[linepos >> 2u] = regval;
 672              		.loc 1 406 40 view .LVU257
 673 007a 0F21     		movs	r1, #15
 674 007c 01FA0CF1 		lsl	r1, r1, ip
 406:Drivers/STM32F3xx_HAL_Driver/Src/stm32f3xx_hal_exti.c ****       SYSCFG->EXTICR[linepos >> 2u] = regval;
ARM GAS  C:\Temp\ccZihlc1.s 			page 21


 675              		.loc 1 406 14 view .LVU258
 676 0080 22EA0102 		bic	r2, r2, r1
 677              	.LVL93:
 407:Drivers/STM32F3xx_HAL_Driver/Src/stm32f3xx_hal_exti.c ****     }
 678              		.loc 1 407 7 is_stmt 1 view .LVU259
 407:Drivers/STM32F3xx_HAL_Driver/Src/stm32f3xx_hal_exti.c ****     }
 679              		.loc 1 407 37 is_stmt 0 view .LVU260
 680 0084 40F82320 		str	r2, [r0, r3, lsl #2]
 681              		.loc 1 411 10 view .LVU261
 682 0088 0020     		movs	r0, #0
 683 008a 02E0     		b	.L40
 684              	.LVL94:
 685              	.L41:
 686              	.LCFI6:
 687              		.cfi_def_cfa_offset 0
 688              		.cfi_restore 4
 689              		.cfi_restore 5
 690              		.cfi_restore 14
 368:Drivers/STM32F3xx_HAL_Driver/Src/stm32f3xx_hal_exti.c ****   }
 691              		.loc 1 368 12 view .LVU262
 692 008c 0120     		movs	r0, #1
 693              	.LVL95:
 412:Drivers/STM32F3xx_HAL_Driver/Src/stm32f3xx_hal_exti.c **** }
 694              		.loc 1 412 1 view .LVU263
 695 008e 7047     		bx	lr
 696              	.LVL96:
 697              	.L42:
 698              	.LCFI7:
 699              		.cfi_def_cfa_offset 12
 700              		.cfi_offset 4, -12
 701              		.cfi_offset 5, -8
 702              		.cfi_offset 14, -4
 411:Drivers/STM32F3xx_HAL_Driver/Src/stm32f3xx_hal_exti.c **** }
 703              		.loc 1 411 10 view .LVU264
 704 0090 0020     		movs	r0, #0
 705              	.LVL97:
 706              	.L40:
 707              		.loc 1 412 1 view .LVU265
 708 0092 30BD     		pop	{r4, r5, pc}
 709              	.LVL98:
 710              	.L50:
 711              		.loc 1 412 1 view .LVU266
 712              		.align	2
 713              	.L49:
 714 0094 04040140 		.word	1073808388
 715 0098 08040140 		.word	1073808392
 716              		.cfi_endproc
 717              	.LFE132:
 719              		.section	.text.HAL_EXTI_RegisterCallback,"ax",%progbits
 720              		.align	1
 721              		.global	HAL_EXTI_RegisterCallback
 722              		.syntax unified
 723              		.thumb
 724              		.thumb_func
 726              	HAL_EXTI_RegisterCallback:
 727              	.LVL99:
 728              	.LFB133:
ARM GAS  C:\Temp\ccZihlc1.s 			page 22


 413:Drivers/STM32F3xx_HAL_Driver/Src/stm32f3xx_hal_exti.c **** 
 414:Drivers/STM32F3xx_HAL_Driver/Src/stm32f3xx_hal_exti.c **** /**
 415:Drivers/STM32F3xx_HAL_Driver/Src/stm32f3xx_hal_exti.c ****   * @brief  Register callback for a dedicated Exti line.
 416:Drivers/STM32F3xx_HAL_Driver/Src/stm32f3xx_hal_exti.c ****   * @param  hexti Exti handle.
 417:Drivers/STM32F3xx_HAL_Driver/Src/stm32f3xx_hal_exti.c ****   * @param  CallbackID User callback identifier.
 418:Drivers/STM32F3xx_HAL_Driver/Src/stm32f3xx_hal_exti.c ****   *         This parameter can be one of @arg @ref EXTI_CallbackIDTypeDef values.
 419:Drivers/STM32F3xx_HAL_Driver/Src/stm32f3xx_hal_exti.c ****   * @param  pPendingCbfn function pointer to be stored as callback.
 420:Drivers/STM32F3xx_HAL_Driver/Src/stm32f3xx_hal_exti.c ****   * @retval HAL Status.
 421:Drivers/STM32F3xx_HAL_Driver/Src/stm32f3xx_hal_exti.c ****   */
 422:Drivers/STM32F3xx_HAL_Driver/Src/stm32f3xx_hal_exti.c **** HAL_StatusTypeDef HAL_EXTI_RegisterCallback(EXTI_HandleTypeDef *hexti, EXTI_CallbackIDTypeDef Callb
 423:Drivers/STM32F3xx_HAL_Driver/Src/stm32f3xx_hal_exti.c **** {
 729              		.loc 1 423 1 is_stmt 1 view -0
 730              		.cfi_startproc
 731              		@ args = 0, pretend = 0, frame = 0
 732              		@ frame_needed = 0, uses_anonymous_args = 0
 733              		@ link register save eliminated.
 734              		.loc 1 423 1 is_stmt 0 view .LVU268
 735 0000 0346     		mov	r3, r0
 424:Drivers/STM32F3xx_HAL_Driver/Src/stm32f3xx_hal_exti.c ****   HAL_StatusTypeDef status = HAL_OK;
 736              		.loc 1 424 3 is_stmt 1 view .LVU269
 737              	.LVL100:
 425:Drivers/STM32F3xx_HAL_Driver/Src/stm32f3xx_hal_exti.c **** 
 426:Drivers/STM32F3xx_HAL_Driver/Src/stm32f3xx_hal_exti.c ****   switch (CallbackID)
 738              		.loc 1 426 3 view .LVU270
 739 0002 0846     		mov	r0, r1
 740              	.LVL101:
 741              		.loc 1 426 3 is_stmt 0 view .LVU271
 742 0004 09B9     		cbnz	r1, .L53
 427:Drivers/STM32F3xx_HAL_Driver/Src/stm32f3xx_hal_exti.c ****   {
 428:Drivers/STM32F3xx_HAL_Driver/Src/stm32f3xx_hal_exti.c ****     case  HAL_EXTI_COMMON_CB_ID:
 429:Drivers/STM32F3xx_HAL_Driver/Src/stm32f3xx_hal_exti.c ****       hexti->PendingCallback = pPendingCbfn;
 743              		.loc 1 429 7 is_stmt 1 view .LVU272
 744              		.loc 1 429 30 is_stmt 0 view .LVU273
 745 0006 5A60     		str	r2, [r3, #4]
 430:Drivers/STM32F3xx_HAL_Driver/Src/stm32f3xx_hal_exti.c ****       break;
 746              		.loc 1 430 7 is_stmt 1 view .LVU274
 747 0008 7047     		bx	lr
 748              	.L53:
 431:Drivers/STM32F3xx_HAL_Driver/Src/stm32f3xx_hal_exti.c **** 
 432:Drivers/STM32F3xx_HAL_Driver/Src/stm32f3xx_hal_exti.c ****     default:
 433:Drivers/STM32F3xx_HAL_Driver/Src/stm32f3xx_hal_exti.c ****       status = HAL_ERROR;
 749              		.loc 1 433 14 is_stmt 0 view .LVU275
 750 000a 0120     		movs	r0, #1
 751              	.LVL102:
 434:Drivers/STM32F3xx_HAL_Driver/Src/stm32f3xx_hal_exti.c ****       break;
 435:Drivers/STM32F3xx_HAL_Driver/Src/stm32f3xx_hal_exti.c ****   }
 436:Drivers/STM32F3xx_HAL_Driver/Src/stm32f3xx_hal_exti.c **** 
 437:Drivers/STM32F3xx_HAL_Driver/Src/stm32f3xx_hal_exti.c ****   return status;
 752              		.loc 1 437 3 is_stmt 1 view .LVU276
 438:Drivers/STM32F3xx_HAL_Driver/Src/stm32f3xx_hal_exti.c **** }
 753              		.loc 1 438 1 is_stmt 0 view .LVU277
 754 000c 7047     		bx	lr
 755              		.cfi_endproc
 756              	.LFE133:
 758              		.section	.text.HAL_EXTI_GetHandle,"ax",%progbits
 759              		.align	1
 760              		.global	HAL_EXTI_GetHandle
ARM GAS  C:\Temp\ccZihlc1.s 			page 23


 761              		.syntax unified
 762              		.thumb
 763              		.thumb_func
 765              	HAL_EXTI_GetHandle:
 766              	.LVL103:
 767              	.LFB134:
 439:Drivers/STM32F3xx_HAL_Driver/Src/stm32f3xx_hal_exti.c **** 
 440:Drivers/STM32F3xx_HAL_Driver/Src/stm32f3xx_hal_exti.c **** /**
 441:Drivers/STM32F3xx_HAL_Driver/Src/stm32f3xx_hal_exti.c ****   * @brief  Store line number as handle private field.
 442:Drivers/STM32F3xx_HAL_Driver/Src/stm32f3xx_hal_exti.c ****   * @param  hexti Exti handle.
 443:Drivers/STM32F3xx_HAL_Driver/Src/stm32f3xx_hal_exti.c ****   * @param  ExtiLine Exti line number.
 444:Drivers/STM32F3xx_HAL_Driver/Src/stm32f3xx_hal_exti.c ****   *         This parameter can be from 0 to @ref EXTI_LINE_NB.
 445:Drivers/STM32F3xx_HAL_Driver/Src/stm32f3xx_hal_exti.c ****   * @retval HAL Status.
 446:Drivers/STM32F3xx_HAL_Driver/Src/stm32f3xx_hal_exti.c ****   */
 447:Drivers/STM32F3xx_HAL_Driver/Src/stm32f3xx_hal_exti.c **** HAL_StatusTypeDef HAL_EXTI_GetHandle(EXTI_HandleTypeDef *hexti, uint32_t ExtiLine)
 448:Drivers/STM32F3xx_HAL_Driver/Src/stm32f3xx_hal_exti.c **** {
 768              		.loc 1 448 1 is_stmt 1 view -0
 769              		.cfi_startproc
 770              		@ args = 0, pretend = 0, frame = 0
 771              		@ frame_needed = 0, uses_anonymous_args = 0
 772              		@ link register save eliminated.
 449:Drivers/STM32F3xx_HAL_Driver/Src/stm32f3xx_hal_exti.c ****   /* Check the parameters */
 450:Drivers/STM32F3xx_HAL_Driver/Src/stm32f3xx_hal_exti.c ****   assert_param(IS_EXTI_LINE(ExtiLine));
 773              		.loc 1 450 3 view .LVU279
 451:Drivers/STM32F3xx_HAL_Driver/Src/stm32f3xx_hal_exti.c **** 
 452:Drivers/STM32F3xx_HAL_Driver/Src/stm32f3xx_hal_exti.c ****   /* Check null pointer */
 453:Drivers/STM32F3xx_HAL_Driver/Src/stm32f3xx_hal_exti.c ****   if (hexti == NULL)
 774              		.loc 1 453 3 view .LVU280
 775              		.loc 1 453 6 is_stmt 0 view .LVU281
 776 0000 10B1     		cbz	r0, .L56
 454:Drivers/STM32F3xx_HAL_Driver/Src/stm32f3xx_hal_exti.c ****   {
 455:Drivers/STM32F3xx_HAL_Driver/Src/stm32f3xx_hal_exti.c ****     return HAL_ERROR;
 456:Drivers/STM32F3xx_HAL_Driver/Src/stm32f3xx_hal_exti.c ****   }
 457:Drivers/STM32F3xx_HAL_Driver/Src/stm32f3xx_hal_exti.c ****   else
 458:Drivers/STM32F3xx_HAL_Driver/Src/stm32f3xx_hal_exti.c ****   {
 459:Drivers/STM32F3xx_HAL_Driver/Src/stm32f3xx_hal_exti.c ****     /* Store line number as handle private field */
 460:Drivers/STM32F3xx_HAL_Driver/Src/stm32f3xx_hal_exti.c ****     hexti->Line = ExtiLine;
 777              		.loc 1 460 5 is_stmt 1 view .LVU282
 778              		.loc 1 460 17 is_stmt 0 view .LVU283
 779 0002 0160     		str	r1, [r0]
 461:Drivers/STM32F3xx_HAL_Driver/Src/stm32f3xx_hal_exti.c **** 
 462:Drivers/STM32F3xx_HAL_Driver/Src/stm32f3xx_hal_exti.c ****     return HAL_OK;
 780              		.loc 1 462 5 is_stmt 1 view .LVU284
 781              		.loc 1 462 12 is_stmt 0 view .LVU285
 782 0004 0020     		movs	r0, #0
 783              	.LVL104:
 784              		.loc 1 462 12 view .LVU286
 785 0006 7047     		bx	lr
 786              	.LVL105:
 787              	.L56:
 455:Drivers/STM32F3xx_HAL_Driver/Src/stm32f3xx_hal_exti.c ****   }
 788              		.loc 1 455 12 view .LVU287
 789 0008 0120     		movs	r0, #1
 790              	.LVL106:
 463:Drivers/STM32F3xx_HAL_Driver/Src/stm32f3xx_hal_exti.c ****   }
 464:Drivers/STM32F3xx_HAL_Driver/Src/stm32f3xx_hal_exti.c **** }
 791              		.loc 1 464 1 view .LVU288
ARM GAS  C:\Temp\ccZihlc1.s 			page 24


 792 000a 7047     		bx	lr
 793              		.cfi_endproc
 794              	.LFE134:
 796              		.section	.text.HAL_EXTI_IRQHandler,"ax",%progbits
 797              		.align	1
 798              		.global	HAL_EXTI_IRQHandler
 799              		.syntax unified
 800              		.thumb
 801              		.thumb_func
 803              	HAL_EXTI_IRQHandler:
 804              	.LVL107:
 805              	.LFB135:
 465:Drivers/STM32F3xx_HAL_Driver/Src/stm32f3xx_hal_exti.c **** 
 466:Drivers/STM32F3xx_HAL_Driver/Src/stm32f3xx_hal_exti.c **** /**
 467:Drivers/STM32F3xx_HAL_Driver/Src/stm32f3xx_hal_exti.c ****   * @}
 468:Drivers/STM32F3xx_HAL_Driver/Src/stm32f3xx_hal_exti.c ****   */
 469:Drivers/STM32F3xx_HAL_Driver/Src/stm32f3xx_hal_exti.c **** 
 470:Drivers/STM32F3xx_HAL_Driver/Src/stm32f3xx_hal_exti.c **** /** @addtogroup EXTI_Exported_Functions_Group2
 471:Drivers/STM32F3xx_HAL_Driver/Src/stm32f3xx_hal_exti.c ****   *  @brief EXTI IO functions.
 472:Drivers/STM32F3xx_HAL_Driver/Src/stm32f3xx_hal_exti.c ****   *
 473:Drivers/STM32F3xx_HAL_Driver/Src/stm32f3xx_hal_exti.c **** @verbatim
 474:Drivers/STM32F3xx_HAL_Driver/Src/stm32f3xx_hal_exti.c ****  ===============================================================================
 475:Drivers/STM32F3xx_HAL_Driver/Src/stm32f3xx_hal_exti.c ****                        ##### IO operation functions #####
 476:Drivers/STM32F3xx_HAL_Driver/Src/stm32f3xx_hal_exti.c ****  ===============================================================================
 477:Drivers/STM32F3xx_HAL_Driver/Src/stm32f3xx_hal_exti.c **** 
 478:Drivers/STM32F3xx_HAL_Driver/Src/stm32f3xx_hal_exti.c **** @endverbatim
 479:Drivers/STM32F3xx_HAL_Driver/Src/stm32f3xx_hal_exti.c ****   * @{
 480:Drivers/STM32F3xx_HAL_Driver/Src/stm32f3xx_hal_exti.c ****   */
 481:Drivers/STM32F3xx_HAL_Driver/Src/stm32f3xx_hal_exti.c **** 
 482:Drivers/STM32F3xx_HAL_Driver/Src/stm32f3xx_hal_exti.c **** /**
 483:Drivers/STM32F3xx_HAL_Driver/Src/stm32f3xx_hal_exti.c ****   * @brief  Handle EXTI interrupt request.
 484:Drivers/STM32F3xx_HAL_Driver/Src/stm32f3xx_hal_exti.c ****   * @param  hexti Exti handle.
 485:Drivers/STM32F3xx_HAL_Driver/Src/stm32f3xx_hal_exti.c ****   * @retval none.
 486:Drivers/STM32F3xx_HAL_Driver/Src/stm32f3xx_hal_exti.c ****   */
 487:Drivers/STM32F3xx_HAL_Driver/Src/stm32f3xx_hal_exti.c **** void HAL_EXTI_IRQHandler(EXTI_HandleTypeDef *hexti)
 488:Drivers/STM32F3xx_HAL_Driver/Src/stm32f3xx_hal_exti.c **** {
 806              		.loc 1 488 1 is_stmt 1 view -0
 807              		.cfi_startproc
 808              		@ args = 0, pretend = 0, frame = 0
 809              		@ frame_needed = 0, uses_anonymous_args = 0
 810              		.loc 1 488 1 is_stmt 0 view .LVU290
 811 0000 08B5     		push	{r3, lr}
 812              	.LCFI8:
 813              		.cfi_def_cfa_offset 8
 814              		.cfi_offset 3, -8
 815              		.cfi_offset 14, -4
 489:Drivers/STM32F3xx_HAL_Driver/Src/stm32f3xx_hal_exti.c ****   __IO uint32_t *regaddr;
 816              		.loc 1 489 3 is_stmt 1 view .LVU291
 490:Drivers/STM32F3xx_HAL_Driver/Src/stm32f3xx_hal_exti.c ****   uint32_t regval;
 817              		.loc 1 490 3 view .LVU292
 491:Drivers/STM32F3xx_HAL_Driver/Src/stm32f3xx_hal_exti.c ****   uint32_t maskline;
 818              		.loc 1 491 3 view .LVU293
 492:Drivers/STM32F3xx_HAL_Driver/Src/stm32f3xx_hal_exti.c ****   uint32_t offset;
 819              		.loc 1 492 3 view .LVU294
 493:Drivers/STM32F3xx_HAL_Driver/Src/stm32f3xx_hal_exti.c **** 
 494:Drivers/STM32F3xx_HAL_Driver/Src/stm32f3xx_hal_exti.c ****   /* Compute line register offset and line mask */
 495:Drivers/STM32F3xx_HAL_Driver/Src/stm32f3xx_hal_exti.c ****   offset = ((hexti->Line & EXTI_REG_MASK) >> EXTI_REG_SHIFT);
ARM GAS  C:\Temp\ccZihlc1.s 			page 25


 820              		.loc 1 495 3 view .LVU295
 821              		.loc 1 495 19 is_stmt 0 view .LVU296
 822 0002 0368     		ldr	r3, [r0]
 823              		.loc 1 495 10 view .LVU297
 824 0004 C3F30041 		ubfx	r1, r3, #16, #1
 825              	.LVL108:
 496:Drivers/STM32F3xx_HAL_Driver/Src/stm32f3xx_hal_exti.c ****   maskline = (1uL << (hexti->Line & EXTI_PIN_MASK));
 826              		.loc 1 496 3 is_stmt 1 view .LVU298
 827              		.loc 1 496 35 is_stmt 0 view .LVU299
 828 0008 03F01F03 		and	r3, r3, #31
 829              		.loc 1 496 12 view .LVU300
 830 000c 0122     		movs	r2, #1
 831 000e 02FA03F3 		lsl	r3, r2, r3
 832              	.LVL109:
 497:Drivers/STM32F3xx_HAL_Driver/Src/stm32f3xx_hal_exti.c **** 
 498:Drivers/STM32F3xx_HAL_Driver/Src/stm32f3xx_hal_exti.c ****   /* Get pending bit  */
 499:Drivers/STM32F3xx_HAL_Driver/Src/stm32f3xx_hal_exti.c ****   regaddr = (&EXTI->PR + (EXTI_CONFIG_OFFSET * offset));
 833              		.loc 1 499 3 is_stmt 1 view .LVU301
 834              		.loc 1 499 24 is_stmt 0 view .LVU302
 835 0012 4A01     		lsls	r2, r1, #5
 836              		.loc 1 499 11 view .LVU303
 837 0014 0449     		ldr	r1, .L60
 838              	.LVL110:
 500:Drivers/STM32F3xx_HAL_Driver/Src/stm32f3xx_hal_exti.c ****   regval = (*regaddr & maskline);
 839              		.loc 1 500 3 is_stmt 1 view .LVU304
 840              		.loc 1 500 13 is_stmt 0 view .LVU305
 841 0016 5258     		ldr	r2, [r2, r1]
 842              	.LVL111:
 501:Drivers/STM32F3xx_HAL_Driver/Src/stm32f3xx_hal_exti.c **** 
 502:Drivers/STM32F3xx_HAL_Driver/Src/stm32f3xx_hal_exti.c ****   if (regval != 0x00u)
 843              		.loc 1 502 3 is_stmt 1 view .LVU306
 844              		.loc 1 502 6 is_stmt 0 view .LVU307
 845 0018 1A42     		tst	r2, r3
 846 001a 04D0     		beq	.L57
 503:Drivers/STM32F3xx_HAL_Driver/Src/stm32f3xx_hal_exti.c ****   {
 504:Drivers/STM32F3xx_HAL_Driver/Src/stm32f3xx_hal_exti.c ****     /* Clear pending bit */
 505:Drivers/STM32F3xx_HAL_Driver/Src/stm32f3xx_hal_exti.c ****     EXTI->PR = maskline;
 847              		.loc 1 505 5 is_stmt 1 view .LVU308
 848              		.loc 1 505 14 is_stmt 0 view .LVU309
 849 001c 034A     		ldr	r2, .L60+4
 850              	.LVL112:
 851              		.loc 1 505 14 view .LVU310
 852 001e 5361     		str	r3, [r2, #20]
 853              	.LVL113:
 506:Drivers/STM32F3xx_HAL_Driver/Src/stm32f3xx_hal_exti.c **** 
 507:Drivers/STM32F3xx_HAL_Driver/Src/stm32f3xx_hal_exti.c ****     /* Call callback */
 508:Drivers/STM32F3xx_HAL_Driver/Src/stm32f3xx_hal_exti.c ****     if (hexti->PendingCallback != NULL)
 854              		.loc 1 508 5 is_stmt 1 view .LVU311
 855              		.loc 1 508 14 is_stmt 0 view .LVU312
 856 0020 4368     		ldr	r3, [r0, #4]
 857              	.LVL114:
 858              		.loc 1 508 8 view .LVU313
 859 0022 03B1     		cbz	r3, .L57
 509:Drivers/STM32F3xx_HAL_Driver/Src/stm32f3xx_hal_exti.c ****     {
 510:Drivers/STM32F3xx_HAL_Driver/Src/stm32f3xx_hal_exti.c ****       hexti->PendingCallback();
 860              		.loc 1 510 7 is_stmt 1 view .LVU314
 861 0024 9847     		blx	r3
ARM GAS  C:\Temp\ccZihlc1.s 			page 26


 862              	.LVL115:
 863              	.L57:
 511:Drivers/STM32F3xx_HAL_Driver/Src/stm32f3xx_hal_exti.c ****     }
 512:Drivers/STM32F3xx_HAL_Driver/Src/stm32f3xx_hal_exti.c ****   }
 513:Drivers/STM32F3xx_HAL_Driver/Src/stm32f3xx_hal_exti.c **** }
 864              		.loc 1 513 1 is_stmt 0 view .LVU315
 865 0026 08BD     		pop	{r3, pc}
 866              	.L61:
 867              		.align	2
 868              	.L60:
 869 0028 14040140 		.word	1073808404
 870 002c 00040140 		.word	1073808384
 871              		.cfi_endproc
 872              	.LFE135:
 874              		.section	.text.HAL_EXTI_GetPending,"ax",%progbits
 875              		.align	1
 876              		.global	HAL_EXTI_GetPending
 877              		.syntax unified
 878              		.thumb
 879              		.thumb_func
 881              	HAL_EXTI_GetPending:
 882              	.LVL116:
 883              	.LFB136:
 514:Drivers/STM32F3xx_HAL_Driver/Src/stm32f3xx_hal_exti.c **** 
 515:Drivers/STM32F3xx_HAL_Driver/Src/stm32f3xx_hal_exti.c **** /**
 516:Drivers/STM32F3xx_HAL_Driver/Src/stm32f3xx_hal_exti.c ****   * @brief  Get interrupt pending bit of a dedicated line.
 517:Drivers/STM32F3xx_HAL_Driver/Src/stm32f3xx_hal_exti.c ****   * @param  hexti Exti handle.
 518:Drivers/STM32F3xx_HAL_Driver/Src/stm32f3xx_hal_exti.c ****   * @param  Edge Specify which pending edge as to be checked.
 519:Drivers/STM32F3xx_HAL_Driver/Src/stm32f3xx_hal_exti.c ****   *         This parameter can be one of the following values:
 520:Drivers/STM32F3xx_HAL_Driver/Src/stm32f3xx_hal_exti.c ****   *           @arg @ref EXTI_TRIGGER_RISING_FALLING
 521:Drivers/STM32F3xx_HAL_Driver/Src/stm32f3xx_hal_exti.c ****   *         This parameter is kept for compatibility with other series.
 522:Drivers/STM32F3xx_HAL_Driver/Src/stm32f3xx_hal_exti.c ****   * @retval 1 if interrupt is pending else 0.
 523:Drivers/STM32F3xx_HAL_Driver/Src/stm32f3xx_hal_exti.c ****   */
 524:Drivers/STM32F3xx_HAL_Driver/Src/stm32f3xx_hal_exti.c **** uint32_t HAL_EXTI_GetPending(EXTI_HandleTypeDef *hexti, uint32_t Edge)
 525:Drivers/STM32F3xx_HAL_Driver/Src/stm32f3xx_hal_exti.c **** {
 884              		.loc 1 525 1 is_stmt 1 view -0
 885              		.cfi_startproc
 886              		@ args = 0, pretend = 0, frame = 0
 887              		@ frame_needed = 0, uses_anonymous_args = 0
 888              		@ link register save eliminated.
 526:Drivers/STM32F3xx_HAL_Driver/Src/stm32f3xx_hal_exti.c ****   __IO uint32_t *regaddr;
 889              		.loc 1 526 3 view .LVU317
 527:Drivers/STM32F3xx_HAL_Driver/Src/stm32f3xx_hal_exti.c ****   uint32_t regval;
 890              		.loc 1 527 3 view .LVU318
 528:Drivers/STM32F3xx_HAL_Driver/Src/stm32f3xx_hal_exti.c ****   uint32_t linepos;
 891              		.loc 1 528 3 view .LVU319
 529:Drivers/STM32F3xx_HAL_Driver/Src/stm32f3xx_hal_exti.c ****   uint32_t maskline;
 892              		.loc 1 529 3 view .LVU320
 530:Drivers/STM32F3xx_HAL_Driver/Src/stm32f3xx_hal_exti.c ****   uint32_t offset;
 893              		.loc 1 530 3 view .LVU321
 531:Drivers/STM32F3xx_HAL_Driver/Src/stm32f3xx_hal_exti.c **** 
 532:Drivers/STM32F3xx_HAL_Driver/Src/stm32f3xx_hal_exti.c ****   /* Check parameters */
 533:Drivers/STM32F3xx_HAL_Driver/Src/stm32f3xx_hal_exti.c ****   assert_param(IS_EXTI_LINE(hexti->Line));
 894              		.loc 1 533 3 view .LVU322
 534:Drivers/STM32F3xx_HAL_Driver/Src/stm32f3xx_hal_exti.c ****   assert_param(IS_EXTI_CONFIG_LINE(hexti->Line));
 895              		.loc 1 534 3 view .LVU323
 535:Drivers/STM32F3xx_HAL_Driver/Src/stm32f3xx_hal_exti.c ****   assert_param(IS_EXTI_PENDING_EDGE(Edge));
ARM GAS  C:\Temp\ccZihlc1.s 			page 27


 896              		.loc 1 535 3 view .LVU324
 536:Drivers/STM32F3xx_HAL_Driver/Src/stm32f3xx_hal_exti.c **** 
 537:Drivers/STM32F3xx_HAL_Driver/Src/stm32f3xx_hal_exti.c ****   /* compute line register offset and line mask */
 538:Drivers/STM32F3xx_HAL_Driver/Src/stm32f3xx_hal_exti.c ****   offset = ((hexti->Line & EXTI_REG_MASK) >> EXTI_REG_SHIFT);
 897              		.loc 1 538 3 view .LVU325
 898              		.loc 1 538 19 is_stmt 0 view .LVU326
 899 0000 0368     		ldr	r3, [r0]
 900              		.loc 1 538 10 view .LVU327
 901 0002 C3F30041 		ubfx	r1, r3, #16, #1
 902              	.LVL117:
 539:Drivers/STM32F3xx_HAL_Driver/Src/stm32f3xx_hal_exti.c ****   linepos = (hexti->Line & EXTI_PIN_MASK);
 903              		.loc 1 539 3 is_stmt 1 view .LVU328
 904              		.loc 1 539 11 is_stmt 0 view .LVU329
 905 0006 03F01F03 		and	r3, r3, #31
 906              	.LVL118:
 540:Drivers/STM32F3xx_HAL_Driver/Src/stm32f3xx_hal_exti.c ****   maskline = (1uL << linepos);
 907              		.loc 1 540 3 is_stmt 1 view .LVU330
 908              		.loc 1 540 12 is_stmt 0 view .LVU331
 909 000a 0122     		movs	r2, #1
 910 000c 9A40     		lsls	r2, r2, r3
 911              	.LVL119:
 541:Drivers/STM32F3xx_HAL_Driver/Src/stm32f3xx_hal_exti.c **** 
 542:Drivers/STM32F3xx_HAL_Driver/Src/stm32f3xx_hal_exti.c ****   /* Get pending bit  */
 543:Drivers/STM32F3xx_HAL_Driver/Src/stm32f3xx_hal_exti.c ****   regaddr = (&EXTI->PR + (EXTI_CONFIG_OFFSET * offset));
 912              		.loc 1 543 3 is_stmt 1 view .LVU332
 913              		.loc 1 543 24 is_stmt 0 view .LVU333
 914 000e 4901     		lsls	r1, r1, #5
 915              	.LVL120:
 916              		.loc 1 543 11 view .LVU334
 917 0010 0248     		ldr	r0, .L63
 918              	.LVL121:
 544:Drivers/STM32F3xx_HAL_Driver/Src/stm32f3xx_hal_exti.c ****   /* return 1 if bit is set else 0 */
 545:Drivers/STM32F3xx_HAL_Driver/Src/stm32f3xx_hal_exti.c ****   regval = ((*regaddr & maskline) >> linepos);
 919              		.loc 1 545 3 is_stmt 1 view .LVU335
 920              		.loc 1 545 14 is_stmt 0 view .LVU336
 921 0012 0858     		ldr	r0, [r1, r0]
 922              	.LVL122:
 923              		.loc 1 545 23 view .LVU337
 924 0014 1040     		ands	r0, r0, r2
 925              	.LVL123:
 546:Drivers/STM32F3xx_HAL_Driver/Src/stm32f3xx_hal_exti.c ****   return regval;
 926              		.loc 1 546 3 is_stmt 1 view .LVU338
 547:Drivers/STM32F3xx_HAL_Driver/Src/stm32f3xx_hal_exti.c **** }
 927              		.loc 1 547 1 is_stmt 0 view .LVU339
 928 0016 D840     		lsrs	r0, r0, r3
 929              	.LVL124:
 930              		.loc 1 547 1 view .LVU340
 931 0018 7047     		bx	lr
 932              	.L64:
 933 001a 00BF     		.align	2
 934              	.L63:
 935 001c 14040140 		.word	1073808404
 936              		.cfi_endproc
 937              	.LFE136:
 939              		.section	.text.HAL_EXTI_ClearPending,"ax",%progbits
 940              		.align	1
 941              		.global	HAL_EXTI_ClearPending
ARM GAS  C:\Temp\ccZihlc1.s 			page 28


 942              		.syntax unified
 943              		.thumb
 944              		.thumb_func
 946              	HAL_EXTI_ClearPending:
 947              	.LVL125:
 948              	.LFB137:
 548:Drivers/STM32F3xx_HAL_Driver/Src/stm32f3xx_hal_exti.c **** 
 549:Drivers/STM32F3xx_HAL_Driver/Src/stm32f3xx_hal_exti.c **** /**
 550:Drivers/STM32F3xx_HAL_Driver/Src/stm32f3xx_hal_exti.c ****   * @brief  Clear interrupt pending bit of a dedicated line.
 551:Drivers/STM32F3xx_HAL_Driver/Src/stm32f3xx_hal_exti.c ****   * @param  hexti Exti handle.
 552:Drivers/STM32F3xx_HAL_Driver/Src/stm32f3xx_hal_exti.c ****   * @param  Edge Specify which pending edge as to be clear.
 553:Drivers/STM32F3xx_HAL_Driver/Src/stm32f3xx_hal_exti.c ****   *         This parameter can be one of the following values:
 554:Drivers/STM32F3xx_HAL_Driver/Src/stm32f3xx_hal_exti.c ****   *           @arg @ref EXTI_TRIGGER_RISING_FALLING
 555:Drivers/STM32F3xx_HAL_Driver/Src/stm32f3xx_hal_exti.c ****   *         This parameter is kept for compatibility with other series.
 556:Drivers/STM32F3xx_HAL_Driver/Src/stm32f3xx_hal_exti.c ****   * @retval None.
 557:Drivers/STM32F3xx_HAL_Driver/Src/stm32f3xx_hal_exti.c ****   */
 558:Drivers/STM32F3xx_HAL_Driver/Src/stm32f3xx_hal_exti.c **** void HAL_EXTI_ClearPending(EXTI_HandleTypeDef *hexti, uint32_t Edge)
 559:Drivers/STM32F3xx_HAL_Driver/Src/stm32f3xx_hal_exti.c **** {
 949              		.loc 1 559 1 is_stmt 1 view -0
 950              		.cfi_startproc
 951              		@ args = 0, pretend = 0, frame = 0
 952              		@ frame_needed = 0, uses_anonymous_args = 0
 953              		@ link register save eliminated.
 560:Drivers/STM32F3xx_HAL_Driver/Src/stm32f3xx_hal_exti.c ****   __IO uint32_t *regaddr;
 954              		.loc 1 560 3 view .LVU342
 561:Drivers/STM32F3xx_HAL_Driver/Src/stm32f3xx_hal_exti.c ****   uint32_t maskline;
 955              		.loc 1 561 3 view .LVU343
 562:Drivers/STM32F3xx_HAL_Driver/Src/stm32f3xx_hal_exti.c ****   uint32_t offset;
 956              		.loc 1 562 3 view .LVU344
 563:Drivers/STM32F3xx_HAL_Driver/Src/stm32f3xx_hal_exti.c **** 
 564:Drivers/STM32F3xx_HAL_Driver/Src/stm32f3xx_hal_exti.c ****   /* Check parameters */
 565:Drivers/STM32F3xx_HAL_Driver/Src/stm32f3xx_hal_exti.c ****   assert_param(IS_EXTI_LINE(hexti->Line));
 957              		.loc 1 565 3 view .LVU345
 566:Drivers/STM32F3xx_HAL_Driver/Src/stm32f3xx_hal_exti.c ****   assert_param(IS_EXTI_CONFIG_LINE(hexti->Line));
 958              		.loc 1 566 3 view .LVU346
 567:Drivers/STM32F3xx_HAL_Driver/Src/stm32f3xx_hal_exti.c ****   assert_param(IS_EXTI_PENDING_EDGE(Edge));
 959              		.loc 1 567 3 view .LVU347
 568:Drivers/STM32F3xx_HAL_Driver/Src/stm32f3xx_hal_exti.c **** 
 569:Drivers/STM32F3xx_HAL_Driver/Src/stm32f3xx_hal_exti.c ****   /* compute line register offset and line mask */
 570:Drivers/STM32F3xx_HAL_Driver/Src/stm32f3xx_hal_exti.c ****   offset = ((hexti->Line & EXTI_REG_MASK) >> EXTI_REG_SHIFT);
 960              		.loc 1 570 3 view .LVU348
 961              		.loc 1 570 19 is_stmt 0 view .LVU349
 962 0000 0368     		ldr	r3, [r0]
 963              		.loc 1 570 10 view .LVU350
 964 0002 C3F30042 		ubfx	r2, r3, #16, #1
 965              	.LVL126:
 571:Drivers/STM32F3xx_HAL_Driver/Src/stm32f3xx_hal_exti.c ****   maskline = (1uL << (hexti->Line & EXTI_PIN_MASK));
 966              		.loc 1 571 3 is_stmt 1 view .LVU351
 967              		.loc 1 571 35 is_stmt 0 view .LVU352
 968 0006 03F01F03 		and	r3, r3, #31
 969              		.loc 1 571 12 view .LVU353
 970 000a 0121     		movs	r1, #1
 971              	.LVL127:
 972              		.loc 1 571 12 view .LVU354
 973 000c 9940     		lsls	r1, r1, r3
 974              	.LVL128:
 572:Drivers/STM32F3xx_HAL_Driver/Src/stm32f3xx_hal_exti.c **** 
ARM GAS  C:\Temp\ccZihlc1.s 			page 29


 573:Drivers/STM32F3xx_HAL_Driver/Src/stm32f3xx_hal_exti.c ****   /* Get pending bit  */
 574:Drivers/STM32F3xx_HAL_Driver/Src/stm32f3xx_hal_exti.c ****   regaddr = (&EXTI->PR + (EXTI_CONFIG_OFFSET * offset));
 975              		.loc 1 574 3 is_stmt 1 view .LVU355
 976              		.loc 1 574 24 is_stmt 0 view .LVU356
 977 000e 5301     		lsls	r3, r2, #5
 978              		.loc 1 574 11 view .LVU357
 979 0010 014A     		ldr	r2, .L66
 980              	.LVL129:
 575:Drivers/STM32F3xx_HAL_Driver/Src/stm32f3xx_hal_exti.c **** 
 576:Drivers/STM32F3xx_HAL_Driver/Src/stm32f3xx_hal_exti.c ****   /* Clear Pending bit */
 577:Drivers/STM32F3xx_HAL_Driver/Src/stm32f3xx_hal_exti.c ****   *regaddr =  maskline;
 981              		.loc 1 577 3 is_stmt 1 view .LVU358
 982              		.loc 1 577 12 is_stmt 0 view .LVU359
 983 0012 9950     		str	r1, [r3, r2]
 984              	.LVL130:
 578:Drivers/STM32F3xx_HAL_Driver/Src/stm32f3xx_hal_exti.c **** }
 985              		.loc 1 578 1 view .LVU360
 986 0014 7047     		bx	lr
 987              	.L67:
 988 0016 00BF     		.align	2
 989              	.L66:
 990 0018 14040140 		.word	1073808404
 991              		.cfi_endproc
 992              	.LFE137:
 994              		.section	.text.HAL_EXTI_GenerateSWI,"ax",%progbits
 995              		.align	1
 996              		.global	HAL_EXTI_GenerateSWI
 997              		.syntax unified
 998              		.thumb
 999              		.thumb_func
 1001              	HAL_EXTI_GenerateSWI:
 1002              	.LVL131:
 1003              	.LFB138:
 579:Drivers/STM32F3xx_HAL_Driver/Src/stm32f3xx_hal_exti.c **** 
 580:Drivers/STM32F3xx_HAL_Driver/Src/stm32f3xx_hal_exti.c **** /**
 581:Drivers/STM32F3xx_HAL_Driver/Src/stm32f3xx_hal_exti.c ****   * @brief  Generate a software interrupt for a dedicated line.
 582:Drivers/STM32F3xx_HAL_Driver/Src/stm32f3xx_hal_exti.c ****   * @param  hexti Exti handle.
 583:Drivers/STM32F3xx_HAL_Driver/Src/stm32f3xx_hal_exti.c ****   * @retval None.
 584:Drivers/STM32F3xx_HAL_Driver/Src/stm32f3xx_hal_exti.c ****   */
 585:Drivers/STM32F3xx_HAL_Driver/Src/stm32f3xx_hal_exti.c **** void HAL_EXTI_GenerateSWI(EXTI_HandleTypeDef *hexti)
 586:Drivers/STM32F3xx_HAL_Driver/Src/stm32f3xx_hal_exti.c **** {
 1004              		.loc 1 586 1 is_stmt 1 view -0
 1005              		.cfi_startproc
 1006              		@ args = 0, pretend = 0, frame = 0
 1007              		@ frame_needed = 0, uses_anonymous_args = 0
 1008              		@ link register save eliminated.
 587:Drivers/STM32F3xx_HAL_Driver/Src/stm32f3xx_hal_exti.c ****   __IO uint32_t *regaddr;
 1009              		.loc 1 587 3 view .LVU362
 588:Drivers/STM32F3xx_HAL_Driver/Src/stm32f3xx_hal_exti.c ****   uint32_t maskline;
 1010              		.loc 1 588 3 view .LVU363
 589:Drivers/STM32F3xx_HAL_Driver/Src/stm32f3xx_hal_exti.c ****   uint32_t offset;
 1011              		.loc 1 589 3 view .LVU364
 590:Drivers/STM32F3xx_HAL_Driver/Src/stm32f3xx_hal_exti.c **** 
 591:Drivers/STM32F3xx_HAL_Driver/Src/stm32f3xx_hal_exti.c ****   /* Check parameters */
 592:Drivers/STM32F3xx_HAL_Driver/Src/stm32f3xx_hal_exti.c ****   assert_param(IS_EXTI_LINE(hexti->Line));
 1012              		.loc 1 592 3 view .LVU365
 593:Drivers/STM32F3xx_HAL_Driver/Src/stm32f3xx_hal_exti.c ****   assert_param(IS_EXTI_CONFIG_LINE(hexti->Line));
ARM GAS  C:\Temp\ccZihlc1.s 			page 30


 1013              		.loc 1 593 3 view .LVU366
 594:Drivers/STM32F3xx_HAL_Driver/Src/stm32f3xx_hal_exti.c **** 
 595:Drivers/STM32F3xx_HAL_Driver/Src/stm32f3xx_hal_exti.c ****   /* compute line register offset and line mask */
 596:Drivers/STM32F3xx_HAL_Driver/Src/stm32f3xx_hal_exti.c ****   offset = ((hexti->Line & EXTI_REG_MASK) >> EXTI_REG_SHIFT);
 1014              		.loc 1 596 3 view .LVU367
 1015              		.loc 1 596 19 is_stmt 0 view .LVU368
 1016 0000 0368     		ldr	r3, [r0]
 1017              		.loc 1 596 10 view .LVU369
 1018 0002 C3F30042 		ubfx	r2, r3, #16, #1
 1019              	.LVL132:
 597:Drivers/STM32F3xx_HAL_Driver/Src/stm32f3xx_hal_exti.c ****   maskline = (1uL << (hexti->Line & EXTI_PIN_MASK));
 1020              		.loc 1 597 3 is_stmt 1 view .LVU370
 1021              		.loc 1 597 35 is_stmt 0 view .LVU371
 1022 0006 03F01F03 		and	r3, r3, #31
 1023              		.loc 1 597 12 view .LVU372
 1024 000a 0121     		movs	r1, #1
 1025 000c 9940     		lsls	r1, r1, r3
 1026              	.LVL133:
 598:Drivers/STM32F3xx_HAL_Driver/Src/stm32f3xx_hal_exti.c **** 
 599:Drivers/STM32F3xx_HAL_Driver/Src/stm32f3xx_hal_exti.c ****   regaddr = (&EXTI->SWIER + (EXTI_CONFIG_OFFSET * offset));
 1027              		.loc 1 599 3 is_stmt 1 view .LVU373
 1028              		.loc 1 599 27 is_stmt 0 view .LVU374
 1029 000e 5301     		lsls	r3, r2, #5
 1030              		.loc 1 599 11 view .LVU375
 1031 0010 014A     		ldr	r2, .L69
 1032              	.LVL134:
 600:Drivers/STM32F3xx_HAL_Driver/Src/stm32f3xx_hal_exti.c ****   *regaddr = maskline;
 1033              		.loc 1 600 3 is_stmt 1 view .LVU376
 1034              		.loc 1 600 12 is_stmt 0 view .LVU377
 1035 0012 9950     		str	r1, [r3, r2]
 1036              	.LVL135:
 601:Drivers/STM32F3xx_HAL_Driver/Src/stm32f3xx_hal_exti.c **** }
 1037              		.loc 1 601 1 view .LVU378
 1038 0014 7047     		bx	lr
 1039              	.L70:
 1040 0016 00BF     		.align	2
 1041              	.L69:
 1042 0018 10040140 		.word	1073808400
 1043              		.cfi_endproc
 1044              	.LFE138:
 1046              		.text
 1047              	.Letext0:
 1048              		.file 2 "C:/TOOL/arm-none-eabi/include/machine/_default_types.h"
 1049              		.file 3 "C:/TOOL/arm-none-eabi/include/sys/_stdint.h"
 1050              		.file 4 "Drivers/CMSIS/Device/ST/STM32F3xx/Include/stm32f303xc.h"
 1051              		.file 5 "Drivers/STM32F3xx_HAL_Driver/Inc/stm32f3xx_hal_def.h"
 1052              		.file 6 "Drivers/STM32F3xx_HAL_Driver/Inc/stm32f3xx_hal_exti.h"
ARM GAS  C:\Temp\ccZihlc1.s 			page 31

