ARM GAS  C:\Users\naoki\AppData\Local\Temp\ccaZtq1h.s 			page 1


   1              		.cpu cortex-m4
   2              		.arch armv7e-m
   3              		.fpu fpv4-sp-d16
   4              		.eabi_attribute 27, 1
   5              		.eabi_attribute 28, 1
   6              		.eabi_attribute 20, 1
   7              		.eabi_attribute 21, 1
   8              		.eabi_attribute 23, 3
   9              		.eabi_attribute 24, 1
  10              		.eabi_attribute 25, 1
  11              		.eabi_attribute 26, 1
  12              		.eabi_attribute 30, 1
  13              		.eabi_attribute 34, 1
  14              		.eabi_attribute 18, 4
  15              		.file	"main.c"
  16              		.text
  17              	.Ltext0:
  18              		.cfi_sections	.debug_frame
  19              		.file 1 "Core/Src/main.c"
  20              		.section	.text.Save_Config,"ax",%progbits
  21              		.align	1
  22              		.global	Save_Config
  23              		.syntax unified
  24              		.thumb
  25              		.thumb_func
  27              	Save_Config:
  28              	.LFB134:
   1:Core/Src/main.c **** /* main.c */
   2:Core/Src/main.c **** #include "main.h"
   3:Core/Src/main.c **** #include "adc.h"
   4:Core/Src/main.c **** #include "usb_device.h"
   5:Core/Src/main.c **** #include "gpio.h"
   6:Core/Src/main.c **** #include "usbd_hid.h"
   7:Core/Src/main.c **** #include <stdint.h>
   8:Core/Src/main.c **** #include <stdbool.h>
   9:Core/Src/main.c **** #include <string.h>
  10:Core/Src/main.c **** #include <stdlib.h>
  11:Core/Src/main.c **** #include <math.h>
  12:Core/Src/main.c **** 
  13:Core/Src/main.c **** // --- 定数定義 ---
  14:Core/Src/main.c **** #define KEY_COUNT 20
  15:Core/Src/main.c **** #define TRAVEL_DISTANCE_MM 3.2f
  16:Core/Src/main.c **** #define ADC_MAX 4095.0f
  17:Core/Src/main.c **** #define RAW_DEADZONE 60 
  18:Core/Src/main.c **** #define MAX_MACROS 8
  19:Core/Src/main.c **** 
  20:Core/Src/main.c **** // WebHID Commands
  21:Core/Src/main.c **** #define CMD_GET_CONFIG    0x10 
  22:Core/Src/main.c **** #define CMD_SET_CONFIG    0x20 
  23:Core/Src/main.c **** #define CMD_READ_SENSORS  0x30 
  24:Core/Src/main.c **** #define CMD_CALIBRATE     0x40 
  25:Core/Src/main.c **** #define CMD_SAVE_SETTINGS 0x50 
  26:Core/Src/main.c **** #define CMD_SET_SOCD      0x60 
  27:Core/Src/main.c **** #define CMD_SET_MAPPING   0x70 
  28:Core/Src/main.c **** #define CMD_SET_MACRO     0x80 
  29:Core/Src/main.c **** 
  30:Core/Src/main.c **** // Flash Memory
ARM GAS  C:\Users\naoki\AppData\Local\Temp\ccaZtq1h.s 			page 2


  31:Core/Src/main.c **** #define FLASH_STORAGE_ADDR 0x0801F800
  32:Core/Src/main.c **** #define FLASH_MAGIC_NUM    0xDEADBEE3 
  33:Core/Src/main.c **** 
  34:Core/Src/main.c **** // --- ボタンID定義 ---
  35:Core/Src/main.c **** #define BTN_NONE      0
  36:Core/Src/main.c **** #define BTN_UP        1
  37:Core/Src/main.c **** #define BTN_DOWN      2
  38:Core/Src/main.c **** #define BTN_LEFT      3
  39:Core/Src/main.c **** #define BTN_RIGHT     4
  40:Core/Src/main.c **** #define BTN_START     5
  41:Core/Src/main.c **** #define BTN_BACK      6
  42:Core/Src/main.c **** #define BTN_L3        7
  43:Core/Src/main.c **** #define BTN_R3        8
  44:Core/Src/main.c **** #define BTN_LB        9
  45:Core/Src/main.c **** #define BTN_RB        10
  46:Core/Src/main.c **** #define BTN_GUIDE     11
  47:Core/Src/main.c **** #define BTN_A         12
  48:Core/Src/main.c **** #define BTN_B         13
  49:Core/Src/main.c **** #define BTN_X         14
  50:Core/Src/main.c **** #define BTN_Y         15
  51:Core/Src/main.c **** #define BTN_LT        16 
  52:Core/Src/main.c **** #define BTN_RT        17 
  53:Core/Src/main.c **** // 50~57: Macro 1~8
  54:Core/Src/main.c **** 
  55:Core/Src/main.c **** // XInput Bitmask
  56:Core/Src/main.c **** #define XINPUT_DPAD_UP    0x0001
  57:Core/Src/main.c **** #define XINPUT_DPAD_DOWN  0x0002
  58:Core/Src/main.c **** #define XINPUT_DPAD_LEFT  0x0004
  59:Core/Src/main.c **** #define XINPUT_DPAD_RIGHT 0x0008
  60:Core/Src/main.c **** #define XINPUT_START      0x0010
  61:Core/Src/main.c **** #define XINPUT_BACK       0x0020
  62:Core/Src/main.c **** #define XINPUT_LB         0x0100
  63:Core/Src/main.c **** #define XINPUT_RB         0x0200
  64:Core/Src/main.c **** #define XINPUT_BTN_A      0x1000
  65:Core/Src/main.c **** #define XINPUT_BTN_B      0x2000
  66:Core/Src/main.c **** #define XINPUT_BTN_X      0x4000
  67:Core/Src/main.c **** #define XINPUT_BTN_Y      0x8000
  68:Core/Src/main.c **** #define XINPUT_THUMB_L    0x0040
  69:Core/Src/main.c **** #define XINPUT_THUMB_R    0x0080
  70:Core/Src/main.c **** #define XINPUT_GUIDE      0x0400
  71:Core/Src/main.c **** 
  72:Core/Src/main.c **** // --- キーマップ (デフォルト) ---
  73:Core/Src/main.c **** uint8_t key_map[KEY_COUNT] = {
  74:Core/Src/main.c ****     BTN_RIGHT, BTN_DOWN, BTN_LEFT, BTN_R3, BTN_L3, BTN_GUIDE, BTN_BACK, BTN_START, 
  75:Core/Src/main.c ****     BTN_RB,    BTN_LB,   BTN_Y,    BTN_X,  BTN_R3, BTN_A,     BTN_B,    BTN_LT, 
  76:Core/Src/main.c ****     BTN_RT,    BTN_L3,   BTN_UP,   BTN_R3
  77:Core/Src/main.c **** };
  78:Core/Src/main.c **** 
  79:Core/Src/main.c **** // --- マクロ定義 ---
  80:Core/Src/main.c **** uint32_t custom_macros[MAX_MACROS] = {0};
  81:Core/Src/main.c **** 
  82:Core/Src/main.c **** // --- 構造体 ---
  83:Core/Src/main.c **** typedef struct {
  84:Core/Src/main.c ****     uint16_t resting_val;
  85:Core/Src/main.c ****     uint16_t max_diff;
  86:Core/Src/main.c ****     float current_mm;
  87:Core/Src/main.c ****     float anchor_mm;
ARM GAS  C:\Users\naoki\AppData\Local\Temp\ccaZtq1h.s 			page 3


  88:Core/Src/main.c ****     bool is_pressed;
  89:Core/Src/main.c ****     float actuation_point;
  90:Core/Src/main.c ****     float rt_press;
  91:Core/Src/main.c ****     float rt_release;
  92:Core/Src/main.c ****     float top_deadzone;
  93:Core/Src/main.c ****     float bottom_deadzone;
  94:Core/Src/main.c **** } KeyState_t;
  95:Core/Src/main.c **** 
  96:Core/Src/main.c **** // Flash保存用構造体
  97:Core/Src/main.c **** typedef struct {
  98:Core/Src/main.c ****     uint32_t magic;
  99:Core/Src/main.c ****     float ap[KEY_COUNT];
 100:Core/Src/main.c ****     float rt[KEY_COUNT];
 101:Core/Src/main.c ****     float top_dz[KEY_COUNT];
 102:Core/Src/main.c ****     float bottom_dz[KEY_COUNT];
 103:Core/Src/main.c ****     uint8_t socd_mode;
 104:Core/Src/main.c ****     uint8_t key_map[KEY_COUNT];
 105:Core/Src/main.c ****     uint32_t macros[MAX_MACROS];
 106:Core/Src/main.c ****     uint8_t reserved[3];
 107:Core/Src/main.c **** } FlashConfig_t;
 108:Core/Src/main.c **** 
 109:Core/Src/main.c **** typedef struct __attribute__((packed)) {
 110:Core/Src/main.c ****     uint8_t msg_type; uint8_t pkt_size; 
 111:Core/Src/main.c ****     uint16_t buttons; uint8_t lt; uint8_t rt;
 112:Core/Src/main.c ****     int16_t lx; int16_t ly; int16_t rx; int16_t ry; 
 113:Core/Src/main.c ****     uint8_t reserved[6]; 
 114:Core/Src/main.c **** } XInputReport_t;
 115:Core/Src/main.c **** 
 116:Core/Src/main.c **** // --- グローバル変数 ---
 117:Core/Src/main.c **** extern USBD_HandleTypeDef hUsbDeviceFS;
 118:Core/Src/main.c **** extern ADC_HandleTypeDef hadc2;
 119:Core/Src/main.c **** extern ADC_HandleTypeDef hadc3;
 120:Core/Src/main.c **** extern ADC_HandleTypeDef hadc4;
 121:Core/Src/main.c **** 
 122:Core/Src/main.c **** uint8_t g_boot_mode = 0; 
 123:Core/Src/main.c **** volatile bool g_req_calibrate = false;
 124:Core/Src/main.c **** volatile bool g_req_save = false;
 125:Core/Src/main.c **** 
 126:Core/Src/main.c **** uint8_t g_socd_mode = 0; 
 127:Core/Src/main.c **** 
 128:Core/Src/main.c **** // Last Win用
 129:Core/Src/main.c **** bool last_left_state = false;
 130:Core/Src/main.c **** bool last_right_state = false;
 131:Core/Src/main.c **** bool last_up_state = false;
 132:Core/Src/main.c **** bool last_down_state = false;
 133:Core/Src/main.c **** int  last_lr_winner = 0; 
 134:Core/Src/main.c **** int  last_ud_winner = 0; 
 135:Core/Src/main.c **** 
 136:Core/Src/main.c **** uint16_t adc_raw_values[KEY_COUNT];
 137:Core/Src/main.c **** KeyState_t key_states[KEY_COUNT];
 138:Core/Src/main.c **** uint8_t webhid_tx_buf[64];
 139:Core/Src/main.c **** 
 140:Core/Src/main.c **** // --- プロトタイプ宣言 ---
 141:Core/Src/main.c **** void SystemClock_Config(void);
 142:Core/Src/main.c **** void Error_Handler(void);
 143:Core/Src/main.c **** void MUX1_Select(uint8_t ch);
 144:Core/Src/main.c **** void MUX2_Select(uint8_t ch);
ARM GAS  C:\Users\naoki\AppData\Local\Temp\ccaZtq1h.s 			page 4


 145:Core/Src/main.c **** void scan_all_keys_fast(uint16_t *buffer);
 146:Core/Src/main.c **** void Process_Rapid_Trigger(int key_idx, uint16_t raw_val);
 147:Core/Src/main.c **** void Send_Reports(void);
 148:Core/Src/main.c **** void Save_Config(void);
 149:Core/Src/main.c **** void Load_Config(void);
 150:Core/Src/main.c **** extern uint8_t USBD_WebHID_SendReport(USBD_HandleTypeDef *pdev, uint8_t *report, uint16_t len);
 151:Core/Src/main.c **** extern uint8_t USBD_HID_SendReport(USBD_HandleTypeDef *pdev, uint8_t *report, uint16_t len);
 152:Core/Src/main.c **** 
 153:Core/Src/main.c **** // --- 初期化 ---
 154:Core/Src/main.c **** void Setup_Keys(void) {
 155:Core/Src/main.c ****     HAL_Delay(200);
 156:Core/Src/main.c ****     scan_all_keys_fast(adc_raw_values);
 157:Core/Src/main.c ****     HAL_Delay(50);
 158:Core/Src/main.c ****     scan_all_keys_fast(adc_raw_values);
 159:Core/Src/main.c **** 
 160:Core/Src/main.c ****     for(int i=0; i<KEY_COUNT; i++) {
 161:Core/Src/main.c ****         key_states[i].resting_val = adc_raw_values[i];
 162:Core/Src/main.c ****         key_states[i].max_diff = 200; 
 163:Core/Src/main.c ****         key_states[i].actuation_point = 1.2f;
 164:Core/Src/main.c ****         key_states[i].rt_press = 0.5f;
 165:Core/Src/main.c ****         key_states[i].rt_release = 0.5f;
 166:Core/Src/main.c ****         key_states[i].top_deadzone = 0.2f;
 167:Core/Src/main.c ****         key_states[i].bottom_deadzone = 0.1f;
 168:Core/Src/main.c ****         key_states[i].is_pressed = false;
 169:Core/Src/main.c ****         key_states[i].anchor_mm = 0.0f;
 170:Core/Src/main.c ****         key_states[i].current_mm = 0.0f;
 171:Core/Src/main.c ****     }
 172:Core/Src/main.c ****     g_socd_mode = 0; 
 173:Core/Src/main.c ****     memset(custom_macros, 0, sizeof(custom_macros));
 174:Core/Src/main.c ****     
 175:Core/Src/main.c ****     uint8_t default_map[KEY_COUNT] = {
 176:Core/Src/main.c ****         BTN_RIGHT, BTN_DOWN, BTN_LEFT, BTN_R3, BTN_L3, BTN_GUIDE, BTN_BACK, BTN_START, 
 177:Core/Src/main.c ****         BTN_RB,    BTN_LB,   BTN_Y,    BTN_X,  BTN_R3, BTN_A,     BTN_B,    BTN_LT, 
 178:Core/Src/main.c ****         BTN_RT,    BTN_L3,   BTN_UP,   BTN_R3
 179:Core/Src/main.c ****     };
 180:Core/Src/main.c ****     memcpy(key_map, default_map, KEY_COUNT);
 181:Core/Src/main.c **** }
 182:Core/Src/main.c **** 
 183:Core/Src/main.c **** // --- Flash 保存/読み込み ---
 184:Core/Src/main.c **** void Save_Config(void) {
  29              		.loc 1 184 24 view -0
  30              		.cfi_startproc
  31              		@ args = 0, pretend = 0, frame = 400
  32              		@ frame_needed = 0, uses_anonymous_args = 0
  33 0000 10B5     		push	{r4, lr}
  34              	.LCFI0:
  35              		.cfi_def_cfa_offset 8
  36              		.cfi_offset 4, -8
  37              		.cfi_offset 14, -4
  38 0002 E4B0     		sub	sp, sp, #400
  39              	.LCFI1:
  40              		.cfi_def_cfa_offset 408
 185:Core/Src/main.c ****     FlashConfig_t cfg;
  41              		.loc 1 185 5 view .LVU1
 186:Core/Src/main.c ****     cfg.magic = FLASH_MAGIC_NUM;
  42              		.loc 1 186 5 view .LVU2
  43              		.loc 1 186 15 is_stmt 0 view .LVU3
ARM GAS  C:\Users\naoki\AppData\Local\Temp\ccaZtq1h.s 			page 5


  44 0004 2F4A     		ldr	r2, .L11
  45 0006 0492     		str	r2, [sp, #16]
 187:Core/Src/main.c ****     cfg.socd_mode = g_socd_mode;
  46              		.loc 1 187 5 is_stmt 1 view .LVU4
  47              		.loc 1 187 19 is_stmt 0 view .LVU5
  48 0008 2F4A     		ldr	r2, .L11+4
  49 000a 1278     		ldrb	r2, [r2]	@ zero_extendqisi2
  50 000c 8DF85421 		strb	r2, [sp, #340]
 188:Core/Src/main.c ****     for(int i=0; i<KEY_COUNT; i++) {
  51              		.loc 1 188 5 is_stmt 1 view .LVU6
  52              	.LBB4:
  53              		.loc 1 188 9 view .LVU7
  54              	.LVL0:
  55              		.loc 1 188 13 is_stmt 0 view .LVU8
  56 0010 0023     		movs	r3, #0
  57              		.loc 1 188 5 view .LVU9
  58 0012 21E0     		b	.L2
  59              	.LVL1:
  60              	.L3:
 189:Core/Src/main.c ****         cfg.ap[i] = key_states[i].actuation_point;
  61              		.loc 1 189 9 is_stmt 1 view .LVU10
  62              		.loc 1 189 34 is_stmt 0 view .LVU11
  63 0014 03EBC302 		add	r2, r3, r3, lsl #3
  64 0018 2C49     		ldr	r1, .L11+8
  65 001a 01EB8201 		add	r1, r1, r2, lsl #2
  66 001e 0C69     		ldr	r4, [r1, #16]	@ float
  67              		.loc 1 189 19 view .LVU12
  68 0020 04AA     		add	r2, sp, #16
  69 0022 02EB8300 		add	r0, r2, r3, lsl #2
  70 0026 4460     		str	r4, [r0, #4]	@ float
 190:Core/Src/main.c ****         cfg.rt[i] = key_states[i].rt_press;
  71              		.loc 1 190 9 is_stmt 1 view .LVU13
  72              		.loc 1 190 34 is_stmt 0 view .LVU14
  73 0028 4C69     		ldr	r4, [r1, #20]	@ float
  74              		.loc 1 190 19 view .LVU15
  75 002a 03F11400 		add	r0, r3, #20
  76 002e 02EB8000 		add	r0, r2, r0, lsl #2
  77 0032 4460     		str	r4, [r0, #4]	@ float
 191:Core/Src/main.c ****         cfg.top_dz[i] = key_states[i].top_deadzone;
  78              		.loc 1 191 9 is_stmt 1 view .LVU16
  79              		.loc 1 191 38 is_stmt 0 view .LVU17
  80 0034 CC69     		ldr	r4, [r1, #28]	@ float
  81              		.loc 1 191 23 view .LVU18
  82 0036 03F12800 		add	r0, r3, #40
  83 003a 02EB8000 		add	r0, r2, r0, lsl #2
  84 003e 4460     		str	r4, [r0, #4]	@ float
 192:Core/Src/main.c ****         cfg.bottom_dz[i] = key_states[i].bottom_deadzone;
  85              		.loc 1 192 9 is_stmt 1 view .LVU19
  86              		.loc 1 192 41 is_stmt 0 view .LVU20
  87 0040 086A     		ldr	r0, [r1, #32]	@ float
  88              		.loc 1 192 26 view .LVU21
  89 0042 03F13C01 		add	r1, r3, #60
  90 0046 02EB8101 		add	r1, r2, r1, lsl #2
  91 004a 4860     		str	r0, [r1, #4]	@ float
 193:Core/Src/main.c ****         cfg.key_map[i] = key_map[i];
  92              		.loc 1 193 9 is_stmt 1 view .LVU22
  93              		.loc 1 193 33 is_stmt 0 view .LVU23
ARM GAS  C:\Users\naoki\AppData\Local\Temp\ccaZtq1h.s 			page 6


  94 004c 2049     		ldr	r1, .L11+12
  95 004e C95C     		ldrb	r1, [r1, r3]	@ zero_extendqisi2
  96              		.loc 1 193 24 view .LVU24
  97 0050 1A44     		add	r2, r2, r3
  98 0052 82F84511 		strb	r1, [r2, #325]
 188:Core/Src/main.c ****         cfg.ap[i] = key_states[i].actuation_point;
  99              		.loc 1 188 32 is_stmt 1 discriminator 3 view .LVU25
 100 0056 0133     		adds	r3, r3, #1
 101              	.LVL2:
 102              	.L2:
 188:Core/Src/main.c ****         cfg.ap[i] = key_states[i].actuation_point;
 103              		.loc 1 188 19 discriminator 1 view .LVU26
 104 0058 132B     		cmp	r3, #19
 105 005a DBDD     		ble	.L3
 106              	.LBE4:
 107              	.LBB5:
 194:Core/Src/main.c ****     }
 195:Core/Src/main.c ****     for(int i=0; i<MAX_MACROS; i++) {
 108              		.loc 1 195 13 is_stmt 0 view .LVU27
 109 005c 0023     		movs	r3, #0
 110              	.LVL3:
 111              		.loc 1 195 13 view .LVU28
 112 005e 09E0     		b	.L4
 113              	.LVL4:
 114              	.L5:
 196:Core/Src/main.c ****         cfg.macros[i] = custom_macros[i];
 115              		.loc 1 196 9 is_stmt 1 view .LVU29
 116              		.loc 1 196 38 is_stmt 0 view .LVU30
 117 0060 1C4A     		ldr	r2, .L11+16
 118 0062 52F82310 		ldr	r1, [r2, r3, lsl #2]
 119              		.loc 1 196 23 view .LVU31
 120 0066 03F15600 		add	r0, r3, #86
 121 006a 04AA     		add	r2, sp, #16
 122 006c 02EB8002 		add	r2, r2, r0, lsl #2
 123 0070 5160     		str	r1, [r2, #4]
 195:Core/Src/main.c ****         cfg.macros[i] = custom_macros[i];
 124              		.loc 1 195 33 is_stmt 1 discriminator 3 view .LVU32
 125 0072 0133     		adds	r3, r3, #1
 126              	.LVL5:
 127              	.L4:
 195:Core/Src/main.c ****         cfg.macros[i] = custom_macros[i];
 128              		.loc 1 195 19 discriminator 1 view .LVU33
 129 0074 072B     		cmp	r3, #7
 130 0076 F3DD     		ble	.L5
 131              	.LBE5:
 197:Core/Src/main.c ****     }
 198:Core/Src/main.c **** 
 199:Core/Src/main.c ****     HAL_FLASH_Unlock();
 132              		.loc 1 199 5 view .LVU34
 133 0078 FFF7FEFF 		bl	HAL_FLASH_Unlock
 134              	.LVL6:
 200:Core/Src/main.c ****     FLASH_EraseInitTypeDef EraseInitStruct;
 135              		.loc 1 200 5 view .LVU35
 201:Core/Src/main.c ****     uint32_t PageError;
 136              		.loc 1 201 5 view .LVU36
 202:Core/Src/main.c ****     EraseInitStruct.TypeErase = FLASH_TYPEERASE_PAGES;
 137              		.loc 1 202 5 view .LVU37
ARM GAS  C:\Users\naoki\AppData\Local\Temp\ccaZtq1h.s 			page 7


 138              		.loc 1 202 31 is_stmt 0 view .LVU38
 139 007c 01A8     		add	r0, sp, #4
 140 007e 0023     		movs	r3, #0
 141 0080 0360     		str	r3, [r0]
 203:Core/Src/main.c ****     EraseInitStruct.PageAddress = FLASH_STORAGE_ADDR;
 142              		.loc 1 203 5 is_stmt 1 view .LVU39
 143              		.loc 1 203 33 is_stmt 0 view .LVU40
 144 0082 154B     		ldr	r3, .L11+20
 145 0084 4360     		str	r3, [r0, #4]
 204:Core/Src/main.c ****     EraseInitStruct.NbPages = 1;
 146              		.loc 1 204 5 is_stmt 1 view .LVU41
 147              		.loc 1 204 29 is_stmt 0 view .LVU42
 148 0086 0123     		movs	r3, #1
 149 0088 8360     		str	r3, [r0, #8]
 205:Core/Src/main.c **** 
 206:Core/Src/main.c ****     if (HAL_FLASHEx_Erase(&EraseInitStruct, &PageError) == HAL_OK) {
 150              		.loc 1 206 5 is_stmt 1 view .LVU43
 151              		.loc 1 206 9 is_stmt 0 view .LVU44
 152 008a 6946     		mov	r1, sp
 153 008c FFF7FEFF 		bl	HAL_FLASHEx_Erase
 154              	.LVL7:
 155              		.loc 1 206 8 discriminator 1 view .LVU45
 156 0090 B0B1     		cbz	r0, .L9
 157              	.L7:
 207:Core/Src/main.c ****         uint32_t *pData = (uint32_t*)&cfg;
 208:Core/Src/main.c ****         for (int i = 0; i < sizeof(FlashConfig_t) / 4; i++) {
 209:Core/Src/main.c ****             HAL_FLASH_Program(FLASH_TYPEPROGRAM_WORD, FLASH_STORAGE_ADDR + (i * 4), pData[i]);
 210:Core/Src/main.c ****         }
 211:Core/Src/main.c ****     }
 212:Core/Src/main.c ****     HAL_FLASH_Lock();
 158              		.loc 1 212 5 is_stmt 1 view .LVU46
 159 0092 FFF7FEFF 		bl	HAL_FLASH_Lock
 160              	.LVL8:
 213:Core/Src/main.c **** }
 161              		.loc 1 213 1 is_stmt 0 view .LVU47
 162 0096 64B0     		add	sp, sp, #400
 163              	.LCFI2:
 164              		.cfi_remember_state
 165              		.cfi_def_cfa_offset 8
 166              		@ sp needed
 167 0098 10BD     		pop	{r4, pc}
 168              	.LVL9:
 169              	.L8:
 170              	.LCFI3:
 171              		.cfi_restore_state
 172              	.LBB6:
 173              	.LBB7:
 209:Core/Src/main.c ****         }
 174              		.loc 1 209 13 is_stmt 1 view .LVU48
 209:Core/Src/main.c ****         }
 175              		.loc 1 209 74 is_stmt 0 view .LVU49
 176 009a 04F10071 		add	r1, r4, #33554432
 177 009e 01F5FC41 		add	r1, r1, #32256
 209:Core/Src/main.c ****         }
 178              		.loc 1 209 90 view .LVU50
 179 00a2 64AB     		add	r3, sp, #400
 180 00a4 03EB8403 		add	r3, r3, r4, lsl #2
ARM GAS  C:\Users\naoki\AppData\Local\Temp\ccaZtq1h.s 			page 8


 181 00a8 A3F5C073 		sub	r3, r3, #384
 209:Core/Src/main.c ****         }
 182              		.loc 1 209 13 view .LVU51
 183 00ac 1A68     		ldr	r2, [r3]
 184 00ae 0023     		movs	r3, #0
 185 00b0 8900     		lsls	r1, r1, #2
 186 00b2 0220     		movs	r0, #2
 187 00b4 FFF7FEFF 		bl	HAL_FLASH_Program
 188              	.LVL10:
 208:Core/Src/main.c ****             HAL_FLASH_Program(FLASH_TYPEPROGRAM_WORD, FLASH_STORAGE_ADDR + (i * 4), pData[i]);
 189              		.loc 1 208 57 is_stmt 1 discriminator 3 view .LVU52
 190 00b8 0134     		adds	r4, r4, #1
 191              	.LVL11:
 192              	.L6:
 208:Core/Src/main.c ****             HAL_FLASH_Program(FLASH_TYPEPROGRAM_WORD, FLASH_STORAGE_ADDR + (i * 4), pData[i]);
 193              		.loc 1 208 27 discriminator 1 view .LVU53
 194 00ba 5F2C     		cmp	r4, #95
 195 00bc EDD9     		bls	.L8
 196 00be E8E7     		b	.L7
 197              	.LVL12:
 198              	.L9:
 208:Core/Src/main.c ****             HAL_FLASH_Program(FLASH_TYPEPROGRAM_WORD, FLASH_STORAGE_ADDR + (i * 4), pData[i]);
 199              		.loc 1 208 18 is_stmt 0 view .LVU54
 200 00c0 0446     		mov	r4, r0
 201 00c2 FAE7     		b	.L6
 202              	.L12:
 203              		.align	2
 204              	.L11:
 205 00c4 E3BEADDE 		.word	-559038749
 206 00c8 00000000 		.word	g_socd_mode
 207 00cc 00000000 		.word	key_states
 208 00d0 00000000 		.word	key_map
 209 00d4 00000000 		.word	custom_macros
 210 00d8 00F80108 		.word	134346752
 211              	.LBE7:
 212              	.LBE6:
 213              		.cfi_endproc
 214              	.LFE134:
 216              		.section	.text.Load_Config,"ax",%progbits
 217              		.align	1
 218              		.global	Load_Config
 219              		.syntax unified
 220              		.thumb
 221              		.thumb_func
 223              	Load_Config:
 224              	.LFB135:
 214:Core/Src/main.c **** 
 215:Core/Src/main.c **** void Load_Config(void) {
 225              		.loc 1 215 24 is_stmt 1 view -0
 226              		.cfi_startproc
 227              		@ args = 0, pretend = 0, frame = 0
 228              		@ frame_needed = 0, uses_anonymous_args = 0
 229              		@ link register save eliminated.
 216:Core/Src/main.c ****     FlashConfig_t *pCfg = (FlashConfig_t*)FLASH_STORAGE_ADDR;
 230              		.loc 1 216 5 view .LVU56
 231              	.LVL13:
 217:Core/Src/main.c ****     if (pCfg->magic == FLASH_MAGIC_NUM) {
ARM GAS  C:\Users\naoki\AppData\Local\Temp\ccaZtq1h.s 			page 9


 232              		.loc 1 217 5 view .LVU57
 233              		.loc 1 217 13 is_stmt 0 view .LVU58
 234 0000 214B     		ldr	r3, .L20
 235 0002 1A68     		ldr	r2, [r3]
 236              		.loc 1 217 8 view .LVU59
 237 0004 214B     		ldr	r3, .L20+4
 238 0006 9A42     		cmp	r2, r3
 239 0008 00D0     		beq	.L19
 240              	.L13:
 218:Core/Src/main.c ****         g_socd_mode = pCfg->socd_mode;
 219:Core/Src/main.c ****         for(int i=0; i<KEY_COUNT; i++) {
 220:Core/Src/main.c ****             key_states[i].actuation_point = pCfg->ap[i];
 221:Core/Src/main.c ****             key_states[i].rt_press = pCfg->rt[i];
 222:Core/Src/main.c ****             key_states[i].rt_release = pCfg->rt[i];
 223:Core/Src/main.c ****             key_states[i].top_deadzone = pCfg->top_dz[i];
 224:Core/Src/main.c ****             key_states[i].bottom_deadzone = pCfg->bottom_dz[i];
 225:Core/Src/main.c ****             key_map[i] = pCfg->key_map[i];
 226:Core/Src/main.c ****         }
 227:Core/Src/main.c ****         for(int i=0; i<MAX_MACROS; i++) {
 228:Core/Src/main.c ****             custom_macros[i] = pCfg->macros[i];
 229:Core/Src/main.c ****         }
 230:Core/Src/main.c ****     }
 231:Core/Src/main.c **** }
 241              		.loc 1 231 1 view .LVU60
 242 000a 7047     		bx	lr
 243              	.L19:
 218:Core/Src/main.c ****         g_socd_mode = pCfg->socd_mode;
 244              		.loc 1 218 9 is_stmt 1 view .LVU61
 218:Core/Src/main.c ****         g_socd_mode = pCfg->socd_mode;
 245              		.loc 1 218 27 is_stmt 0 view .LVU62
 246 000c 1E4B     		ldr	r3, .L20
 247 000e 93F84421 		ldrb	r2, [r3, #324]	@ zero_extendqisi2
 218:Core/Src/main.c ****         g_socd_mode = pCfg->socd_mode;
 248              		.loc 1 218 21 view .LVU63
 249 0012 1F4B     		ldr	r3, .L20+8
 250 0014 1A70     		strb	r2, [r3]
 219:Core/Src/main.c ****             key_states[i].actuation_point = pCfg->ap[i];
 251              		.loc 1 219 9 is_stmt 1 view .LVU64
 252              	.LBB8:
 219:Core/Src/main.c ****             key_states[i].actuation_point = pCfg->ap[i];
 253              		.loc 1 219 13 view .LVU65
 254              	.LVL14:
 219:Core/Src/main.c ****             key_states[i].actuation_point = pCfg->ap[i];
 255              		.loc 1 219 17 is_stmt 0 view .LVU66
 256 0016 0023     		movs	r3, #0
 219:Core/Src/main.c ****             key_states[i].actuation_point = pCfg->ap[i];
 257              		.loc 1 219 9 view .LVU67
 258 0018 22E0     		b	.L15
 259              	.LVL15:
 260              	.L16:
 220:Core/Src/main.c ****             key_states[i].rt_press = pCfg->rt[i];
 261              		.loc 1 220 13 is_stmt 1 view .LVU68
 220:Core/Src/main.c ****             key_states[i].rt_press = pCfg->rt[i];
 262              		.loc 1 220 53 is_stmt 0 view .LVU69
 263 001a 1B4A     		ldr	r2, .L20
 264 001c 02EB8301 		add	r1, r2, r3, lsl #2
 265 0020 4868     		ldr	r0, [r1, #4]	@ float
ARM GAS  C:\Users\naoki\AppData\Local\Temp\ccaZtq1h.s 			page 10


 220:Core/Src/main.c ****             key_states[i].rt_press = pCfg->rt[i];
 266              		.loc 1 220 43 view .LVU70
 267 0022 03EBC30C 		add	ip, r3, r3, lsl #3
 268 0026 1B49     		ldr	r1, .L20+12
 269 0028 01EB8C01 		add	r1, r1, ip, lsl #2
 270 002c 0861     		str	r0, [r1, #16]	@ float
 221:Core/Src/main.c ****             key_states[i].rt_release = pCfg->rt[i];
 271              		.loc 1 221 13 is_stmt 1 view .LVU71
 221:Core/Src/main.c ****             key_states[i].rt_release = pCfg->rt[i];
 272              		.loc 1 221 46 is_stmt 0 view .LVU72
 273 002e 03F11400 		add	r0, r3, #20
 274 0032 02EB8000 		add	r0, r2, r0, lsl #2
 275 0036 4068     		ldr	r0, [r0, #4]	@ float
 221:Core/Src/main.c ****             key_states[i].rt_release = pCfg->rt[i];
 276              		.loc 1 221 36 view .LVU73
 277 0038 4861     		str	r0, [r1, #20]	@ float
 222:Core/Src/main.c ****             key_states[i].top_deadzone = pCfg->top_dz[i];
 278              		.loc 1 222 13 is_stmt 1 view .LVU74
 222:Core/Src/main.c ****             key_states[i].top_deadzone = pCfg->top_dz[i];
 279              		.loc 1 222 38 is_stmt 0 view .LVU75
 280 003a 8861     		str	r0, [r1, #24]	@ float
 223:Core/Src/main.c ****             key_states[i].bottom_deadzone = pCfg->bottom_dz[i];
 281              		.loc 1 223 13 is_stmt 1 view .LVU76
 223:Core/Src/main.c ****             key_states[i].bottom_deadzone = pCfg->bottom_dz[i];
 282              		.loc 1 223 54 is_stmt 0 view .LVU77
 283 003c 03F12800 		add	r0, r3, #40
 284 0040 02EB8000 		add	r0, r2, r0, lsl #2
 285 0044 4068     		ldr	r0, [r0, #4]	@ float
 223:Core/Src/main.c ****             key_states[i].bottom_deadzone = pCfg->bottom_dz[i];
 286              		.loc 1 223 40 view .LVU78
 287 0046 C861     		str	r0, [r1, #28]	@ float
 224:Core/Src/main.c ****             key_map[i] = pCfg->key_map[i];
 288              		.loc 1 224 13 is_stmt 1 view .LVU79
 224:Core/Src/main.c ****             key_map[i] = pCfg->key_map[i];
 289              		.loc 1 224 60 is_stmt 0 view .LVU80
 290 0048 03F13C00 		add	r0, r3, #60
 291 004c 02EB8000 		add	r0, r2, r0, lsl #2
 292 0050 4068     		ldr	r0, [r0, #4]	@ float
 224:Core/Src/main.c ****             key_map[i] = pCfg->key_map[i];
 293              		.loc 1 224 43 view .LVU81
 294 0052 0862     		str	r0, [r1, #32]	@ float
 225:Core/Src/main.c ****         }
 295              		.loc 1 225 13 is_stmt 1 view .LVU82
 225:Core/Src/main.c ****         }
 296              		.loc 1 225 39 is_stmt 0 view .LVU83
 297 0054 1A44     		add	r2, r2, r3
 298 0056 92F84511 		ldrb	r1, [r2, #325]	@ zero_extendqisi2
 225:Core/Src/main.c ****         }
 299              		.loc 1 225 24 view .LVU84
 300 005a 0F4A     		ldr	r2, .L20+16
 301 005c D154     		strb	r1, [r2, r3]
 219:Core/Src/main.c ****             key_states[i].actuation_point = pCfg->ap[i];
 302              		.loc 1 219 36 is_stmt 1 discriminator 3 view .LVU85
 303 005e 0133     		adds	r3, r3, #1
 304              	.LVL16:
 305              	.L15:
 219:Core/Src/main.c ****             key_states[i].actuation_point = pCfg->ap[i];
ARM GAS  C:\Users\naoki\AppData\Local\Temp\ccaZtq1h.s 			page 11


 306              		.loc 1 219 23 discriminator 1 view .LVU86
 307 0060 132B     		cmp	r3, #19
 308 0062 DADD     		ble	.L16
 309              	.LBE8:
 310              	.LBB9:
 227:Core/Src/main.c ****             custom_macros[i] = pCfg->macros[i];
 311              		.loc 1 227 17 is_stmt 0 view .LVU87
 312 0064 0022     		movs	r2, #0
 313 0066 0BE0     		b	.L17
 314              	.LVL17:
 315              	.L18:
 228:Core/Src/main.c ****         }
 316              		.loc 1 228 13 is_stmt 1 view .LVU88
 228:Core/Src/main.c ****         }
 317              		.loc 1 228 44 is_stmt 0 view .LVU89
 318 0068 02F15603 		add	r3, r2, #86
 319 006c 9B00     		lsls	r3, r3, #2
 320 006e 03F10063 		add	r3, r3, #134217728
 321 0072 03F5FC33 		add	r3, r3, #129024
 322 0076 5968     		ldr	r1, [r3, #4]
 228:Core/Src/main.c ****         }
 323              		.loc 1 228 30 view .LVU90
 324 0078 084B     		ldr	r3, .L20+20
 325 007a 43F82210 		str	r1, [r3, r2, lsl #2]
 227:Core/Src/main.c ****             custom_macros[i] = pCfg->macros[i];
 326              		.loc 1 227 37 is_stmt 1 discriminator 3 view .LVU91
 327 007e 0132     		adds	r2, r2, #1
 328              	.LVL18:
 329              	.L17:
 227:Core/Src/main.c ****             custom_macros[i] = pCfg->macros[i];
 330              		.loc 1 227 23 discriminator 1 view .LVU92
 331 0080 072A     		cmp	r2, #7
 332 0082 F1DD     		ble	.L18
 333 0084 C1E7     		b	.L13
 334              	.L21:
 335 0086 00BF     		.align	2
 336              	.L20:
 337 0088 00F80108 		.word	134346752
 338 008c E3BEADDE 		.word	-559038749
 339 0090 00000000 		.word	g_socd_mode
 340 0094 00000000 		.word	key_states
 341 0098 00000000 		.word	key_map
 342 009c 00000000 		.word	custom_macros
 343              	.LBE9:
 344              		.cfi_endproc
 345              	.LFE135:
 347              		.section	.text.short_delay,"ax",%progbits
 348              		.align	1
 349              		.global	short_delay
 350              		.syntax unified
 351              		.thumb
 352              		.thumb_func
 354              	short_delay:
 355              	.LFB136:
 232:Core/Src/main.c **** 
 233:Core/Src/main.c **** // --- MUX制御 ---
 234:Core/Src/main.c **** void short_delay(void) { for(volatile int i = 0; i < 30; i++) { __NOP(); } }
ARM GAS  C:\Users\naoki\AppData\Local\Temp\ccaZtq1h.s 			page 12


 356              		.loc 1 234 24 view -0
 357              		.cfi_startproc
 358              		@ args = 0, pretend = 0, frame = 8
 359              		@ frame_needed = 0, uses_anonymous_args = 0
 360              		@ link register save eliminated.
 361 0000 82B0     		sub	sp, sp, #8
 362              	.LCFI4:
 363              		.cfi_def_cfa_offset 8
 364              		.loc 1 234 26 view .LVU94
 365              	.LBB10:
 366              		.loc 1 234 30 view .LVU95
 367              		.loc 1 234 43 is_stmt 0 view .LVU96
 368 0002 0023     		movs	r3, #0
 369 0004 0193     		str	r3, [sp, #4]
 370              		.loc 1 234 26 view .LVU97
 371 0006 03E0     		b	.L23
 372              	.L24:
 373              		.loc 1 234 65 is_stmt 1 discriminator 3 view .LVU98
 374              		.syntax unified
 375              	@ 234 "Core/Src/main.c" 1
 376 0008 00BF     		nop
 377              	@ 0 "" 2
 378              		.loc 1 234 59 discriminator 3 view .LVU99
 379              		.thumb
 380              		.syntax unified
 381 000a 019B     		ldr	r3, [sp, #4]
 382 000c 0133     		adds	r3, r3, #1
 383 000e 0193     		str	r3, [sp, #4]
 384              	.L23:
 385              		.loc 1 234 52 discriminator 1 view .LVU100
 386 0010 019B     		ldr	r3, [sp, #4]
 387 0012 1D2B     		cmp	r3, #29
 388 0014 F8DD     		ble	.L24
 389              	.LBE10:
 390              		.loc 1 234 76 is_stmt 0 view .LVU101
 391 0016 02B0     		add	sp, sp, #8
 392              	.LCFI5:
 393              		.cfi_def_cfa_offset 0
 394              		@ sp needed
 395 0018 7047     		bx	lr
 396              		.cfi_endproc
 397              	.LFE136:
 399              		.section	.text.MUX1_Select,"ax",%progbits
 400              		.align	1
 401              		.global	MUX1_Select
 402              		.syntax unified
 403              		.thumb
 404              		.thumb_func
 406              	MUX1_Select:
 407              	.LVL19:
 408              	.LFB137:
 235:Core/Src/main.c **** void MUX1_Select(uint8_t ch) {
 409              		.loc 1 235 30 is_stmt 1 view -0
 410              		.cfi_startproc
 411              		@ args = 0, pretend = 0, frame = 0
 412              		@ frame_needed = 0, uses_anonymous_args = 0
 413              		.loc 1 235 30 is_stmt 0 view .LVU103
ARM GAS  C:\Users\naoki\AppData\Local\Temp\ccaZtq1h.s 			page 13


 414 0000 10B5     		push	{r4, lr}
 415              	.LCFI6:
 416              		.cfi_def_cfa_offset 8
 417              		.cfi_offset 4, -8
 418              		.cfi_offset 14, -4
 419 0002 0446     		mov	r4, r0
 236:Core/Src/main.c ****     HAL_GPIO_WritePin(MUX1_A_GPIO_Port, MUX1_A_Pin, (ch & 0x01) ? GPIO_PIN_SET : GPIO_PIN_RESET);
 420              		.loc 1 236 5 is_stmt 1 view .LVU104
 421 0004 00F00102 		and	r2, r0, #1
 422 0008 0121     		movs	r1, #1
 423 000a 0948     		ldr	r0, .L28
 424              	.LVL20:
 425              		.loc 1 236 5 is_stmt 0 view .LVU105
 426 000c FFF7FEFF 		bl	HAL_GPIO_WritePin
 427              	.LVL21:
 237:Core/Src/main.c ****     HAL_GPIO_WritePin(MUX1_B_GPIO_Port, MUX1_B_Pin, (ch & 0x02) ? GPIO_PIN_SET : GPIO_PIN_RESET);
 428              		.loc 1 237 5 is_stmt 1 view .LVU106
 429 0010 C4F34002 		ubfx	r2, r4, #1, #1
 430 0014 2021     		movs	r1, #32
 431 0016 4FF09040 		mov	r0, #1207959552
 432 001a FFF7FEFF 		bl	HAL_GPIO_WritePin
 433              	.LVL22:
 238:Core/Src/main.c ****     HAL_GPIO_WritePin(MUX1_C_GPIO_Port, MUX1_C_Pin, (ch & 0x04) ? GPIO_PIN_SET : GPIO_PIN_RESET);
 434              		.loc 1 238 5 view .LVU107
 435 001e C4F38002 		ubfx	r2, r4, #2, #1
 436 0022 8021     		movs	r1, #128
 437 0024 4FF09040 		mov	r0, #1207959552
 438 0028 FFF7FEFF 		bl	HAL_GPIO_WritePin
 439              	.LVL23:
 239:Core/Src/main.c **** }
 440              		.loc 1 239 1 is_stmt 0 view .LVU108
 441 002c 10BD     		pop	{r4, pc}
 442              	.LVL24:
 443              	.L29:
 444              		.loc 1 239 1 view .LVU109
 445 002e 00BF     		.align	2
 446              	.L28:
 447 0030 00040048 		.word	1207960576
 448              		.cfi_endproc
 449              	.LFE137:
 451              		.section	.text.MUX2_Select,"ax",%progbits
 452              		.align	1
 453              		.global	MUX2_Select
 454              		.syntax unified
 455              		.thumb
 456              		.thumb_func
 458              	MUX2_Select:
 459              	.LVL25:
 460              	.LFB138:
 240:Core/Src/main.c **** void MUX2_Select(uint8_t ch) {
 461              		.loc 1 240 30 is_stmt 1 view -0
 462              		.cfi_startproc
 463              		@ args = 0, pretend = 0, frame = 0
 464              		@ frame_needed = 0, uses_anonymous_args = 0
 465              		.loc 1 240 30 is_stmt 0 view .LVU111
 466 0000 10B5     		push	{r4, lr}
 467              	.LCFI7:
ARM GAS  C:\Users\naoki\AppData\Local\Temp\ccaZtq1h.s 			page 14


 468              		.cfi_def_cfa_offset 8
 469              		.cfi_offset 4, -8
 470              		.cfi_offset 14, -4
 471 0002 0446     		mov	r4, r0
 241:Core/Src/main.c ****     HAL_GPIO_WritePin(MUX2_A_GPIO_Port, MUX2_A_Pin, (ch & 0x01) ? GPIO_PIN_SET : GPIO_PIN_RESET);
 472              		.loc 1 241 5 is_stmt 1 view .LVU112
 473 0004 00F00102 		and	r2, r0, #1
 474 0008 4FF40071 		mov	r1, #512
 475 000c 4FF09040 		mov	r0, #1207959552
 476              	.LVL26:
 477              		.loc 1 241 5 is_stmt 0 view .LVU113
 478 0010 FFF7FEFF 		bl	HAL_GPIO_WritePin
 479              	.LVL27:
 242:Core/Src/main.c ****     HAL_GPIO_WritePin(MUX2_B_GPIO_Port, MUX2_B_Pin, (ch & 0x02) ? GPIO_PIN_SET : GPIO_PIN_RESET);
 480              		.loc 1 242 5 is_stmt 1 view .LVU114
 481 0014 C4F34002 		ubfx	r2, r4, #1, #1
 482 0018 4FF48071 		mov	r1, #256
 483 001c 4FF09040 		mov	r0, #1207959552
 484 0020 FFF7FEFF 		bl	HAL_GPIO_WritePin
 485              	.LVL28:
 243:Core/Src/main.c ****     HAL_GPIO_WritePin(MUX2_C_GPIO_Port, MUX2_C_Pin, (ch & 0x04) ? GPIO_PIN_SET : GPIO_PIN_RESET);
 486              		.loc 1 243 5 view .LVU115
 487 0024 C4F38002 		ubfx	r2, r4, #2, #1
 488 0028 4FF40041 		mov	r1, #32768
 489 002c 0148     		ldr	r0, .L32
 490 002e FFF7FEFF 		bl	HAL_GPIO_WritePin
 491              	.LVL29:
 244:Core/Src/main.c **** }
 492              		.loc 1 244 1 is_stmt 0 view .LVU116
 493 0032 10BD     		pop	{r4, pc}
 494              	.LVL30:
 495              	.L33:
 496              		.loc 1 244 1 view .LVU117
 497              		.align	2
 498              	.L32:
 499 0034 00040048 		.word	1207960576
 500              		.cfi_endproc
 501              	.LFE138:
 503              		.section	.text.scan_all_keys_fast,"ax",%progbits
 504              		.align	1
 505              		.global	scan_all_keys_fast
 506              		.syntax unified
 507              		.thumb
 508              		.thumb_func
 510              	scan_all_keys_fast:
 511              	.LVL31:
 512              	.LFB139:
 245:Core/Src/main.c **** 
 246:Core/Src/main.c **** // --- ADCスキャン ---
 247:Core/Src/main.c **** void scan_all_keys_fast(uint16_t *buffer) {
 513              		.loc 1 247 43 is_stmt 1 view -0
 514              		.cfi_startproc
 515              		@ args = 0, pretend = 0, frame = 0
 516              		@ frame_needed = 0, uses_anonymous_args = 0
 517              		.loc 1 247 43 is_stmt 0 view .LVU119
 518 0000 70B5     		push	{r4, r5, r6, lr}
 519              	.LCFI8:
ARM GAS  C:\Users\naoki\AppData\Local\Temp\ccaZtq1h.s 			page 15


 520              		.cfi_def_cfa_offset 16
 521              		.cfi_offset 4, -16
 522              		.cfi_offset 5, -12
 523              		.cfi_offset 6, -8
 524              		.cfi_offset 14, -4
 525 0002 0646     		mov	r6, r0
 248:Core/Src/main.c ****     for (int ch = 0; ch < 8; ch++) {
 526              		.loc 1 248 5 is_stmt 1 view .LVU120
 527              	.LBB11:
 528              		.loc 1 248 10 view .LVU121
 529              	.LVL32:
 530              		.loc 1 248 14 is_stmt 0 view .LVU122
 531 0004 0024     		movs	r4, #0
 532              		.loc 1 248 5 view .LVU123
 533 0006 0AE0     		b	.L35
 534              	.LVL33:
 535              	.L36:
 249:Core/Src/main.c ****         MUX2_Select(ch); MUX1_Select(ch); short_delay(); 
 250:Core/Src/main.c ****         HAL_ADC_Start(&hadc4); HAL_ADC_Start(&hadc3); HAL_ADC_Start(&hadc2);
 251:Core/Src/main.c ****         if (HAL_ADC_PollForConversion(&hadc4, 1) == HAL_OK) buffer[ch] = HAL_ADC_GetValue(&hadc4);
 252:Core/Src/main.c ****         if (HAL_ADC_PollForConversion(&hadc3, 1) == HAL_OK) {
 536              		.loc 1 252 9 is_stmt 1 view .LVU124
 537              		.loc 1 252 13 is_stmt 0 view .LVU125
 538 0008 0121     		movs	r1, #1
 539 000a 2E48     		ldr	r0, .L53
 540 000c FFF7FEFF 		bl	HAL_ADC_PollForConversion
 541              	.LVL34:
 542              		.loc 1 252 12 discriminator 1 view .LVU126
 543 0010 30B3     		cbz	r0, .L50
 544              	.L37:
 253:Core/Src/main.c ****             uint16_t val = HAL_ADC_GetValue(&hadc3);
 254:Core/Src/main.c ****             if (ch < 4) buffer[ch + 8] = val; else if (ch == 7) buffer[12] = val; 
 255:Core/Src/main.c ****         }
 256:Core/Src/main.c ****         if (HAL_ADC_PollForConversion(&hadc2, 1) == HAL_OK) {
 545              		.loc 1 256 9 is_stmt 1 view .LVU127
 546              		.loc 1 256 13 is_stmt 0 view .LVU128
 547 0012 0121     		movs	r1, #1
 548 0014 2C48     		ldr	r0, .L53+4
 549 0016 FFF7FEFF 		bl	HAL_ADC_PollForConversion
 550              	.LVL35:
 551              		.loc 1 256 12 discriminator 1 view .LVU129
 552 001a 80B3     		cbz	r0, .L51
 553              	.L39:
 248:Core/Src/main.c ****         MUX2_Select(ch); MUX1_Select(ch); short_delay(); 
 554              		.loc 1 248 32 is_stmt 1 discriminator 2 view .LVU130
 555 001c 0134     		adds	r4, r4, #1
 556              	.LVL36:
 557              	.L35:
 248:Core/Src/main.c ****         MUX2_Select(ch); MUX1_Select(ch); short_delay(); 
 558              		.loc 1 248 25 discriminator 1 view .LVU131
 559 001e 072C     		cmp	r4, #7
 560 0020 4EDC     		bgt	.L52
 249:Core/Src/main.c ****         MUX2_Select(ch); MUX1_Select(ch); short_delay(); 
 561              		.loc 1 249 9 view .LVU132
 562 0022 E5B2     		uxtb	r5, r4
 563 0024 2846     		mov	r0, r5
 564 0026 FFF7FEFF 		bl	MUX2_Select
ARM GAS  C:\Users\naoki\AppData\Local\Temp\ccaZtq1h.s 			page 16


 565              	.LVL37:
 249:Core/Src/main.c ****         MUX2_Select(ch); MUX1_Select(ch); short_delay(); 
 566              		.loc 1 249 26 discriminator 1 view .LVU133
 567 002a 2846     		mov	r0, r5
 568 002c FFF7FEFF 		bl	MUX1_Select
 569              	.LVL38:
 249:Core/Src/main.c ****         MUX2_Select(ch); MUX1_Select(ch); short_delay(); 
 570              		.loc 1 249 43 discriminator 2 view .LVU134
 571 0030 FFF7FEFF 		bl	short_delay
 572              	.LVL39:
 250:Core/Src/main.c ****         if (HAL_ADC_PollForConversion(&hadc4, 1) == HAL_OK) buffer[ch] = HAL_ADC_GetValue(&hadc4);
 573              		.loc 1 250 9 view .LVU135
 574 0034 254D     		ldr	r5, .L53+8
 575 0036 2846     		mov	r0, r5
 576 0038 FFF7FEFF 		bl	HAL_ADC_Start
 577              	.LVL40:
 250:Core/Src/main.c ****         if (HAL_ADC_PollForConversion(&hadc4, 1) == HAL_OK) buffer[ch] = HAL_ADC_GetValue(&hadc4);
 578              		.loc 1 250 32 discriminator 1 view .LVU136
 579 003c 2148     		ldr	r0, .L53
 580 003e FFF7FEFF 		bl	HAL_ADC_Start
 581              	.LVL41:
 250:Core/Src/main.c ****         if (HAL_ADC_PollForConversion(&hadc4, 1) == HAL_OK) buffer[ch] = HAL_ADC_GetValue(&hadc4);
 582              		.loc 1 250 55 discriminator 2 view .LVU137
 583 0042 2148     		ldr	r0, .L53+4
 584 0044 FFF7FEFF 		bl	HAL_ADC_Start
 585              	.LVL42:
 251:Core/Src/main.c ****         if (HAL_ADC_PollForConversion(&hadc3, 1) == HAL_OK) {
 586              		.loc 1 251 9 view .LVU138
 251:Core/Src/main.c ****         if (HAL_ADC_PollForConversion(&hadc3, 1) == HAL_OK) {
 587              		.loc 1 251 13 is_stmt 0 view .LVU139
 588 0048 0121     		movs	r1, #1
 589 004a 2846     		mov	r0, r5
 590 004c FFF7FEFF 		bl	HAL_ADC_PollForConversion
 591              	.LVL43:
 251:Core/Src/main.c ****         if (HAL_ADC_PollForConversion(&hadc3, 1) == HAL_OK) {
 592              		.loc 1 251 12 discriminator 1 view .LVU140
 593 0050 0028     		cmp	r0, #0
 594 0052 D9D1     		bne	.L36
 251:Core/Src/main.c ****         if (HAL_ADC_PollForConversion(&hadc3, 1) == HAL_OK) {
 595              		.loc 1 251 61 is_stmt 1 discriminator 2 view .LVU141
 251:Core/Src/main.c ****         if (HAL_ADC_PollForConversion(&hadc3, 1) == HAL_OK) {
 596              		.loc 1 251 74 is_stmt 0 discriminator 2 view .LVU142
 597 0054 2846     		mov	r0, r5
 598 0056 FFF7FEFF 		bl	HAL_ADC_GetValue
 599              	.LVL44:
 251:Core/Src/main.c ****         if (HAL_ADC_PollForConversion(&hadc3, 1) == HAL_OK) {
 600              		.loc 1 251 72 discriminator 3 view .LVU143
 601 005a 26F81400 		strh	r0, [r6, r4, lsl #1]	@ movhi
 602 005e D3E7     		b	.L36
 603              	.L50:
 604              	.LBB12:
 253:Core/Src/main.c ****             if (ch < 4) buffer[ch + 8] = val; else if (ch == 7) buffer[12] = val; 
 605              		.loc 1 253 13 is_stmt 1 view .LVU144
 253:Core/Src/main.c ****             if (ch < 4) buffer[ch + 8] = val; else if (ch == 7) buffer[12] = val; 
 606              		.loc 1 253 28 is_stmt 0 view .LVU145
 607 0060 1848     		ldr	r0, .L53
 608 0062 FFF7FEFF 		bl	HAL_ADC_GetValue
ARM GAS  C:\Users\naoki\AppData\Local\Temp\ccaZtq1h.s 			page 17


 609              	.LVL45:
 253:Core/Src/main.c ****             if (ch < 4) buffer[ch + 8] = val; else if (ch == 7) buffer[12] = val; 
 610              		.loc 1 253 22 discriminator 1 view .LVU146
 611 0066 80B2     		uxth	r0, r0
 612              	.LVL46:
 254:Core/Src/main.c ****         }
 613              		.loc 1 254 13 is_stmt 1 view .LVU147
 254:Core/Src/main.c ****         }
 614              		.loc 1 254 16 is_stmt 0 view .LVU148
 615 0068 032C     		cmp	r4, #3
 616 006a 04DC     		bgt	.L38
 254:Core/Src/main.c ****         }
 617              		.loc 1 254 25 is_stmt 1 discriminator 1 view .LVU149
 254:Core/Src/main.c ****         }
 618              		.loc 1 254 35 is_stmt 0 discriminator 1 view .LVU150
 619 006c 04F10803 		add	r3, r4, #8
 254:Core/Src/main.c ****         }
 620              		.loc 1 254 40 discriminator 1 view .LVU151
 621 0070 26F81300 		strh	r0, [r6, r3, lsl #1]	@ movhi
 622 0074 CDE7     		b	.L37
 623              	.L38:
 254:Core/Src/main.c ****         }
 624              		.loc 1 254 52 is_stmt 1 discriminator 2 view .LVU152
 254:Core/Src/main.c ****         }
 625              		.loc 1 254 55 is_stmt 0 discriminator 2 view .LVU153
 626 0076 072C     		cmp	r4, #7
 627 0078 CBD1     		bne	.L37
 254:Core/Src/main.c ****         }
 628              		.loc 1 254 65 is_stmt 1 discriminator 3 view .LVU154
 254:Core/Src/main.c ****         }
 629              		.loc 1 254 76 is_stmt 0 discriminator 3 view .LVU155
 630 007a 3083     		strh	r0, [r6, #24]	@ movhi
 631 007c C9E7     		b	.L37
 632              	.LVL47:
 633              	.L51:
 254:Core/Src/main.c ****         }
 634              		.loc 1 254 76 discriminator 3 view .LVU156
 635              	.LBE12:
 636              	.LBB13:
 257:Core/Src/main.c ****             uint16_t val = HAL_ADC_GetValue(&hadc2);
 637              		.loc 1 257 13 is_stmt 1 view .LVU157
 638              		.loc 1 257 28 is_stmt 0 view .LVU158
 639 007e 1248     		ldr	r0, .L53+4
 640 0080 FFF7FEFF 		bl	HAL_ADC_GetValue
 641              	.LVL48:
 642              		.loc 1 257 22 discriminator 1 view .LVU159
 643 0084 80B2     		uxth	r0, r0
 644              	.LVL49:
 258:Core/Src/main.c ****             switch(ch) { 
 645              		.loc 1 258 13 is_stmt 1 view .LVU160
 646 0086 042C     		cmp	r4, #4
 647 0088 14D0     		beq	.L40
 648 008a 07DC     		bgt	.L41
 649 008c 022C     		cmp	r4, #2
 650 008e 15D0     		beq	.L42
 651 0090 032C     		cmp	r4, #3
 652 0092 11D0     		beq	.L43
ARM GAS  C:\Users\naoki\AppData\Local\Temp\ccaZtq1h.s 			page 18


 653 0094 012C     		cmp	r4, #1
 654 0096 C1D1     		bne	.L39
 259:Core/Src/main.c ****                 case 7: buffer[13]=val; break; case 6: buffer[14]=val; break; 
 260:Core/Src/main.c ****                 case 5: buffer[15]=val; break; case 4: buffer[16]=val; break; 
 261:Core/Src/main.c ****                 case 3: buffer[17]=val; break; case 2: buffer[18]=val; break; 
 262:Core/Src/main.c ****                 case 1: buffer[19]=val; break; 
 655              		.loc 1 262 25 view .LVU161
 656              		.loc 1 262 35 is_stmt 0 view .LVU162
 657 0098 F084     		strh	r0, [r6, #38]	@ movhi
 658              		.loc 1 262 41 is_stmt 1 view .LVU163
 659 009a BFE7     		b	.L39
 660              	.L41:
 258:Core/Src/main.c ****             switch(ch) { 
 661              		.loc 1 258 13 is_stmt 0 view .LVU164
 662 009c 062C     		cmp	r4, #6
 663 009e 07D0     		beq	.L45
 664 00a0 072C     		cmp	r4, #7
 665 00a2 03D0     		beq	.L46
 666 00a4 052C     		cmp	r4, #5
 667 00a6 B9D1     		bne	.L39
 260:Core/Src/main.c ****                 case 3: buffer[17]=val; break; case 2: buffer[18]=val; break; 
 668              		.loc 1 260 25 is_stmt 1 view .LVU165
 260:Core/Src/main.c ****                 case 3: buffer[17]=val; break; case 2: buffer[18]=val; break; 
 669              		.loc 1 260 35 is_stmt 0 view .LVU166
 670 00a8 F083     		strh	r0, [r6, #30]	@ movhi
 260:Core/Src/main.c ****                 case 3: buffer[17]=val; break; case 2: buffer[18]=val; break; 
 671              		.loc 1 260 41 is_stmt 1 view .LVU167
 672 00aa B7E7     		b	.L39
 673              	.L46:
 259:Core/Src/main.c ****                 case 7: buffer[13]=val; break; case 6: buffer[14]=val; break; 
 674              		.loc 1 259 25 view .LVU168
 259:Core/Src/main.c ****                 case 7: buffer[13]=val; break; case 6: buffer[14]=val; break; 
 675              		.loc 1 259 35 is_stmt 0 view .LVU169
 676 00ac 7083     		strh	r0, [r6, #26]	@ movhi
 259:Core/Src/main.c ****                 case 7: buffer[13]=val; break; case 6: buffer[14]=val; break; 
 677              		.loc 1 259 41 is_stmt 1 view .LVU170
 678 00ae B5E7     		b	.L39
 679              	.L45:
 259:Core/Src/main.c ****                 case 7: buffer[13]=val; break; case 6: buffer[14]=val; break; 
 680              		.loc 1 259 56 view .LVU171
 259:Core/Src/main.c ****                 case 7: buffer[13]=val; break; case 6: buffer[14]=val; break; 
 681              		.loc 1 259 66 is_stmt 0 view .LVU172
 682 00b0 B083     		strh	r0, [r6, #28]	@ movhi
 259:Core/Src/main.c ****                 case 7: buffer[13]=val; break; case 6: buffer[14]=val; break; 
 683              		.loc 1 259 72 is_stmt 1 view .LVU173
 684 00b2 B3E7     		b	.L39
 685              	.L40:
 260:Core/Src/main.c ****                 case 3: buffer[17]=val; break; case 2: buffer[18]=val; break; 
 686              		.loc 1 260 56 view .LVU174
 260:Core/Src/main.c ****                 case 3: buffer[17]=val; break; case 2: buffer[18]=val; break; 
 687              		.loc 1 260 66 is_stmt 0 view .LVU175
 688 00b4 3084     		strh	r0, [r6, #32]	@ movhi
 260:Core/Src/main.c ****                 case 3: buffer[17]=val; break; case 2: buffer[18]=val; break; 
 689              		.loc 1 260 72 is_stmt 1 view .LVU176
 690 00b6 B1E7     		b	.L39
 691              	.L43:
 261:Core/Src/main.c ****                 case 1: buffer[19]=val; break; 
ARM GAS  C:\Users\naoki\AppData\Local\Temp\ccaZtq1h.s 			page 19


 692              		.loc 1 261 25 view .LVU177
 261:Core/Src/main.c ****                 case 1: buffer[19]=val; break; 
 693              		.loc 1 261 35 is_stmt 0 view .LVU178
 694 00b8 7084     		strh	r0, [r6, #34]	@ movhi
 261:Core/Src/main.c ****                 case 1: buffer[19]=val; break; 
 695              		.loc 1 261 41 is_stmt 1 view .LVU179
 696 00ba AFE7     		b	.L39
 697              	.L42:
 261:Core/Src/main.c ****                 case 1: buffer[19]=val; break; 
 698              		.loc 1 261 56 view .LVU180
 261:Core/Src/main.c ****                 case 1: buffer[19]=val; break; 
 699              		.loc 1 261 66 is_stmt 0 view .LVU181
 700 00bc B084     		strh	r0, [r6, #36]	@ movhi
 261:Core/Src/main.c ****                 case 1: buffer[19]=val; break; 
 701              		.loc 1 261 72 is_stmt 1 view .LVU182
 702 00be ADE7     		b	.L39
 703              	.LVL50:
 704              	.L52:
 261:Core/Src/main.c ****                 case 1: buffer[19]=val; break; 
 705              		.loc 1 261 72 is_stmt 0 view .LVU183
 706              	.LBE13:
 707              	.LBE11:
 263:Core/Src/main.c ****             }
 264:Core/Src/main.c ****         }
 265:Core/Src/main.c ****     }
 266:Core/Src/main.c **** }
 708              		.loc 1 266 1 view .LVU184
 709 00c0 70BD     		pop	{r4, r5, r6, pc}
 710              	.LVL51:
 711              	.L54:
 712              		.loc 1 266 1 view .LVU185
 713 00c2 00BF     		.align	2
 714              	.L53:
 715 00c4 00000000 		.word	hadc3
 716 00c8 00000000 		.word	hadc2
 717 00cc 00000000 		.word	hadc4
 718              		.cfi_endproc
 719              	.LFE139:
 721              		.section	.rodata.Setup_Keys.str1.4,"aMS",%progbits,1
 722              		.align	2
 723              	.LC0:
 724 0000 04020308 		.ascii	"\004\002\003\010\007\013\006\005\012\011\017\016\010"
 724      070B0605 
 724      0A090F0E 
 724      08
 725 000d 0C0D1011 		.ascii	"\014\015\020\021\007\001\010\000"
 725      07010800 
 726              		.section	.text.Setup_Keys,"ax",%progbits
 727              		.align	1
 728              		.global	Setup_Keys
 729              		.syntax unified
 730              		.thumb
 731              		.thumb_func
 733              	Setup_Keys:
 734              	.LFB133:
 154:Core/Src/main.c ****     HAL_Delay(200);
 735              		.loc 1 154 23 is_stmt 1 view -0
ARM GAS  C:\Users\naoki\AppData\Local\Temp\ccaZtq1h.s 			page 20


 736              		.cfi_startproc
 737              		@ args = 0, pretend = 0, frame = 24
 738              		@ frame_needed = 0, uses_anonymous_args = 0
 739 0000 10B5     		push	{r4, lr}
 740              	.LCFI9:
 741              		.cfi_def_cfa_offset 8
 742              		.cfi_offset 4, -8
 743              		.cfi_offset 14, -4
 744 0002 86B0     		sub	sp, sp, #24
 745              	.LCFI10:
 746              		.cfi_def_cfa_offset 32
 155:Core/Src/main.c ****     scan_all_keys_fast(adc_raw_values);
 747              		.loc 1 155 5 view .LVU187
 748 0004 C820     		movs	r0, #200
 749 0006 FFF7FEFF 		bl	HAL_Delay
 750              	.LVL52:
 156:Core/Src/main.c ****     HAL_Delay(50);
 751              		.loc 1 156 5 view .LVU188
 752 000a 224C     		ldr	r4, .L59
 753 000c 2046     		mov	r0, r4
 754 000e FFF7FEFF 		bl	scan_all_keys_fast
 755              	.LVL53:
 157:Core/Src/main.c ****     scan_all_keys_fast(adc_raw_values);
 756              		.loc 1 157 5 view .LVU189
 757 0012 3220     		movs	r0, #50
 758 0014 FFF7FEFF 		bl	HAL_Delay
 759              	.LVL54:
 158:Core/Src/main.c **** 
 760              		.loc 1 158 5 view .LVU190
 761 0018 2046     		mov	r0, r4
 762 001a FFF7FEFF 		bl	scan_all_keys_fast
 763              	.LVL55:
 160:Core/Src/main.c ****         key_states[i].resting_val = adc_raw_values[i];
 764              		.loc 1 160 5 view .LVU191
 765              	.LBB14:
 160:Core/Src/main.c ****         key_states[i].resting_val = adc_raw_values[i];
 766              		.loc 1 160 9 view .LVU192
 160:Core/Src/main.c ****         key_states[i].resting_val = adc_raw_values[i];
 767              		.loc 1 160 13 is_stmt 0 view .LVU193
 768 001e 0022     		movs	r2, #0
 160:Core/Src/main.c ****         key_states[i].resting_val = adc_raw_values[i];
 769              		.loc 1 160 5 view .LVU194
 770 0020 1BE0     		b	.L56
 771              	.LVL56:
 772              	.L57:
 161:Core/Src/main.c ****         key_states[i].max_diff = 200; 
 773              		.loc 1 161 9 is_stmt 1 view .LVU195
 161:Core/Src/main.c ****         key_states[i].max_diff = 200; 
 774              		.loc 1 161 51 is_stmt 0 view .LVU196
 775 0022 1C4B     		ldr	r3, .L59
 776 0024 33F812C0 		ldrh	ip, [r3, r2, lsl #1]
 161:Core/Src/main.c ****         key_states[i].max_diff = 200; 
 777              		.loc 1 161 35 view .LVU197
 778 0028 1B49     		ldr	r1, .L59+4
 779 002a 02EBC200 		add	r0, r2, r2, lsl #3
 780 002e 01EB8003 		add	r3, r1, r0, lsl #2
 781 0032 21F820C0 		strh	ip, [r1, r0, lsl #2]	@ movhi
ARM GAS  C:\Users\naoki\AppData\Local\Temp\ccaZtq1h.s 			page 21


 162:Core/Src/main.c ****         key_states[i].actuation_point = 1.2f;
 782              		.loc 1 162 9 is_stmt 1 view .LVU198
 162:Core/Src/main.c ****         key_states[i].actuation_point = 1.2f;
 783              		.loc 1 162 32 is_stmt 0 view .LVU199
 784 0036 C821     		movs	r1, #200
 785 0038 5980     		strh	r1, [r3, #2]	@ movhi
 163:Core/Src/main.c ****         key_states[i].rt_press = 0.5f;
 786              		.loc 1 163 9 is_stmt 1 view .LVU200
 163:Core/Src/main.c ****         key_states[i].rt_press = 0.5f;
 787              		.loc 1 163 39 is_stmt 0 view .LVU201
 788 003a 1849     		ldr	r1, .L59+8
 789 003c 1961     		str	r1, [r3, #16]	@ float
 164:Core/Src/main.c ****         key_states[i].rt_release = 0.5f;
 790              		.loc 1 164 9 is_stmt 1 view .LVU202
 164:Core/Src/main.c ****         key_states[i].rt_release = 0.5f;
 791              		.loc 1 164 32 is_stmt 0 view .LVU203
 792 003e 4FF07C51 		mov	r1, #1056964608
 793 0042 5961     		str	r1, [r3, #20]	@ float
 165:Core/Src/main.c ****         key_states[i].top_deadzone = 0.2f;
 794              		.loc 1 165 9 is_stmt 1 view .LVU204
 165:Core/Src/main.c ****         key_states[i].top_deadzone = 0.2f;
 795              		.loc 1 165 34 is_stmt 0 view .LVU205
 796 0044 9961     		str	r1, [r3, #24]	@ float
 166:Core/Src/main.c ****         key_states[i].bottom_deadzone = 0.1f;
 797              		.loc 1 166 9 is_stmt 1 view .LVU206
 166:Core/Src/main.c ****         key_states[i].bottom_deadzone = 0.1f;
 798              		.loc 1 166 36 is_stmt 0 view .LVU207
 799 0046 1649     		ldr	r1, .L59+12
 800 0048 D961     		str	r1, [r3, #28]	@ float
 167:Core/Src/main.c ****         key_states[i].is_pressed = false;
 801              		.loc 1 167 9 is_stmt 1 view .LVU208
 167:Core/Src/main.c ****         key_states[i].is_pressed = false;
 802              		.loc 1 167 39 is_stmt 0 view .LVU209
 803 004a 1649     		ldr	r1, .L59+16
 804 004c 1962     		str	r1, [r3, #32]	@ float
 168:Core/Src/main.c ****         key_states[i].anchor_mm = 0.0f;
 805              		.loc 1 168 9 is_stmt 1 view .LVU210
 168:Core/Src/main.c ****         key_states[i].anchor_mm = 0.0f;
 806              		.loc 1 168 34 is_stmt 0 view .LVU211
 807 004e 0021     		movs	r1, #0
 808 0050 1973     		strb	r1, [r3, #12]
 169:Core/Src/main.c ****         key_states[i].current_mm = 0.0f;
 809              		.loc 1 169 9 is_stmt 1 view .LVU212
 169:Core/Src/main.c ****         key_states[i].current_mm = 0.0f;
 810              		.loc 1 169 33 is_stmt 0 view .LVU213
 811 0052 0021     		movs	r1, #0
 812 0054 9960     		str	r1, [r3, #8]	@ float
 170:Core/Src/main.c ****     }
 813              		.loc 1 170 9 is_stmt 1 view .LVU214
 170:Core/Src/main.c ****     }
 814              		.loc 1 170 34 is_stmt 0 view .LVU215
 815 0056 5960     		str	r1, [r3, #4]	@ float
 160:Core/Src/main.c ****         key_states[i].resting_val = adc_raw_values[i];
 816              		.loc 1 160 32 is_stmt 1 discriminator 3 view .LVU216
 817 0058 0132     		adds	r2, r2, #1
 818              	.LVL57:
 819              	.L56:
ARM GAS  C:\Users\naoki\AppData\Local\Temp\ccaZtq1h.s 			page 22


 160:Core/Src/main.c ****         key_states[i].resting_val = adc_raw_values[i];
 820              		.loc 1 160 19 discriminator 1 view .LVU217
 821 005a 132A     		cmp	r2, #19
 822 005c E1DD     		ble	.L57
 823              	.LBE14:
 172:Core/Src/main.c ****     memset(custom_macros, 0, sizeof(custom_macros));
 824              		.loc 1 172 5 view .LVU218
 172:Core/Src/main.c ****     memset(custom_macros, 0, sizeof(custom_macros));
 825              		.loc 1 172 17 is_stmt 0 view .LVU219
 826 005e 0021     		movs	r1, #0
 827 0060 114B     		ldr	r3, .L59+20
 828 0062 1970     		strb	r1, [r3]
 173:Core/Src/main.c ****     
 829              		.loc 1 173 5 is_stmt 1 view .LVU220
 830 0064 2022     		movs	r2, #32
 831              	.LVL58:
 173:Core/Src/main.c ****     
 832              		.loc 1 173 5 is_stmt 0 view .LVU221
 833 0066 1148     		ldr	r0, .L59+24
 834 0068 FFF7FEFF 		bl	memset
 835              	.LVL59:
 175:Core/Src/main.c ****         BTN_RIGHT, BTN_DOWN, BTN_LEFT, BTN_R3, BTN_L3, BTN_GUIDE, BTN_BACK, BTN_START, 
 836              		.loc 1 175 5 is_stmt 1 view .LVU222
 175:Core/Src/main.c ****         BTN_RIGHT, BTN_DOWN, BTN_LEFT, BTN_R3, BTN_L3, BTN_GUIDE, BTN_BACK, BTN_START, 
 837              		.loc 1 175 13 is_stmt 0 view .LVU223
 838 006c 0DF1040C 		add	ip, sp, #4
 839 0070 0F4C     		ldr	r4, .L59+28
 840 0072 0FCC     		ldmia	r4!, {r0, r1, r2, r3}
 841 0074 ACE80F00 		stmia	ip!, {r0, r1, r2, r3}
 842 0078 2368     		ldr	r3, [r4]
 843 007a CCF80030 		str	r3, [ip]
 180:Core/Src/main.c **** }
 844              		.loc 1 180 5 is_stmt 1 view .LVU224
 845 007e 0D4C     		ldr	r4, .L59+32
 846 0080 0DF1040E 		add	lr, sp, #4
 847 0084 BEE80F00 		ldmia	lr!, {r0, r1, r2, r3}
 848 0088 0FC4     		stmia	r4!, {r0, r1, r2, r3}
 849 008a DEF80030 		ldr	r3, [lr]
 850 008e 2360     		str	r3, [r4]
 181:Core/Src/main.c **** 
 851              		.loc 1 181 1 is_stmt 0 view .LVU225
 852 0090 06B0     		add	sp, sp, #24
 853              	.LCFI11:
 854              		.cfi_def_cfa_offset 8
 855              		@ sp needed
 856 0092 10BD     		pop	{r4, pc}
 857              	.L60:
 858              		.align	2
 859              	.L59:
 860 0094 00000000 		.word	adc_raw_values
 861 0098 00000000 		.word	key_states
 862 009c 9A99993F 		.word	1067030938
 863 00a0 CDCC4C3E 		.word	1045220557
 864 00a4 CDCCCC3D 		.word	1036831949
 865 00a8 00000000 		.word	g_socd_mode
 866 00ac 00000000 		.word	custom_macros
 867 00b0 00000000 		.word	.LC0
ARM GAS  C:\Users\naoki\AppData\Local\Temp\ccaZtq1h.s 			page 23


 868 00b4 00000000 		.word	key_map
 869              		.cfi_endproc
 870              	.LFE133:
 872              		.section	.text.Process_Rapid_Trigger,"ax",%progbits
 873              		.align	1
 874              		.global	Process_Rapid_Trigger
 875              		.syntax unified
 876              		.thumb
 877              		.thumb_func
 879              	Process_Rapid_Trigger:
 880              	.LVL60:
 881              	.LFB140:
 267:Core/Src/main.c **** 
 268:Core/Src/main.c **** // --- ラピッドトリガー ---
 269:Core/Src/main.c **** void Process_Rapid_Trigger(int key_idx, uint16_t raw) {
 882              		.loc 1 269 55 is_stmt 1 view -0
 883              		.cfi_startproc
 884              		@ args = 0, pretend = 0, frame = 0
 885              		@ frame_needed = 0, uses_anonymous_args = 0
 886              		@ link register save eliminated.
 270:Core/Src/main.c ****     KeyState_t *k = &key_states[key_idx];
 887              		.loc 1 270 5 view .LVU227
 271:Core/Src/main.c ****     int diff = (int)raw - (int)k->resting_val;
 888              		.loc 1 271 5 view .LVU228
 889              		.loc 1 271 33 is_stmt 0 view .LVU229
 890 0000 00EBC002 		add	r2, r0, r0, lsl #3
 891 0004 5E4B     		ldr	r3, .L87
 892 0006 33F82230 		ldrh	r3, [r3, r2, lsl #2]
 893              		.loc 1 271 9 view .LVU230
 894 000a C91A     		subs	r1, r1, r3
 895              	.LVL61:
 272:Core/Src/main.c ****     uint16_t abs_diff = abs(diff);
 896              		.loc 1 272 5 is_stmt 1 view .LVU231
 897              		.loc 1 272 25 is_stmt 0 view .LVU232
 898 000c 0029     		cmp	r1, #0
 899 000e B8BF     		it	lt
 900 0010 4942     		rsblt	r1, r1, #0
 901              	.LVL62:
 902              		.loc 1 272 14 view .LVU233
 903 0012 89B2     		uxth	r1, r1
 904              	.LVL63:
 273:Core/Src/main.c **** 
 274:Core/Src/main.c ****     if (abs_diff < RAW_DEADZONE) abs_diff = 0;
 905              		.loc 1 274 5 is_stmt 1 view .LVU234
 906              		.loc 1 274 8 is_stmt 0 view .LVU235
 907 0014 3B29     		cmp	r1, #59
 908 0016 0AD9     		bls	.L77
 275:Core/Src/main.c ****     if (abs_diff > k->max_diff) k->max_diff = abs_diff;
 909              		.loc 1 275 5 is_stmt 1 view .LVU236
 910              		.loc 1 275 21 is_stmt 0 view .LVU237
 911 0018 594B     		ldr	r3, .L87
 912              	.LVL64:
 913              		.loc 1 275 21 view .LVU238
 914 001a 03EB8203 		add	r3, r3, r2, lsl #2
 915              	.LVL65:
 916              		.loc 1 275 21 view .LVU239
 917 001e 5B88     		ldrh	r3, [r3, #2]
ARM GAS  C:\Users\naoki\AppData\Local\Temp\ccaZtq1h.s 			page 24


 918              		.loc 1 275 8 view .LVU240
 919 0020 8B42     		cmp	r3, r1
 920 0022 05D2     		bcs	.L62
 921              		.loc 1 275 33 is_stmt 1 discriminator 1 view .LVU241
 922              		.loc 1 275 45 is_stmt 0 discriminator 1 view .LVU242
 923 0024 564B     		ldr	r3, .L87
 924              	.LVL66:
 925              		.loc 1 275 45 discriminator 1 view .LVU243
 926 0026 03EB8203 		add	r3, r3, r2, lsl #2
 927              	.LVL67:
 928              		.loc 1 275 45 discriminator 1 view .LVU244
 929 002a 5980     		strh	r1, [r3, #2]	@ movhi
 930 002c 00E0     		b	.L62
 931              	.LVL68:
 932              	.L77:
 274:Core/Src/main.c ****     if (abs_diff > k->max_diff) k->max_diff = abs_diff;
 933              		.loc 1 274 43 discriminator 1 view .LVU245
 934 002e 0021     		movs	r1, #0
 935              	.LVL69:
 936              	.L62:
 276:Core/Src/main.c **** 
 277:Core/Src/main.c ****     float norm = (float)abs_diff / (float)k->max_diff;
 937              		.loc 1 277 5 is_stmt 1 view .LVU246
 938              		.loc 1 277 18 is_stmt 0 view .LVU247
 939 0030 07EE901A 		vmov	s15, r1	@ int
 940 0034 F8EE677A 		vcvt.f32.u32	s15, s15
 941              		.loc 1 277 44 view .LVU248
 942 0038 00EBC002 		add	r2, r0, r0, lsl #3
 943              	.LVL70:
 944              		.loc 1 277 44 view .LVU249
 945 003c 504B     		ldr	r3, .L87
 946              	.LVL71:
 947              		.loc 1 277 44 view .LVU250
 948 003e 03EB8203 		add	r3, r3, r2, lsl #2
 949              	.LVL72:
 950              		.loc 1 277 44 view .LVU251
 951 0042 5B88     		ldrh	r3, [r3, #2]
 952 0044 06EE903A 		vmov	s13, r3	@ int
 953              		.loc 1 277 36 view .LVU252
 954 0048 F8EE666A 		vcvt.f32.u32	s13, s13
 955              		.loc 1 277 11 view .LVU253
 956 004c 87EEA67A 		vdiv.f32	s14, s15, s13
 957              	.LVL73:
 278:Core/Src/main.c ****     if (norm > 1.0f) norm = 1.0f;
 958              		.loc 1 278 5 is_stmt 1 view .LVU254
 959              		.loc 1 278 8 is_stmt 0 view .LVU255
 960 0050 F7EE007A 		vmov.f32	s15, #1.0e+0
 961 0054 B4EEE77A 		vcmpe.f32	s14, s15
 962 0058 F1EE10FA 		vmrs	APSR_nzcv, FPSCR
 963 005c 01DD     		ble	.L63
 964              		.loc 1 278 27 discriminator 1 view .LVU256
 965 005e B0EE677A 		vmov.f32	s14, s15
 966              	.LVL74:
 967              	.L63:
 279:Core/Src/main.c ****     
 280:Core/Src/main.c ****     float pos = norm * TRAVEL_DISTANCE_MM;
 968              		.loc 1 280 5 is_stmt 1 view .LVU257
ARM GAS  C:\Users\naoki\AppData\Local\Temp\ccaZtq1h.s 			page 25


 969              		.loc 1 280 11 is_stmt 0 view .LVU258
 970 0062 DFED487A 		vldr.32	s15, .L87+4
 971 0066 67EE277A 		vmul.f32	s15, s14, s15
 972              	.LVL75:
 281:Core/Src/main.c **** 
 282:Core/Src/main.c ****     if (pos < k->top_deadzone) pos = 0.0f;
 973              		.loc 1 282 5 is_stmt 1 view .LVU259
 974              		.loc 1 282 16 is_stmt 0 view .LVU260
 975 006a 00EBC002 		add	r2, r0, r0, lsl #3
 976 006e 444B     		ldr	r3, .L87
 977              	.LVL76:
 978              		.loc 1 282 16 view .LVU261
 979 0070 03EB8203 		add	r3, r3, r2, lsl #2
 980              	.LVL77:
 981              		.loc 1 282 16 view .LVU262
 982 0074 93ED077A 		vldr.32	s14, [r3, #28]
 983              	.LVL78:
 984              		.loc 1 282 8 view .LVU263
 985 0078 B4EEE77A 		vcmpe.f32	s14, s15
 986 007c F1EE10FA 		vmrs	APSR_nzcv, FPSCR
 987 0080 01DD     		ble	.L64
 988              		.loc 1 282 36 discriminator 1 view .LVU264
 989 0082 DFED417A 		vldr.32	s15, .L87+8
 990              	.LVL79:
 991              	.L64:
 283:Core/Src/main.c ****     k->current_mm = pos;
 992              		.loc 1 283 5 is_stmt 1 view .LVU265
 993              		.loc 1 283 19 is_stmt 0 view .LVU266
 994 0086 00EBC002 		add	r2, r0, r0, lsl #3
 995 008a 3D4B     		ldr	r3, .L87
 996              	.LVL80:
 997              		.loc 1 283 19 view .LVU267
 998 008c 03EB8203 		add	r3, r3, r2, lsl #2
 999              	.LVL81:
 1000              		.loc 1 283 19 view .LVU268
 1001 0090 C3ED017A 		vstr.32	s15, [r3, #4]
 284:Core/Src/main.c **** 
 285:Core/Src/main.c ****     bool in_bottom_zone = (pos > (TRAVEL_DISTANCE_MM - k->bottom_deadzone));
 1002              		.loc 1 285 5 is_stmt 1 view .LVU269
 1003              		.loc 1 285 57 is_stmt 0 view .LVU270
 1004 0094 D3ED086A 		vldr.32	s13, [r3, #32]
 1005              		.loc 1 285 54 view .LVU271
 1006 0098 9FED3A7A 		vldr.32	s14, .L87+4
 1007 009c 37EE667A 		vsub.f32	s14, s14, s13
 1008              	.LVL82:
 286:Core/Src/main.c **** 
 287:Core/Src/main.c ****     if (k->is_pressed) {
 1009              		.loc 1 287 5 is_stmt 1 view .LVU272
 1010              		.loc 1 287 10 is_stmt 0 view .LVU273
 1011 00a0 1B7B     		ldrb	r3, [r3, #12]	@ zero_extendqisi2
 1012              		.loc 1 287 8 view .LVU274
 1013 00a2 002B     		cmp	r3, #0
 1014 00a4 3DD0     		beq	.L65
 288:Core/Src/main.c ****         if (pos < (k->anchor_mm - k->rt_release)) {
 1015              		.loc 1 288 9 is_stmt 1 view .LVU275
 1016              		.loc 1 288 21 is_stmt 0 view .LVU276
 1017 00a6 364B     		ldr	r3, .L87
ARM GAS  C:\Users\naoki\AppData\Local\Temp\ccaZtq1h.s 			page 26


 1018              	.LVL83:
 1019              		.loc 1 288 21 view .LVU277
 1020 00a8 03EB8203 		add	r3, r3, r2, lsl #2
 1021              	.LVL84:
 1022              		.loc 1 288 21 view .LVU278
 1023 00ac 93ED026A 		vldr.32	s12, [r3, #8]
 1024              		.loc 1 288 36 view .LVU279
 1025 00b0 D3ED066A 		vldr.32	s13, [r3, #24]
 1026              		.loc 1 288 33 view .LVU280
 1027 00b4 76EE666A 		vsub.f32	s13, s12, s13
 1028              		.loc 1 288 12 view .LVU281
 1029 00b8 F4EEE76A 		vcmpe.f32	s13, s15
 1030 00bc F1EE10FA 		vmrs	APSR_nzcv, FPSCR
 1031 00c0 22DD     		ble	.L86
 289:Core/Src/main.c ****             if (!in_bottom_zone) { k->is_pressed = false; k->anchor_mm = pos; }
 1032              		.loc 1 289 13 is_stmt 1 view .LVU282
 1033              		.loc 1 289 16 is_stmt 0 view .LVU283
 1034 00c2 B4EEE77A 		vcmpe.f32	s14, s15
 1035 00c6 F1EE10FA 		vmrs	APSR_nzcv, FPSCR
 1036 00ca 15D4     		bmi	.L68
 1037              		.loc 1 289 36 is_stmt 1 discriminator 1 view .LVU284
 1038              		.loc 1 289 50 is_stmt 0 discriminator 1 view .LVU285
 1039 00cc 2C4B     		ldr	r3, .L87
 1040              	.LVL85:
 1041              		.loc 1 289 50 discriminator 1 view .LVU286
 1042 00ce 03EB8203 		add	r3, r3, r2, lsl #2
 1043              	.LVL86:
 1044              		.loc 1 289 50 discriminator 1 view .LVU287
 1045 00d2 0022     		movs	r2, #0
 1046 00d4 1A73     		strb	r2, [r3, #12]
 1047              		.loc 1 289 59 is_stmt 1 view .LVU288
 1048              		.loc 1 289 72 is_stmt 0 discriminator 1 view .LVU289
 1049 00d6 C3ED027A 		vstr.32	s15, [r3, #8]
 1050              	.L69:
 290:Core/Src/main.c ****             else { k->anchor_mm = pos; }
 291:Core/Src/main.c ****         } 
 292:Core/Src/main.c ****         else if (pos > k->anchor_mm) { k->anchor_mm = pos; }
 293:Core/Src/main.c ****         if (pos <= 0.1f) k->is_pressed = false; 
 1051              		.loc 1 293 9 is_stmt 1 view .LVU290
 1052              		.loc 1 293 12 is_stmt 0 view .LVU291
 1053 00da 9FED2C7A 		vldr.32	s14, .L87+12
 1054              	.LVL87:
 1055              		.loc 1 293 12 view .LVU292
 1056 00de F4EEC77A 		vcmpe.f32	s15, s14
 1057 00e2 F1EE10FA 		vmrs	APSR_nzcv, FPSCR
 1058 00e6 4AD8     		bhi	.L61
 1059              		.loc 1 293 26 is_stmt 1 discriminator 1 view .LVU293
 1060              		.loc 1 293 40 is_stmt 0 discriminator 1 view .LVU294
 1061 00e8 00EBC000 		add	r0, r0, r0, lsl #3
 1062              	.LVL88:
 1063              		.loc 1 293 40 discriminator 1 view .LVU295
 1064 00ec 244B     		ldr	r3, .L87
 1065              	.LVL89:
 1066              		.loc 1 293 40 discriminator 1 view .LVU296
 1067 00ee 03EB8000 		add	r0, r3, r0, lsl #2
 1068 00f2 0023     		movs	r3, #0
 1069              	.LVL90:
ARM GAS  C:\Users\naoki\AppData\Local\Temp\ccaZtq1h.s 			page 27


 1070              		.loc 1 293 40 discriminator 1 view .LVU297
 1071 00f4 0373     		strb	r3, [r0, #12]
 1072 00f6 7047     		bx	lr
 1073              	.LVL91:
 1074              	.L68:
 290:Core/Src/main.c ****             else { k->anchor_mm = pos; }
 1075              		.loc 1 290 20 is_stmt 1 view .LVU298
 290:Core/Src/main.c ****             else { k->anchor_mm = pos; }
 1076              		.loc 1 290 33 is_stmt 0 view .LVU299
 1077 00f8 00EBC002 		add	r2, r0, r0, lsl #3
 1078 00fc 204B     		ldr	r3, .L87
 1079              	.LVL92:
 290:Core/Src/main.c ****             else { k->anchor_mm = pos; }
 1080              		.loc 1 290 33 view .LVU300
 1081 00fe 03EB8203 		add	r3, r3, r2, lsl #2
 1082              	.LVL93:
 290:Core/Src/main.c ****             else { k->anchor_mm = pos; }
 1083              		.loc 1 290 33 view .LVU301
 1084 0102 C3ED027A 		vstr.32	s15, [r3, #8]
 1085 0106 E8E7     		b	.L69
 1086              	.L86:
 292:Core/Src/main.c ****         if (pos <= 0.1f) k->is_pressed = false; 
 1087              		.loc 1 292 14 is_stmt 1 view .LVU302
 292:Core/Src/main.c ****         if (pos <= 0.1f) k->is_pressed = false; 
 1088              		.loc 1 292 17 is_stmt 0 view .LVU303
 1089 0108 B4EEE76A 		vcmpe.f32	s12, s15
 1090 010c F1EE10FA 		vmrs	APSR_nzcv, FPSCR
 1091 0110 E3D5     		bpl	.L69
 292:Core/Src/main.c ****         if (pos <= 0.1f) k->is_pressed = false; 
 1092              		.loc 1 292 40 is_stmt 1 discriminator 1 view .LVU304
 292:Core/Src/main.c ****         if (pos <= 0.1f) k->is_pressed = false; 
 1093              		.loc 1 292 53 is_stmt 0 discriminator 1 view .LVU305
 1094 0112 00EBC002 		add	r2, r0, r0, lsl #3
 1095 0116 1A4B     		ldr	r3, .L87
 1096              	.LVL94:
 292:Core/Src/main.c ****         if (pos <= 0.1f) k->is_pressed = false; 
 1097              		.loc 1 292 53 discriminator 1 view .LVU306
 1098 0118 03EB8203 		add	r3, r3, r2, lsl #2
 1099              	.LVL95:
 292:Core/Src/main.c ****         if (pos <= 0.1f) k->is_pressed = false; 
 1100              		.loc 1 292 53 discriminator 1 view .LVU307
 1101 011c C3ED027A 		vstr.32	s15, [r3, #8]
 1102 0120 DBE7     		b	.L69
 1103              	.L65:
 294:Core/Src/main.c ****     } else {
 295:Core/Src/main.c ****         if (pos > (k->anchor_mm + k->rt_press) && pos >= k->actuation_point) { k->is_pressed = true
 1104              		.loc 1 295 9 is_stmt 1 view .LVU308
 1105              		.loc 1 295 21 is_stmt 0 view .LVU309
 1106 0122 00EBC002 		add	r2, r0, r0, lsl #3
 1107 0126 164B     		ldr	r3, .L87
 1108              	.LVL96:
 1109              		.loc 1 295 21 view .LVU310
 1110 0128 03EB8203 		add	r3, r3, r2, lsl #2
 1111              	.LVL97:
 1112              		.loc 1 295 21 view .LVU311
 1113 012c D3ED026A 		vldr.32	s13, [r3, #8]
 1114              		.loc 1 295 36 view .LVU312
ARM GAS  C:\Users\naoki\AppData\Local\Temp\ccaZtq1h.s 			page 28


 1115 0130 93ED057A 		vldr.32	s14, [r3, #20]
 1116              	.LVL98:
 1117              		.loc 1 295 33 view .LVU313
 1118 0134 36EE877A 		vadd.f32	s14, s13, s14
 1119              		.loc 1 295 12 view .LVU314
 1120 0138 B4EEE77A 		vcmpe.f32	s14, s15
 1121 013c F1EE10FA 		vmrs	APSR_nzcv, FPSCR
 1122 0140 11D5     		bpl	.L73
 1123              		.loc 1 295 59 discriminator 1 view .LVU315
 1124 0142 0F4B     		ldr	r3, .L87
 1125              	.LVL99:
 1126              		.loc 1 295 59 discriminator 1 view .LVU316
 1127 0144 03EB8203 		add	r3, r3, r2, lsl #2
 1128              	.LVL100:
 1129              		.loc 1 295 59 discriminator 1 view .LVU317
 1130 0148 93ED047A 		vldr.32	s14, [r3, #16]
 1131              		.loc 1 295 48 discriminator 1 view .LVU318
 1132 014c B4EEE77A 		vcmpe.f32	s14, s15
 1133 0150 F1EE10FA 		vmrs	APSR_nzcv, FPSCR
 1134 0154 07D8     		bhi	.L73
 1135              		.loc 1 295 80 is_stmt 1 discriminator 2 view .LVU319
 1136              		.loc 1 295 94 is_stmt 0 discriminator 2 view .LVU320
 1137 0156 0A4B     		ldr	r3, .L87
 1138              	.LVL101:
 1139              		.loc 1 295 94 discriminator 2 view .LVU321
 1140 0158 03EB8202 		add	r2, r3, r2, lsl #2
 1141 015c 0121     		movs	r1, #1
 1142 015e 1173     		strb	r1, [r2, #12]
 1143              		.loc 1 295 102 is_stmt 1 view .LVU322
 1144              		.loc 1 295 115 is_stmt 0 discriminator 2 view .LVU323
 1145 0160 C2ED027A 		vstr.32	s15, [r2, #8]
 1146              		.loc 1 295 115 view .LVU324
 1147 0164 7047     		bx	lr
 1148              	.LVL102:
 1149              	.L73:
 296:Core/Src/main.c ****         else if (pos < k->anchor_mm) { k->anchor_mm = pos; }
 1150              		.loc 1 296 14 is_stmt 1 view .LVU325
 1151              		.loc 1 296 17 is_stmt 0 view .LVU326
 1152 0166 F4EEE76A 		vcmpe.f32	s13, s15
 1153 016a F1EE10FA 		vmrs	APSR_nzcv, FPSCR
 1154 016e 06DD     		ble	.L61
 1155              		.loc 1 296 40 is_stmt 1 discriminator 1 view .LVU327
 1156              		.loc 1 296 53 is_stmt 0 discriminator 1 view .LVU328
 1157 0170 00EBC000 		add	r0, r0, r0, lsl #3
 1158              	.LVL103:
 1159              		.loc 1 296 53 discriminator 1 view .LVU329
 1160 0174 024B     		ldr	r3, .L87
 1161              	.LVL104:
 1162              		.loc 1 296 53 discriminator 1 view .LVU330
 1163 0176 03EB8003 		add	r3, r3, r0, lsl #2
 1164              	.LVL105:
 1165              		.loc 1 296 53 discriminator 1 view .LVU331
 1166 017a C3ED027A 		vstr.32	s15, [r3, #8]
 1167              	.L61:
 297:Core/Src/main.c ****     }
 298:Core/Src/main.c **** }
 1168              		.loc 1 298 1 view .LVU332
ARM GAS  C:\Users\naoki\AppData\Local\Temp\ccaZtq1h.s 			page 29


 1169 017e 7047     		bx	lr
 1170              	.L88:
 1171              		.align	2
 1172              	.L87:
 1173 0180 00000000 		.word	key_states
 1174 0184 CDCC4C40 		.word	1078774989
 1175 0188 00000000 		.word	0
 1176 018c CDCCCC3D 		.word	1036831949
 1177              		.cfi_endproc
 1178              	.LFE140:
 1180              		.section	.text.Send_Reports,"ax",%progbits
 1181              		.align	1
 1182              		.global	Send_Reports
 1183              		.syntax unified
 1184              		.thumb
 1185              		.thumb_func
 1187              	Send_Reports:
 1188              	.LFB141:
 299:Core/Src/main.c **** 
 300:Core/Src/main.c **** // --- レポート送信 (マクロ修正版) ---
 301:Core/Src/main.c **** void Send_Reports(void) {
 1189              		.loc 1 301 25 is_stmt 1 view -0
 1190              		.cfi_startproc
 1191              		@ args = 0, pretend = 0, frame = 24
 1192              		@ frame_needed = 0, uses_anonymous_args = 0
 1193 0000 2DE9F043 		push	{r4, r5, r6, r7, r8, r9, lr}
 1194              	.LCFI12:
 1195              		.cfi_def_cfa_offset 28
 1196              		.cfi_offset 4, -28
 1197              		.cfi_offset 5, -24
 1198              		.cfi_offset 6, -20
 1199              		.cfi_offset 7, -16
 1200              		.cfi_offset 8, -12
 1201              		.cfi_offset 9, -8
 1202              		.cfi_offset 14, -4
 1203 0004 87B0     		sub	sp, sp, #28
 1204              	.LCFI13:
 1205              		.cfi_def_cfa_offset 56
 302:Core/Src/main.c ****     static XInputReport_t prev_report = {0};
 1206              		.loc 1 302 5 view .LVU334
 303:Core/Src/main.c ****     XInputReport_t report = {0};
 1207              		.loc 1 303 5 view .LVU335
 1208              		.loc 1 303 20 is_stmt 0 view .LVU336
 1209 0006 0020     		movs	r0, #0
 1210 0008 0190     		str	r0, [sp, #4]
 1211 000a 0290     		str	r0, [sp, #8]
 1212 000c 0390     		str	r0, [sp, #12]
 1213 000e 0490     		str	r0, [sp, #16]
 1214 0010 0590     		str	r0, [sp, #20]
 304:Core/Src/main.c ****     report.msg_type = 0x00;
 1215              		.loc 1 304 5 is_stmt 1 view .LVU337
 305:Core/Src/main.c ****     report.pkt_size = 0x14;
 1216              		.loc 1 305 5 view .LVU338
 1217              		.loc 1 305 21 is_stmt 0 view .LVU339
 1218 0012 1423     		movs	r3, #20
 1219 0014 8DF80530 		strb	r3, [sp, #5]
 306:Core/Src/main.c **** 
ARM GAS  C:\Users\naoki\AppData\Local\Temp\ccaZtq1h.s 			page 30


 307:Core/Src/main.c ****     uint16_t btns_mask = 0;
 1220              		.loc 1 307 5 is_stmt 1 view .LVU340
 1221              	.LVL106:
 308:Core/Src/main.c ****     uint8_t trigger_l = 0;
 1222              		.loc 1 308 5 view .LVU341
 309:Core/Src/main.c ****     uint8_t trigger_r = 0;
 1223              		.loc 1 309 5 view .LVU342
 310:Core/Src/main.c ****     bool up=false, down=false, left=false, right=false;
 1224              		.loc 1 310 5 view .LVU343
 311:Core/Src/main.c **** 
 312:Core/Src/main.c ****     for(int i = 0; i < KEY_COUNT; i++) {
 1225              		.loc 1 312 5 view .LVU344
 1226              	.LBB15:
 1227              		.loc 1 312 9 view .LVU345
 1228              		.loc 1 312 13 is_stmt 0 view .LVU346
 1229 0018 0346     		mov	r3, r0
 1230              	.LBE15:
 310:Core/Src/main.c ****     bool up=false, down=false, left=false, right=false;
 1231              		.loc 1 310 44 view .LVU347
 1232 001a 8646     		mov	lr, r0
 310:Core/Src/main.c ****     bool up=false, down=false, left=false, right=false;
 1233              		.loc 1 310 32 view .LVU348
 1234 001c 0546     		mov	r5, r0
 310:Core/Src/main.c ****     bool up=false, down=false, left=false, right=false;
 1235              		.loc 1 310 20 view .LVU349
 1236 001e 8446     		mov	ip, r0
 310:Core/Src/main.c ****     bool up=false, down=false, left=false, right=false;
 1237              		.loc 1 310 10 view .LVU350
 1238 0020 0446     		mov	r4, r0
 309:Core/Src/main.c ****     bool up=false, down=false, left=false, right=false;
 1239              		.loc 1 309 13 view .LVU351
 1240 0022 0646     		mov	r6, r0
 308:Core/Src/main.c ****     uint8_t trigger_r = 0;
 1241              		.loc 1 308 13 view .LVU352
 1242 0024 0746     		mov	r7, r0
 1243              	.LBB19:
 1244              		.loc 1 312 5 view .LVU353
 1245 0026 12E0     		b	.L90
 1246              	.LVL107:
 1247              	.L92:
 1248              	.LBB16:
 313:Core/Src/main.c ****         if (key_states[i].is_pressed) {
 314:Core/Src/main.c ****             uint8_t id = key_map[i];
 315:Core/Src/main.c ****             
 316:Core/Src/main.c ****             // マクロ処理 (ID 50-57)
 317:Core/Src/main.c ****             if (id >= 50 && id < 50 + MAX_MACROS) {
 318:Core/Src/main.c ****                 uint32_t m = custom_macros[id - 50];
 319:Core/Src/main.c ****                 // 下位16bitがボタンマスク
 320:Core/Src/main.c ****                 uint16_t m_btns = (m & 0xFFFF);
 321:Core/Src/main.c ****                 // 次の8bitがLT, その次がRT
 322:Core/Src/main.c ****                 uint8_t m_lt = (m >> 8) & 0xFF; // ★修正: シフト量を修正
 323:Core/Src/main.c ****                 uint8_t m_rt = (m >> 16) & 0xFF;
 324:Core/Src/main.c **** 
 325:Core/Src/main.c ****                 // ★修正: ビットマスクを直接OR演算
 326:Core/Src/main.c ****                 btns_mask |= m_btns;
 327:Core/Src/main.c ****                 
 328:Core/Src/main.c ****                 // トリガーは最大値を採用
ARM GAS  C:\Users\naoki\AppData\Local\Temp\ccaZtq1h.s 			page 31


 329:Core/Src/main.c ****                 if (m_lt) trigger_l = 255;
 330:Core/Src/main.c ****                 if (m_rt) trigger_r = 255;
 331:Core/Src/main.c **** 
 332:Core/Src/main.c ****                 // 方向キーの状態を更新 (SOCD用)
 333:Core/Src/main.c ****                 if (m_btns & XINPUT_DPAD_UP) up = true;
 334:Core/Src/main.c ****                 if (m_btns & XINPUT_DPAD_DOWN) down = true;
 335:Core/Src/main.c ****                 if (m_btns & XINPUT_DPAD_LEFT) left = true;
 336:Core/Src/main.c ****                 if (m_btns & XINPUT_DPAD_RIGHT) right = true;
 337:Core/Src/main.c ****             }
 338:Core/Src/main.c ****             else {
 339:Core/Src/main.c ****                 switch(id) {
 1249              		.loc 1 339 17 is_stmt 1 view .LVU354
 1250 0028 092A     		cmp	r2, #9
 1251 002a 74D0     		beq	.L98
 1252 002c 4FD8     		bhi	.L99
 1253 002e 052A     		cmp	r2, #5
 1254 0030 68D0     		beq	.L100
 1255 0032 43D8     		bhi	.L101
 1256 0034 032A     		cmp	r2, #3
 1257 0036 7AD0     		beq	.L139
 1258 0038 05D8     		bhi	.L102
 1259 003a 012A     		cmp	r2, #1
 1260 003c 79D0     		beq	.L140
 1261 003e 022A     		cmp	r2, #2
 1262 0040 04D1     		bne	.L91
 340:Core/Src/main.c ****                     case BTN_UP:    up=true; break;
 341:Core/Src/main.c ****                     case BTN_DOWN:  down=true; break;
 1263              		.loc 1 341 41 is_stmt 0 view .LVU355
 1264 0042 8C46     		mov	ip, r1
 1265              	.LVL108:
 1266              		.loc 1 341 41 view .LVU356
 1267 0044 02E0     		b	.L91
 1268              	.LVL109:
 1269              	.L102:
 339:Core/Src/main.c ****                     case BTN_UP:    up=true; break;
 1270              		.loc 1 339 17 view .LVU357
 1271 0046 042A     		cmp	r2, #4
 1272 0048 00D1     		bne	.L91
 342:Core/Src/main.c ****                     case BTN_LEFT:  left=true; break;
 343:Core/Src/main.c ****                     case BTN_RIGHT: right=true; break;
 1273              		.loc 1 343 42 view .LVU358
 1274 004a 8E46     		mov	lr, r1
 1275              	.LVL110:
 1276              	.L91:
 1277              		.loc 1 343 42 view .LVU359
 1278              	.LBE16:
 312:Core/Src/main.c ****         if (key_states[i].is_pressed) {
 1279              		.loc 1 312 36 is_stmt 1 discriminator 2 view .LVU360
 1280 004c 0133     		adds	r3, r3, #1
 1281              	.LVL111:
 1282              	.L90:
 312:Core/Src/main.c ****         if (key_states[i].is_pressed) {
 1283              		.loc 1 312 22 discriminator 1 view .LVU361
 1284 004e 132B     		cmp	r3, #19
 1285 0050 75DC     		bgt	.L144
 313:Core/Src/main.c ****             uint8_t id = key_map[i];
 1286              		.loc 1 313 9 view .LVU362
ARM GAS  C:\Users\naoki\AppData\Local\Temp\ccaZtq1h.s 			page 32


 313:Core/Src/main.c ****             uint8_t id = key_map[i];
 1287              		.loc 1 313 26 is_stmt 0 view .LVU363
 1288 0052 03EBC301 		add	r1, r3, r3, lsl #3
 1289 0056 8B4A     		ldr	r2, .L151
 1290 0058 02EB8102 		add	r2, r2, r1, lsl #2
 1291 005c 117B     		ldrb	r1, [r2, #12]	@ zero_extendqisi2
 313:Core/Src/main.c ****             uint8_t id = key_map[i];
 1292              		.loc 1 313 12 view .LVU364
 1293 005e 0029     		cmp	r1, #0
 1294 0060 F4D0     		beq	.L91
 1295              	.LBB18:
 314:Core/Src/main.c ****             
 1296              		.loc 1 314 13 is_stmt 1 view .LVU365
 314:Core/Src/main.c ****             
 1297              		.loc 1 314 21 is_stmt 0 view .LVU366
 1298 0062 894A     		ldr	r2, .L151+4
 1299 0064 D25C     		ldrb	r2, [r2, r3]	@ zero_extendqisi2
 1300              	.LVL112:
 317:Core/Src/main.c ****                 uint32_t m = custom_macros[id - 50];
 1301              		.loc 1 317 13 is_stmt 1 view .LVU367
 317:Core/Src/main.c ****                 uint32_t m = custom_macros[id - 50];
 1302              		.loc 1 317 26 is_stmt 0 view .LVU368
 1303 0066 A2F13208 		sub	r8, r2, #50
 1304 006a 5FFA88F8 		uxtb	r8, r8
 317:Core/Src/main.c ****                 uint32_t m = custom_macros[id - 50];
 1305              		.loc 1 317 16 view .LVU369
 1306 006e B8F1070F 		cmp	r8, #7
 1307 0072 D9D8     		bhi	.L92
 1308              	.LBB17:
 318:Core/Src/main.c ****                 // 下位16bitがボタンマスク
 1309              		.loc 1 318 17 is_stmt 1 view .LVU370
 318:Core/Src/main.c ****                 // 下位16bitがボタンマスク
 1310              		.loc 1 318 47 is_stmt 0 view .LVU371
 1311 0074 323A     		subs	r2, r2, #50
 1312              	.LVL113:
 318:Core/Src/main.c ****                 // 下位16bitがボタンマスク
 1313              		.loc 1 318 26 view .LVU372
 1314 0076 DFF83882 		ldr	r8, .L151+44
 1315 007a 58F82220 		ldr	r2, [r8, r2, lsl #2]
 1316              	.LVL114:
 320:Core/Src/main.c ****                 // 次の8bitがLT, その次がRT
 1317              		.loc 1 320 17 is_stmt 1 view .LVU373
 320:Core/Src/main.c ****                 // 次の8bitがLT, その次がRT
 1318              		.loc 1 320 26 is_stmt 0 view .LVU374
 1319 007e 1FFA82F9 		uxth	r9, r2
 1320              	.LVL115:
 322:Core/Src/main.c ****                 uint8_t m_rt = (m >> 16) & 0xFF;
 1321              		.loc 1 322 17 is_stmt 1 view .LVU375
 323:Core/Src/main.c **** 
 1322              		.loc 1 323 17 view .LVU376
 323:Core/Src/main.c **** 
 1323              		.loc 1 323 25 is_stmt 0 view .LVU377
 1324 0082 C2F30748 		ubfx	r8, r2, #16, #8
 1325              	.LVL116:
 326:Core/Src/main.c ****                 
 1326              		.loc 1 326 17 is_stmt 1 view .LVU378
 326:Core/Src/main.c ****                 
ARM GAS  C:\Users\naoki\AppData\Local\Temp\ccaZtq1h.s 			page 33


 1327              		.loc 1 326 27 is_stmt 0 view .LVU379
 1328 0086 40EA0900 		orr	r0, r0, r9
 1329              	.LVL117:
 329:Core/Src/main.c ****                 if (m_rt) trigger_r = 255;
 1330              		.loc 1 329 17 is_stmt 1 view .LVU380
 329:Core/Src/main.c ****                 if (m_rt) trigger_r = 255;
 1331              		.loc 1 329 20 is_stmt 0 view .LVU381
 1332 008a 12F47F4F 		tst	r2, #65280
 1333 008e 00D0     		beq	.L93
 329:Core/Src/main.c ****                 if (m_rt) trigger_r = 255;
 1334              		.loc 1 329 37 discriminator 1 view .LVU382
 1335 0090 FF27     		movs	r7, #255
 1336              	.LVL118:
 1337              	.L93:
 330:Core/Src/main.c **** 
 1338              		.loc 1 330 17 is_stmt 1 view .LVU383
 330:Core/Src/main.c **** 
 1339              		.loc 1 330 20 is_stmt 0 view .LVU384
 1340 0092 B8F1000F 		cmp	r8, #0
 1341 0096 00D0     		beq	.L94
 330:Core/Src/main.c **** 
 1342              		.loc 1 330 37 discriminator 1 view .LVU385
 1343 0098 FF26     		movs	r6, #255
 1344              	.LVL119:
 1345              	.L94:
 333:Core/Src/main.c ****                 if (m_btns & XINPUT_DPAD_DOWN) down = true;
 1346              		.loc 1 333 17 is_stmt 1 view .LVU386
 333:Core/Src/main.c ****                 if (m_btns & XINPUT_DPAD_DOWN) down = true;
 1347              		.loc 1 333 20 is_stmt 0 view .LVU387
 1348 009a 12F0010F 		tst	r2, #1
 1349 009e 00D0     		beq	.L95
 333:Core/Src/main.c ****                 if (m_btns & XINPUT_DPAD_DOWN) down = true;
 1350              		.loc 1 333 49 discriminator 1 view .LVU388
 1351 00a0 0C46     		mov	r4, r1
 1352              	.LVL120:
 1353              	.L95:
 334:Core/Src/main.c ****                 if (m_btns & XINPUT_DPAD_LEFT) left = true;
 1354              		.loc 1 334 17 is_stmt 1 view .LVU389
 334:Core/Src/main.c ****                 if (m_btns & XINPUT_DPAD_LEFT) left = true;
 1355              		.loc 1 334 20 is_stmt 0 view .LVU390
 1356 00a2 12F0020F 		tst	r2, #2
 1357 00a6 00D0     		beq	.L96
 334:Core/Src/main.c ****                 if (m_btns & XINPUT_DPAD_LEFT) left = true;
 1358              		.loc 1 334 53 discriminator 1 view .LVU391
 1359 00a8 8C46     		mov	ip, r1
 1360              	.LVL121:
 1361              	.L96:
 335:Core/Src/main.c ****                 if (m_btns & XINPUT_DPAD_RIGHT) right = true;
 1362              		.loc 1 335 17 is_stmt 1 view .LVU392
 335:Core/Src/main.c ****                 if (m_btns & XINPUT_DPAD_RIGHT) right = true;
 1363              		.loc 1 335 20 is_stmt 0 view .LVU393
 1364 00aa 12F0040F 		tst	r2, #4
 1365 00ae 00D0     		beq	.L97
 335:Core/Src/main.c ****                 if (m_btns & XINPUT_DPAD_RIGHT) right = true;
 1366              		.loc 1 335 53 discriminator 1 view .LVU394
 1367 00b0 0D46     		mov	r5, r1
 1368              	.LVL122:
ARM GAS  C:\Users\naoki\AppData\Local\Temp\ccaZtq1h.s 			page 34


 1369              	.L97:
 336:Core/Src/main.c ****             }
 1370              		.loc 1 336 17 is_stmt 1 view .LVU395
 336:Core/Src/main.c ****             }
 1371              		.loc 1 336 20 is_stmt 0 view .LVU396
 1372 00b2 12F0080F 		tst	r2, #8
 1373 00b6 C9D0     		beq	.L91
 336:Core/Src/main.c ****             }
 1374              		.loc 1 336 55 discriminator 1 view .LVU397
 1375 00b8 8E46     		mov	lr, r1
 1376              	.LVL123:
 336:Core/Src/main.c ****             }
 1377              		.loc 1 336 55 discriminator 1 view .LVU398
 1378 00ba C7E7     		b	.L91
 1379              	.LVL124:
 1380              	.L101:
 336:Core/Src/main.c ****             }
 1381              		.loc 1 336 55 discriminator 1 view .LVU399
 1382              	.LBE17:
 339:Core/Src/main.c ****                     case BTN_UP:    up=true; break;
 1383              		.loc 1 339 17 view .LVU400
 1384 00bc 072A     		cmp	r2, #7
 1385 00be 24D0     		beq	.L103
 1386 00c0 082A     		cmp	r2, #8
 1387 00c2 25D0     		beq	.L104
 1388 00c4 062A     		cmp	r2, #6
 1389 00c6 C1D1     		bne	.L91
 344:Core/Src/main.c ****                     case BTN_START: btns_mask |= XINPUT_START; break;
 345:Core/Src/main.c ****                     case BTN_BACK:  btns_mask |= XINPUT_BACK; break;
 1390              		.loc 1 345 37 is_stmt 1 view .LVU401
 1391              		.loc 1 345 47 is_stmt 0 view .LVU402
 1392 00c8 40F02000 		orr	r0, r0, #32
 1393              	.LVL125:
 1394              		.loc 1 345 63 is_stmt 1 view .LVU403
 1395 00cc BEE7     		b	.L91
 1396              	.L99:
 339:Core/Src/main.c ****                     case BTN_UP:    up=true; break;
 1397              		.loc 1 339 17 is_stmt 0 view .LVU404
 1398 00ce 0E2A     		cmp	r2, #14
 1399 00d0 2AD0     		beq	.L106
 1400 00d2 0ED8     		bhi	.L107
 1401 00d4 0C2A     		cmp	r2, #12
 1402 00d6 24D0     		beq	.L108
 1403 00d8 06D8     		bhi	.L109
 1404 00da 0A2A     		cmp	r2, #10
 1405 00dc 1ED0     		beq	.L110
 1406 00de 0B2A     		cmp	r2, #11
 1407 00e0 B4D1     		bne	.L91
 346:Core/Src/main.c ****                     case BTN_L3:    btns_mask |= XINPUT_THUMB_L; break;
 347:Core/Src/main.c ****                     case BTN_R3:    btns_mask |= XINPUT_THUMB_R; break;
 348:Core/Src/main.c ****                     case BTN_LB:    btns_mask |= XINPUT_LB; break;
 349:Core/Src/main.c ****                     case BTN_RB:    btns_mask |= XINPUT_RB; break;
 350:Core/Src/main.c ****                     case BTN_GUIDE: btns_mask |= XINPUT_GUIDE; break;
 1408              		.loc 1 350 37 is_stmt 1 view .LVU405
 1409              		.loc 1 350 47 is_stmt 0 view .LVU406
 1410 00e2 40F48060 		orr	r0, r0, #1024
 1411              	.LVL126:
ARM GAS  C:\Users\naoki\AppData\Local\Temp\ccaZtq1h.s 			page 35


 1412              		.loc 1 350 64 is_stmt 1 view .LVU407
 1413 00e6 B1E7     		b	.L91
 1414              	.L109:
 339:Core/Src/main.c ****                     case BTN_UP:    up=true; break;
 1415              		.loc 1 339 17 is_stmt 0 view .LVU408
 1416 00e8 0D2A     		cmp	r2, #13
 1417 00ea AFD1     		bne	.L91
 351:Core/Src/main.c ****                     case BTN_A:     btns_mask |= XINPUT_BTN_A; break;
 352:Core/Src/main.c ****                     case BTN_B:     btns_mask |= XINPUT_BTN_B; break;
 1418              		.loc 1 352 37 is_stmt 1 view .LVU409
 1419              		.loc 1 352 47 is_stmt 0 view .LVU410
 1420 00ec 40F40050 		orr	r0, r0, #8192
 1421              	.LVL127:
 1422              		.loc 1 352 64 is_stmt 1 view .LVU411
 1423 00f0 ACE7     		b	.L91
 1424              	.L107:
 339:Core/Src/main.c ****                     case BTN_UP:    up=true; break;
 1425              		.loc 1 339 17 is_stmt 0 view .LVU412
 1426 00f2 102A     		cmp	r2, #16
 1427 00f4 1FD0     		beq	.L141
 1428 00f6 112A     		cmp	r2, #17
 1429 00f8 1FD0     		beq	.L142
 1430 00fa 0F2A     		cmp	r2, #15
 1431 00fc A6D1     		bne	.L91
 353:Core/Src/main.c ****                     case BTN_X:     btns_mask |= XINPUT_BTN_X; break;
 354:Core/Src/main.c ****                     case BTN_Y:     btns_mask |= XINPUT_BTN_Y; break;
 1432              		.loc 1 354 37 is_stmt 1 view .LVU413
 1433              		.loc 1 354 47 is_stmt 0 view .LVU414
 1434 00fe 40F40040 		orr	r0, r0, #32768
 1435              	.LVL128:
 1436              		.loc 1 354 64 is_stmt 1 view .LVU415
 1437 0102 A3E7     		b	.L91
 1438              	.L100:
 344:Core/Src/main.c ****                     case BTN_BACK:  btns_mask |= XINPUT_BACK; break;
 1439              		.loc 1 344 37 view .LVU416
 344:Core/Src/main.c ****                     case BTN_BACK:  btns_mask |= XINPUT_BACK; break;
 1440              		.loc 1 344 47 is_stmt 0 view .LVU417
 1441 0104 40F01000 		orr	r0, r0, #16
 1442              	.LVL129:
 344:Core/Src/main.c ****                     case BTN_BACK:  btns_mask |= XINPUT_BACK; break;
 1443              		.loc 1 344 64 is_stmt 1 view .LVU418
 1444 0108 A0E7     		b	.L91
 1445              	.L103:
 346:Core/Src/main.c ****                     case BTN_R3:    btns_mask |= XINPUT_THUMB_R; break;
 1446              		.loc 1 346 37 view .LVU419
 346:Core/Src/main.c ****                     case BTN_R3:    btns_mask |= XINPUT_THUMB_R; break;
 1447              		.loc 1 346 47 is_stmt 0 view .LVU420
 1448 010a 40F04000 		orr	r0, r0, #64
 1449              	.LVL130:
 346:Core/Src/main.c ****                     case BTN_R3:    btns_mask |= XINPUT_THUMB_R; break;
 1450              		.loc 1 346 66 is_stmt 1 view .LVU421
 1451 010e 9DE7     		b	.L91
 1452              	.L104:
 347:Core/Src/main.c ****                     case BTN_LB:    btns_mask |= XINPUT_LB; break;
 1453              		.loc 1 347 37 view .LVU422
 347:Core/Src/main.c ****                     case BTN_LB:    btns_mask |= XINPUT_LB; break;
 1454              		.loc 1 347 47 is_stmt 0 view .LVU423
ARM GAS  C:\Users\naoki\AppData\Local\Temp\ccaZtq1h.s 			page 36


 1455 0110 40F08000 		orr	r0, r0, #128
 1456              	.LVL131:
 347:Core/Src/main.c ****                     case BTN_LB:    btns_mask |= XINPUT_LB; break;
 1457              		.loc 1 347 66 is_stmt 1 view .LVU424
 1458 0114 9AE7     		b	.L91
 1459              	.L98:
 348:Core/Src/main.c ****                     case BTN_RB:    btns_mask |= XINPUT_RB; break;
 1460              		.loc 1 348 37 view .LVU425
 348:Core/Src/main.c ****                     case BTN_RB:    btns_mask |= XINPUT_RB; break;
 1461              		.loc 1 348 47 is_stmt 0 view .LVU426
 1462 0116 40F48070 		orr	r0, r0, #256
 1463              	.LVL132:
 348:Core/Src/main.c ****                     case BTN_RB:    btns_mask |= XINPUT_RB; break;
 1464              		.loc 1 348 61 is_stmt 1 view .LVU427
 1465 011a 97E7     		b	.L91
 1466              	.L110:
 349:Core/Src/main.c ****                     case BTN_GUIDE: btns_mask |= XINPUT_GUIDE; break;
 1467              		.loc 1 349 37 view .LVU428
 349:Core/Src/main.c ****                     case BTN_GUIDE: btns_mask |= XINPUT_GUIDE; break;
 1468              		.loc 1 349 47 is_stmt 0 view .LVU429
 1469 011c 40F40070 		orr	r0, r0, #512
 1470              	.LVL133:
 349:Core/Src/main.c ****                     case BTN_GUIDE: btns_mask |= XINPUT_GUIDE; break;
 1471              		.loc 1 349 61 is_stmt 1 view .LVU430
 1472 0120 94E7     		b	.L91
 1473              	.L108:
 351:Core/Src/main.c ****                     case BTN_B:     btns_mask |= XINPUT_BTN_B; break;
 1474              		.loc 1 351 37 view .LVU431
 351:Core/Src/main.c ****                     case BTN_B:     btns_mask |= XINPUT_BTN_B; break;
 1475              		.loc 1 351 47 is_stmt 0 view .LVU432
 1476 0122 40F48050 		orr	r0, r0, #4096
 1477              	.LVL134:
 351:Core/Src/main.c ****                     case BTN_B:     btns_mask |= XINPUT_BTN_B; break;
 1478              		.loc 1 351 64 is_stmt 1 view .LVU433
 1479 0126 91E7     		b	.L91
 1480              	.L106:
 353:Core/Src/main.c ****                     case BTN_Y:     btns_mask |= XINPUT_BTN_Y; break;
 1481              		.loc 1 353 37 view .LVU434
 353:Core/Src/main.c ****                     case BTN_Y:     btns_mask |= XINPUT_BTN_Y; break;
 1482              		.loc 1 353 47 is_stmt 0 view .LVU435
 1483 0128 40F48040 		orr	r0, r0, #16384
 1484              	.LVL135:
 353:Core/Src/main.c ****                     case BTN_Y:     btns_mask |= XINPUT_BTN_Y; break;
 1485              		.loc 1 353 64 is_stmt 1 view .LVU436
 1486 012c 8EE7     		b	.L91
 1487              	.L139:
 342:Core/Src/main.c ****                     case BTN_RIGHT: right=true; break;
 1488              		.loc 1 342 41 is_stmt 0 view .LVU437
 1489 012e 0D46     		mov	r5, r1
 1490              	.LVL136:
 342:Core/Src/main.c ****                     case BTN_RIGHT: right=true; break;
 1491              		.loc 1 342 41 view .LVU438
 1492 0130 8CE7     		b	.L91
 1493              	.LVL137:
 1494              	.L140:
 340:Core/Src/main.c ****                     case BTN_DOWN:  down=true; break;
 1495              		.loc 1 340 39 view .LVU439
ARM GAS  C:\Users\naoki\AppData\Local\Temp\ccaZtq1h.s 			page 37


 1496 0132 0C46     		mov	r4, r1
 1497              	.LVL138:
 340:Core/Src/main.c ****                     case BTN_DOWN:  down=true; break;
 1498              		.loc 1 340 39 view .LVU440
 1499 0134 8AE7     		b	.L91
 1500              	.LVL139:
 1501              	.L141:
 355:Core/Src/main.c ****                     case BTN_LT:    trigger_l = 255; break;
 1502              		.loc 1 355 47 view .LVU441
 1503 0136 FF27     		movs	r7, #255
 1504              	.LVL140:
 1505              		.loc 1 355 47 view .LVU442
 1506 0138 88E7     		b	.L91
 1507              	.LVL141:
 1508              	.L142:
 356:Core/Src/main.c ****                     case BTN_RT:    trigger_r = 255; break;
 1509              		.loc 1 356 47 view .LVU443
 1510 013a FF26     		movs	r6, #255
 1511              	.LVL142:
 1512              		.loc 1 356 47 view .LVU444
 1513 013c 86E7     		b	.L91
 1514              	.LVL143:
 1515              	.L144:
 1516              		.loc 1 356 47 view .LVU445
 1517              	.LBE18:
 1518              	.LBE19:
 357:Core/Src/main.c ****                     default: break;
 358:Core/Src/main.c ****                 }
 359:Core/Src/main.c ****             }
 360:Core/Src/main.c ****         }
 361:Core/Src/main.c ****     }
 362:Core/Src/main.c **** 
 363:Core/Src/main.c ****     // SOCD
 364:Core/Src/main.c ****     if (g_socd_mode == 2) {
 1519              		.loc 1 364 5 is_stmt 1 view .LVU446
 1520              		.loc 1 364 21 is_stmt 0 view .LVU447
 1521 013e 534B     		ldr	r3, .L151+8
 1522              	.LVL144:
 1523              		.loc 1 364 21 view .LVU448
 1524 0140 1B78     		ldrb	r3, [r3]	@ zero_extendqisi2
 1525              		.loc 1 364 8 view .LVU449
 1526 0142 022B     		cmp	r3, #2
 1527 0144 0AD0     		beq	.L145
 1528              	.L115:
 365:Core/Src/main.c ****         if (left && !last_left_state) last_lr_winner = -1;
 366:Core/Src/main.c ****         if (right && !last_right_state) last_lr_winner = 1;
 367:Core/Src/main.c ****         if (up && !last_up_state) last_ud_winner = 1;
 368:Core/Src/main.c ****         if (down && !last_down_state) last_ud_winner = -1;
 369:Core/Src/main.c ****         last_left_state = left; last_right_state = right;
 370:Core/Src/main.c ****         last_up_state = up; last_down_state = down;
 371:Core/Src/main.c ****     }
 372:Core/Src/main.c **** 
 373:Core/Src/main.c ****     if (left && right) {
 1529              		.loc 1 373 5 is_stmt 1 view .LVU450
 1530              		.loc 1 373 8 is_stmt 0 view .LVU451
 1531 0146 002D     		cmp	r5, #0
 1532 0148 50D0     		beq	.L120
ARM GAS  C:\Users\naoki\AppData\Local\Temp\ccaZtq1h.s 			page 38


 1533              		.loc 1 373 14 discriminator 1 view .LVU452
 1534 014a BEF1000F 		cmp	lr, #0
 1535 014e 4BD0     		beq	.L121
 374:Core/Src/main.c ****         if (g_socd_mode == 0) { btns_mask &= ~(XINPUT_DPAD_LEFT | XINPUT_DPAD_RIGHT); }
 1536              		.loc 1 374 9 is_stmt 1 view .LVU453
 1537              		.loc 1 374 12 is_stmt 0 view .LVU454
 1538 0150 002B     		cmp	r3, #0
 1539 0152 30D1     		bne	.L122
 1540              		.loc 1 374 33 is_stmt 1 discriminator 1 view .LVU455
 1541              		.loc 1 374 43 is_stmt 0 discriminator 1 view .LVU456
 1542 0154 20F00C00 		bic	r0, r0, #12
 1543              	.LVL145:
 1544              		.loc 1 374 43 discriminator 1 view .LVU457
 1545 0158 80B2     		uxth	r0, r0
 1546              	.LVL146:
 1547              		.loc 1 374 43 discriminator 1 view .LVU458
 1548 015a 4CE0     		b	.L123
 1549              	.L145:
 365:Core/Src/main.c ****         if (left && !last_left_state) last_lr_winner = -1;
 1550              		.loc 1 365 9 is_stmt 1 view .LVU459
 365:Core/Src/main.c ****         if (left && !last_left_state) last_lr_winner = -1;
 1551              		.loc 1 365 12 is_stmt 0 view .LVU460
 1552 015c 35B1     		cbz	r5, .L116
 365:Core/Src/main.c ****         if (left && !last_left_state) last_lr_winner = -1;
 1553              		.loc 1 365 21 discriminator 1 view .LVU461
 1554 015e 4C4A     		ldr	r2, .L151+12
 1555 0160 1278     		ldrb	r2, [r2]	@ zero_extendqisi2
 365:Core/Src/main.c ****         if (left && !last_left_state) last_lr_winner = -1;
 1556              		.loc 1 365 18 discriminator 1 view .LVU462
 1557 0162 1AB9     		cbnz	r2, .L116
 365:Core/Src/main.c ****         if (left && !last_left_state) last_lr_winner = -1;
 1558              		.loc 1 365 39 is_stmt 1 discriminator 2 view .LVU463
 365:Core/Src/main.c ****         if (left && !last_left_state) last_lr_winner = -1;
 1559              		.loc 1 365 54 is_stmt 0 discriminator 2 view .LVU464
 1560 0164 4B4A     		ldr	r2, .L151+16
 1561 0166 4FF0FF31 		mov	r1, #-1
 1562 016a 1160     		str	r1, [r2]
 1563              	.L116:
 366:Core/Src/main.c ****         if (up && !last_up_state) last_ud_winner = 1;
 1564              		.loc 1 366 9 is_stmt 1 view .LVU465
 366:Core/Src/main.c ****         if (up && !last_up_state) last_ud_winner = 1;
 1565              		.loc 1 366 12 is_stmt 0 view .LVU466
 1566 016c BEF1000F 		cmp	lr, #0
 1567 0170 05D0     		beq	.L117
 366:Core/Src/main.c ****         if (up && !last_up_state) last_ud_winner = 1;
 1568              		.loc 1 366 22 discriminator 1 view .LVU467
 1569 0172 494A     		ldr	r2, .L151+20
 1570 0174 1278     		ldrb	r2, [r2]	@ zero_extendqisi2
 366:Core/Src/main.c ****         if (up && !last_up_state) last_ud_winner = 1;
 1571              		.loc 1 366 19 discriminator 1 view .LVU468
 1572 0176 12B9     		cbnz	r2, .L117
 366:Core/Src/main.c ****         if (up && !last_up_state) last_ud_winner = 1;
 1573              		.loc 1 366 41 is_stmt 1 discriminator 2 view .LVU469
 366:Core/Src/main.c ****         if (up && !last_up_state) last_ud_winner = 1;
 1574              		.loc 1 366 56 is_stmt 0 discriminator 2 view .LVU470
 1575 0178 464A     		ldr	r2, .L151+16
 1576 017a 0121     		movs	r1, #1
ARM GAS  C:\Users\naoki\AppData\Local\Temp\ccaZtq1h.s 			page 39


 1577 017c 1160     		str	r1, [r2]
 1578              	.L117:
 367:Core/Src/main.c ****         if (down && !last_down_state) last_ud_winner = -1;
 1579              		.loc 1 367 9 is_stmt 1 view .LVU471
 367:Core/Src/main.c ****         if (down && !last_down_state) last_ud_winner = -1;
 1580              		.loc 1 367 12 is_stmt 0 view .LVU472
 1581 017e 2CB1     		cbz	r4, .L118
 367:Core/Src/main.c ****         if (down && !last_down_state) last_ud_winner = -1;
 1582              		.loc 1 367 19 discriminator 1 view .LVU473
 1583 0180 464A     		ldr	r2, .L151+24
 1584 0182 1278     		ldrb	r2, [r2]	@ zero_extendqisi2
 367:Core/Src/main.c ****         if (down && !last_down_state) last_ud_winner = -1;
 1585              		.loc 1 367 16 discriminator 1 view .LVU474
 1586 0184 12B9     		cbnz	r2, .L118
 367:Core/Src/main.c ****         if (down && !last_down_state) last_ud_winner = -1;
 1587              		.loc 1 367 35 is_stmt 1 discriminator 2 view .LVU475
 367:Core/Src/main.c ****         if (down && !last_down_state) last_ud_winner = -1;
 1588              		.loc 1 367 50 is_stmt 0 discriminator 2 view .LVU476
 1589 0186 464A     		ldr	r2, .L151+28
 1590 0188 0121     		movs	r1, #1
 1591 018a 1160     		str	r1, [r2]
 1592              	.L118:
 368:Core/Src/main.c ****         last_left_state = left; last_right_state = right;
 1593              		.loc 1 368 9 is_stmt 1 view .LVU477
 368:Core/Src/main.c ****         last_left_state = left; last_right_state = right;
 1594              		.loc 1 368 12 is_stmt 0 view .LVU478
 1595 018c BCF1000F 		cmp	ip, #0
 1596 0190 06D0     		beq	.L119
 368:Core/Src/main.c ****         last_left_state = left; last_right_state = right;
 1597              		.loc 1 368 21 discriminator 1 view .LVU479
 1598 0192 444A     		ldr	r2, .L151+32
 1599 0194 1278     		ldrb	r2, [r2]	@ zero_extendqisi2
 368:Core/Src/main.c ****         last_left_state = left; last_right_state = right;
 1600              		.loc 1 368 18 discriminator 1 view .LVU480
 1601 0196 1AB9     		cbnz	r2, .L119
 368:Core/Src/main.c ****         last_left_state = left; last_right_state = right;
 1602              		.loc 1 368 39 is_stmt 1 discriminator 2 view .LVU481
 368:Core/Src/main.c ****         last_left_state = left; last_right_state = right;
 1603              		.loc 1 368 54 is_stmt 0 discriminator 2 view .LVU482
 1604 0198 414A     		ldr	r2, .L151+28
 1605 019a 4FF0FF31 		mov	r1, #-1
 1606 019e 1160     		str	r1, [r2]
 1607              	.L119:
 369:Core/Src/main.c ****         last_up_state = up; last_down_state = down;
 1608              		.loc 1 369 9 is_stmt 1 view .LVU483
 369:Core/Src/main.c ****         last_up_state = up; last_down_state = down;
 1609              		.loc 1 369 25 is_stmt 0 view .LVU484
 1610 01a0 3B4A     		ldr	r2, .L151+12
 1611 01a2 1570     		strb	r5, [r2]
 369:Core/Src/main.c ****         last_up_state = up; last_down_state = down;
 1612              		.loc 1 369 33 is_stmt 1 view .LVU485
 369:Core/Src/main.c ****         last_up_state = up; last_down_state = down;
 1613              		.loc 1 369 50 is_stmt 0 view .LVU486
 1614 01a4 3C4A     		ldr	r2, .L151+20
 1615 01a6 82F800E0 		strb	lr, [r2]
 370:Core/Src/main.c ****     }
 1616              		.loc 1 370 9 is_stmt 1 view .LVU487
ARM GAS  C:\Users\naoki\AppData\Local\Temp\ccaZtq1h.s 			page 40


 370:Core/Src/main.c ****     }
 1617              		.loc 1 370 23 is_stmt 0 view .LVU488
 1618 01aa 3C4A     		ldr	r2, .L151+24
 1619 01ac 1470     		strb	r4, [r2]
 370:Core/Src/main.c ****     }
 1620              		.loc 1 370 29 is_stmt 1 view .LVU489
 370:Core/Src/main.c ****     }
 1621              		.loc 1 370 45 is_stmt 0 view .LVU490
 1622 01ae 3D4A     		ldr	r2, .L151+32
 1623 01b0 82F800C0 		strb	ip, [r2]
 1624 01b4 C7E7     		b	.L115
 1625              	.L122:
 375:Core/Src/main.c ****         else if (g_socd_mode == 1) { btns_mask &= ~(XINPUT_DPAD_LEFT | XINPUT_DPAD_RIGHT); }
 1626              		.loc 1 375 14 is_stmt 1 view .LVU491
 1627              		.loc 1 375 17 is_stmt 0 view .LVU492
 1628 01b6 012B     		cmp	r3, #1
 1629 01b8 0CD0     		beq	.L146
 376:Core/Src/main.c ****         else if (g_socd_mode == 2) { 
 1630              		.loc 1 376 14 is_stmt 1 view .LVU493
 1631              		.loc 1 376 17 is_stmt 0 view .LVU494
 1632 01ba 022B     		cmp	r3, #2
 1633 01bc 1BD1     		bne	.L123
 377:Core/Src/main.c ****             if (last_lr_winner == -1) { btns_mask |= XINPUT_DPAD_LEFT; btns_mask &= ~XINPUT_DPAD_RI
 1634              		.loc 1 377 13 is_stmt 1 view .LVU495
 1635              		.loc 1 377 32 is_stmt 0 view .LVU496
 1636 01be 354A     		ldr	r2, .L151+16
 1637 01c0 1268     		ldr	r2, [r2]
 1638              		.loc 1 377 16 view .LVU497
 1639 01c2 B2F1FF3F 		cmp	r2, #-1
 1640 01c6 09D0     		beq	.L147
 378:Core/Src/main.c ****             else { btns_mask |= XINPUT_DPAD_RIGHT; btns_mask &= ~XINPUT_DPAD_LEFT; }
 1641              		.loc 1 378 20 is_stmt 1 view .LVU498
 1642              	.LVL147:
 1643              		.loc 1 378 52 view .LVU499
 1644 01c8 20F00400 		bic	r0, r0, #4
 1645              	.LVL148:
 1646              		.loc 1 378 52 is_stmt 0 view .LVU500
 1647 01cc 80B2     		uxth	r0, r0
 1648              		.loc 1 378 62 view .LVU501
 1649 01ce 40F00800 		orr	r0, r0, #8
 1650              	.LVL149:
 1651              		.loc 1 378 62 view .LVU502
 1652 01d2 10E0     		b	.L123
 1653              	.L146:
 375:Core/Src/main.c ****         else if (g_socd_mode == 2) { 
 1654              		.loc 1 375 38 is_stmt 1 discriminator 1 view .LVU503
 375:Core/Src/main.c ****         else if (g_socd_mode == 2) { 
 1655              		.loc 1 375 48 is_stmt 0 discriminator 1 view .LVU504
 1656 01d4 20F00C00 		bic	r0, r0, #12
 1657              	.LVL150:
 375:Core/Src/main.c ****         else if (g_socd_mode == 2) { 
 1658              		.loc 1 375 48 discriminator 1 view .LVU505
 1659 01d8 80B2     		uxth	r0, r0
 1660              	.LVL151:
 375:Core/Src/main.c ****         else if (g_socd_mode == 2) { 
 1661              		.loc 1 375 48 discriminator 1 view .LVU506
 1662 01da 0CE0     		b	.L123
ARM GAS  C:\Users\naoki\AppData\Local\Temp\ccaZtq1h.s 			page 41


 1663              	.L147:
 377:Core/Src/main.c ****             if (last_lr_winner == -1) { btns_mask |= XINPUT_DPAD_LEFT; btns_mask &= ~XINPUT_DPAD_RI
 1664              		.loc 1 377 41 is_stmt 1 discriminator 1 view .LVU507
 1665              	.LVL152:
 377:Core/Src/main.c ****             if (last_lr_winner == -1) { btns_mask |= XINPUT_DPAD_LEFT; btns_mask &= ~XINPUT_DPAD_RI
 1666              		.loc 1 377 72 view .LVU508
 1667 01dc 20F00800 		bic	r0, r0, #8
 1668              	.LVL153:
 377:Core/Src/main.c ****             if (last_lr_winner == -1) { btns_mask |= XINPUT_DPAD_LEFT; btns_mask &= ~XINPUT_DPAD_RI
 1669              		.loc 1 377 72 is_stmt 0 view .LVU509
 1670 01e0 80B2     		uxth	r0, r0
 377:Core/Src/main.c ****             if (last_lr_winner == -1) { btns_mask |= XINPUT_DPAD_LEFT; btns_mask &= ~XINPUT_DPAD_RI
 1671              		.loc 1 377 82 discriminator 1 view .LVU510
 1672 01e2 40F00400 		orr	r0, r0, #4
 1673              	.LVL154:
 377:Core/Src/main.c ****             if (last_lr_winner == -1) { btns_mask |= XINPUT_DPAD_LEFT; btns_mask &= ~XINPUT_DPAD_RI
 1674              		.loc 1 377 82 discriminator 1 view .LVU511
 1675 01e6 06E0     		b	.L123
 1676              	.L121:
 379:Core/Src/main.c ****         }
 380:Core/Src/main.c ****     } else {
 381:Core/Src/main.c ****         if (left) btns_mask |= XINPUT_DPAD_LEFT;
 1677              		.loc 1 381 9 is_stmt 1 view .LVU512
 1678              		.loc 1 381 19 discriminator 1 view .LVU513
 1679              		.loc 1 381 29 is_stmt 0 discriminator 1 view .LVU514
 1680 01e8 40F00400 		orr	r0, r0, #4
 1681              	.LVL155:
 1682              	.L120:
 382:Core/Src/main.c ****         if (right) btns_mask |= XINPUT_DPAD_RIGHT;
 1683              		.loc 1 382 9 is_stmt 1 view .LVU515
 1684              		.loc 1 382 12 is_stmt 0 view .LVU516
 1685 01ec BEF1000F 		cmp	lr, #0
 1686 01f0 01D0     		beq	.L123
 1687              		.loc 1 382 20 is_stmt 1 discriminator 1 view .LVU517
 1688              		.loc 1 382 30 is_stmt 0 discriminator 1 view .LVU518
 1689 01f2 40F00800 		orr	r0, r0, #8
 1690              	.LVL156:
 1691              	.L123:
 383:Core/Src/main.c ****     }
 384:Core/Src/main.c ****     
 385:Core/Src/main.c ****     if (up && down) { 
 1692              		.loc 1 385 5 is_stmt 1 view .LVU519
 1693              		.loc 1 385 8 is_stmt 0 view .LVU520
 1694 01f6 1CB3     		cbz	r4, .L126
 1695              		.loc 1 385 12 discriminator 1 view .LVU521
 1696 01f8 BCF1000F 		cmp	ip, #0
 1697 01fc 1ED0     		beq	.L127
 386:Core/Src/main.c ****         if (g_socd_mode == 0) { btns_mask &= ~(XINPUT_DPAD_UP | XINPUT_DPAD_DOWN); }
 1698              		.loc 1 386 9 is_stmt 1 view .LVU522
 1699              		.loc 1 386 12 is_stmt 0 view .LVU523
 1700 01fe 1BB9     		cbnz	r3, .L128
 1701              		.loc 1 386 33 is_stmt 1 discriminator 1 view .LVU524
 1702              		.loc 1 386 43 is_stmt 0 discriminator 1 view .LVU525
 1703 0200 20F00300 		bic	r0, r0, #3
 1704              	.LVL157:
 1705              		.loc 1 386 43 discriminator 1 view .LVU526
 1706 0204 80B2     		uxth	r0, r0
ARM GAS  C:\Users\naoki\AppData\Local\Temp\ccaZtq1h.s 			page 42


 1707              	.LVL158:
 1708              		.loc 1 386 43 discriminator 1 view .LVU527
 1709 0206 20E0     		b	.L129
 1710              	.L128:
 387:Core/Src/main.c ****         else if (g_socd_mode == 1) { btns_mask |= XINPUT_DPAD_UP; btns_mask &= ~XINPUT_DPAD_DOWN; }
 1711              		.loc 1 387 14 is_stmt 1 view .LVU528
 1712              		.loc 1 387 17 is_stmt 0 view .LVU529
 1713 0208 012B     		cmp	r3, #1
 1714 020a 0BD0     		beq	.L148
 388:Core/Src/main.c ****         else if (g_socd_mode == 2) { 
 1715              		.loc 1 388 14 is_stmt 1 view .LVU530
 1716              		.loc 1 388 17 is_stmt 0 view .LVU531
 1717 020c 022B     		cmp	r3, #2
 1718 020e 1CD1     		bne	.L129
 389:Core/Src/main.c ****             if (last_ud_winner == 1) { btns_mask |= XINPUT_DPAD_UP; btns_mask &= ~XINPUT_DPAD_DOWN;
 1719              		.loc 1 389 13 is_stmt 1 view .LVU532
 1720              		.loc 1 389 32 is_stmt 0 view .LVU533
 1721 0210 234B     		ldr	r3, .L151+28
 1722 0212 1B68     		ldr	r3, [r3]
 1723              		.loc 1 389 16 view .LVU534
 1724 0214 012B     		cmp	r3, #1
 1725 0216 0BD0     		beq	.L149
 390:Core/Src/main.c ****             else { btns_mask |= XINPUT_DPAD_DOWN; btns_mask &= ~XINPUT_DPAD_UP; }
 1726              		.loc 1 390 20 is_stmt 1 view .LVU535
 1727              	.LVL159:
 1728              		.loc 1 390 51 view .LVU536
 1729 0218 20F00100 		bic	r0, r0, #1
 1730              	.LVL160:
 1731              		.loc 1 390 51 is_stmt 0 view .LVU537
 1732 021c 80B2     		uxth	r0, r0
 1733              		.loc 1 390 61 view .LVU538
 1734 021e 40F00200 		orr	r0, r0, #2
 1735              	.LVL161:
 1736              		.loc 1 390 61 view .LVU539
 1737 0222 12E0     		b	.L129
 1738              	.L148:
 387:Core/Src/main.c ****         else if (g_socd_mode == 2) { 
 1739              		.loc 1 387 38 is_stmt 1 discriminator 1 view .LVU540
 1740              	.LVL162:
 387:Core/Src/main.c ****         else if (g_socd_mode == 2) { 
 1741              		.loc 1 387 67 view .LVU541
 1742 0224 20F00200 		bic	r0, r0, #2
 1743              	.LVL163:
 387:Core/Src/main.c ****         else if (g_socd_mode == 2) { 
 1744              		.loc 1 387 67 is_stmt 0 view .LVU542
 1745 0228 80B2     		uxth	r0, r0
 387:Core/Src/main.c ****         else if (g_socd_mode == 2) { 
 1746              		.loc 1 387 77 discriminator 1 view .LVU543
 1747 022a 40F00100 		orr	r0, r0, #1
 1748              	.LVL164:
 387:Core/Src/main.c ****         else if (g_socd_mode == 2) { 
 1749              		.loc 1 387 77 discriminator 1 view .LVU544
 1750 022e 0CE0     		b	.L129
 1751              	.L149:
 389:Core/Src/main.c ****             if (last_ud_winner == 1) { btns_mask |= XINPUT_DPAD_UP; btns_mask &= ~XINPUT_DPAD_DOWN;
 1752              		.loc 1 389 40 is_stmt 1 discriminator 1 view .LVU545
 1753              	.LVL165:
ARM GAS  C:\Users\naoki\AppData\Local\Temp\ccaZtq1h.s 			page 43


 389:Core/Src/main.c ****             if (last_ud_winner == 1) { btns_mask |= XINPUT_DPAD_UP; btns_mask &= ~XINPUT_DPAD_DOWN;
 1754              		.loc 1 389 69 view .LVU546
 1755 0230 20F00200 		bic	r0, r0, #2
 1756              	.LVL166:
 389:Core/Src/main.c ****             if (last_ud_winner == 1) { btns_mask |= XINPUT_DPAD_UP; btns_mask &= ~XINPUT_DPAD_DOWN;
 1757              		.loc 1 389 69 is_stmt 0 view .LVU547
 1758 0234 80B2     		uxth	r0, r0
 389:Core/Src/main.c ****             if (last_ud_winner == 1) { btns_mask |= XINPUT_DPAD_UP; btns_mask &= ~XINPUT_DPAD_DOWN;
 1759              		.loc 1 389 79 discriminator 1 view .LVU548
 1760 0236 40F00100 		orr	r0, r0, #1
 1761              	.LVL167:
 389:Core/Src/main.c ****             if (last_ud_winner == 1) { btns_mask |= XINPUT_DPAD_UP; btns_mask &= ~XINPUT_DPAD_DOWN;
 1762              		.loc 1 389 79 discriminator 1 view .LVU549
 1763 023a 06E0     		b	.L129
 1764              	.L127:
 391:Core/Src/main.c ****         }
 392:Core/Src/main.c ****     } else {
 393:Core/Src/main.c ****         if (up) btns_mask |= XINPUT_DPAD_UP;
 1765              		.loc 1 393 9 is_stmt 1 view .LVU550
 1766              		.loc 1 393 17 discriminator 1 view .LVU551
 1767              		.loc 1 393 27 is_stmt 0 discriminator 1 view .LVU552
 1768 023c 40F00100 		orr	r0, r0, #1
 1769              	.LVL168:
 1770              	.L126:
 394:Core/Src/main.c ****         if (down) btns_mask |= XINPUT_DPAD_DOWN;
 1771              		.loc 1 394 9 is_stmt 1 view .LVU553
 1772              		.loc 1 394 12 is_stmt 0 view .LVU554
 1773 0240 BCF1000F 		cmp	ip, #0
 1774 0244 01D0     		beq	.L129
 1775              		.loc 1 394 19 is_stmt 1 discriminator 1 view .LVU555
 1776              		.loc 1 394 29 is_stmt 0 discriminator 1 view .LVU556
 1777 0246 40F00200 		orr	r0, r0, #2
 1778              	.LVL169:
 1779              	.L129:
 395:Core/Src/main.c ****     }
 396:Core/Src/main.c **** 
 397:Core/Src/main.c ****     report.buttons = btns_mask;
 1780              		.loc 1 397 5 is_stmt 1 view .LVU557
 1781              		.loc 1 397 20 is_stmt 0 view .LVU558
 1782 024a ADF80600 		strh	r0, [sp, #6]	@ movhi
 398:Core/Src/main.c ****     report.lt = trigger_l;
 1783              		.loc 1 398 5 is_stmt 1 view .LVU559
 1784              		.loc 1 398 15 is_stmt 0 view .LVU560
 1785 024e 8DF80870 		strb	r7, [sp, #8]
 399:Core/Src/main.c ****     report.rt = trigger_r;
 1786              		.loc 1 399 5 is_stmt 1 view .LVU561
 1787              		.loc 1 399 15 is_stmt 0 view .LVU562
 1788 0252 8DF80960 		strb	r6, [sp, #9]
 400:Core/Src/main.c **** 
 401:Core/Src/main.c ****     if (memcmp(&report, &prev_report, sizeof(XInputReport_t)) != 0) {
 1789              		.loc 1 401 5 is_stmt 1 view .LVU563
 1790              		.loc 1 401 9 is_stmt 0 view .LVU564
 1791 0256 1422     		movs	r2, #20
 1792 0258 1349     		ldr	r1, .L151+36
 1793 025a 01A8     		add	r0, sp, #4
 1794              	.LVL170:
 1795              		.loc 1 401 9 view .LVU565
ARM GAS  C:\Users\naoki\AppData\Local\Temp\ccaZtq1h.s 			page 44


 1796 025c FFF7FEFF 		bl	memcmp
 1797              	.LVL171:
 1798              		.loc 1 401 8 discriminator 1 view .LVU566
 1799 0260 10B9     		cbnz	r0, .L150
 1800              	.LVL172:
 1801              	.L89:
 402:Core/Src/main.c ****         if (USBD_HID_SendReport(&hUsbDeviceFS, (uint8_t*)&report, sizeof(report)) == USBD_OK) {
 403:Core/Src/main.c ****             prev_report = report;
 404:Core/Src/main.c ****         }
 405:Core/Src/main.c ****     }
 406:Core/Src/main.c **** }
 1802              		.loc 1 406 1 view .LVU567
 1803 0262 07B0     		add	sp, sp, #28
 1804              	.LCFI14:
 1805              		.cfi_remember_state
 1806              		.cfi_def_cfa_offset 28
 1807              		@ sp needed
 1808 0264 BDE8F083 		pop	{r4, r5, r6, r7, r8, r9, pc}
 1809              	.LVL173:
 1810              	.L150:
 1811              	.LCFI15:
 1812              		.cfi_restore_state
 402:Core/Src/main.c ****         if (USBD_HID_SendReport(&hUsbDeviceFS, (uint8_t*)&report, sizeof(report)) == USBD_OK) {
 1813              		.loc 1 402 9 is_stmt 1 view .LVU568
 402:Core/Src/main.c ****         if (USBD_HID_SendReport(&hUsbDeviceFS, (uint8_t*)&report, sizeof(report)) == USBD_OK) {
 1814              		.loc 1 402 13 is_stmt 0 view .LVU569
 1815 0268 1422     		movs	r2, #20
 1816 026a 01A9     		add	r1, sp, #4
 1817 026c 0F48     		ldr	r0, .L151+40
 1818 026e FFF7FEFF 		bl	USBD_HID_SendReport
 1819              	.LVL174:
 402:Core/Src/main.c ****         if (USBD_HID_SendReport(&hUsbDeviceFS, (uint8_t*)&report, sizeof(report)) == USBD_OK) {
 1820              		.loc 1 402 12 discriminator 1 view .LVU570
 1821 0272 0028     		cmp	r0, #0
 1822 0274 F5D1     		bne	.L89
 403:Core/Src/main.c ****         }
 1823              		.loc 1 403 13 is_stmt 1 view .LVU571
 403:Core/Src/main.c ****         }
 1824              		.loc 1 403 25 is_stmt 0 view .LVU572
 1825 0276 0C4C     		ldr	r4, .L151+36
 1826              	.LVL175:
 403:Core/Src/main.c ****         }
 1827              		.loc 1 403 25 view .LVU573
 1828 0278 01AD     		add	r5, sp, #4
 1829              	.LVL176:
 403:Core/Src/main.c ****         }
 1830              		.loc 1 403 25 view .LVU574
 1831 027a 0FCD     		ldmia	r5!, {r0, r1, r2, r3}
 1832 027c 0FC4     		stmia	r4!, {r0, r1, r2, r3}
 1833 027e 2B68     		ldr	r3, [r5]
 1834 0280 2360     		str	r3, [r4]
 1835              		.loc 1 406 1 view .LVU575
 1836 0282 EEE7     		b	.L89
 1837              	.L152:
 1838              		.align	2
 1839              	.L151:
 1840 0284 00000000 		.word	key_states
ARM GAS  C:\Users\naoki\AppData\Local\Temp\ccaZtq1h.s 			page 45


 1841 0288 00000000 		.word	key_map
 1842 028c 00000000 		.word	g_socd_mode
 1843 0290 00000000 		.word	last_left_state
 1844 0294 00000000 		.word	last_lr_winner
 1845 0298 00000000 		.word	last_right_state
 1846 029c 00000000 		.word	last_up_state
 1847 02a0 00000000 		.word	last_ud_winner
 1848 02a4 00000000 		.word	last_down_state
 1849 02a8 00000000 		.word	prev_report.2
 1850 02ac 00000000 		.word	hUsbDeviceFS
 1851 02b0 00000000 		.word	custom_macros
 1852              		.cfi_endproc
 1853              	.LFE141:
 1855              		.section	.text.WebHID_DataReceived_Callback,"ax",%progbits
 1856              		.align	1
 1857              		.global	WebHID_DataReceived_Callback
 1858              		.syntax unified
 1859              		.thumb
 1860              		.thumb_func
 1862              	WebHID_DataReceived_Callback:
 1863              	.LVL177:
 1864              	.LFB142:
 407:Core/Src/main.c **** 
 408:Core/Src/main.c **** // --- WebHID コールバック ---
 409:Core/Src/main.c **** void WebHID_DataReceived_Callback(uint8_t* data, uint32_t len) {
 1865              		.loc 1 409 64 is_stmt 1 view -0
 1866              		.cfi_startproc
 1867              		@ args = 0, pretend = 0, frame = 0
 1868              		@ frame_needed = 0, uses_anonymous_args = 0
 1869              		.loc 1 409 64 is_stmt 0 view .LVU577
 1870 0000 08B5     		push	{r3, lr}
 1871              	.LCFI16:
 1872              		.cfi_def_cfa_offset 8
 1873              		.cfi_offset 3, -8
 1874              		.cfi_offset 14, -4
 410:Core/Src/main.c ****     uint8_t cmd = data[0]; 
 1875              		.loc 1 410 5 is_stmt 1 view .LVU578
 1876              		.loc 1 410 13 is_stmt 0 view .LVU579
 1877 0002 0378     		ldrb	r3, [r0]	@ zero_extendqisi2
 1878              	.LVL178:
 411:Core/Src/main.c ****     
 412:Core/Src/main.c ****     if (cmd == CMD_READ_SENSORS) {
 1879              		.loc 1 412 5 is_stmt 1 view .LVU580
 1880              		.loc 1 412 8 is_stmt 0 view .LVU581
 1881 0004 302B     		cmp	r3, #48
 1882 0006 17D0     		beq	.L187
 413:Core/Src/main.c ****         static uint8_t tx[64];
 414:Core/Src/main.c ****         memset(tx, 0, 64);
 415:Core/Src/main.c ****         tx[0] = CMD_READ_SENSORS;
 416:Core/Src/main.c ****         for(int i=0; i<KEY_COUNT; i++) {
 417:Core/Src/main.c ****             float val = key_states[i].current_mm / TRAVEL_DISTANCE_MM;
 418:Core/Src/main.c ****             if (val > 1.0f) val = 1.0f; else if (val < 0.0f) val = 0.0f;
 419:Core/Src/main.c ****             tx[i+1] = (uint8_t)(val * 255.0f);
 420:Core/Src/main.c ****         }
 421:Core/Src/main.c ****         for(int i=0; i<KEY_COUNT; i++) tx[i+21] = key_states[i].is_pressed ? 1 : 0;
 422:Core/Src/main.c ****         for(int i=0; i<KEY_COUNT; i++) {
 423:Core/Src/main.c ****             float val = key_states[i].anchor_mm / TRAVEL_DISTANCE_MM;
ARM GAS  C:\Users\naoki\AppData\Local\Temp\ccaZtq1h.s 			page 46


 424:Core/Src/main.c ****             if (val > 1.0f) val = 1.0f; else if (val < 0.0f) val = 0.0f;
 425:Core/Src/main.c ****             tx[i+41] = (uint8_t)(val * 255.0f);
 426:Core/Src/main.c ****         }
 427:Core/Src/main.c ****         USBD_WebHID_SendReport(&hUsbDeviceFS, tx, 64);
 428:Core/Src/main.c ****     }
 429:Core/Src/main.c ****     else if (cmd == CMD_GET_CONFIG) { 
 1883              		.loc 1 429 10 is_stmt 1 view .LVU582
 1884              		.loc 1 429 13 is_stmt 0 view .LVU583
 1885 0008 102B     		cmp	r3, #16
 1886 000a 00F08C80 		beq	.L188
 430:Core/Src/main.c ****         static uint8_t tx[64];
 431:Core/Src/main.c ****         memset(tx, 0, 64);
 432:Core/Src/main.c ****         tx[0] = CMD_GET_CONFIG;
 433:Core/Src/main.c ****         tx[1] = g_socd_mode;
 434:Core/Src/main.c ****         for(int i=0; i<KEY_COUNT; i++) tx[i+2] = (uint8_t)(key_states[i].actuation_point * 10.0f);
 435:Core/Src/main.c ****         for(int i=0; i<KEY_COUNT; i++) tx[i+22] = (uint8_t)(key_states[i].rt_press * 10.0f);
 436:Core/Src/main.c ****         for(int i=0; i<KEY_COUNT; i++) tx[i+42] = key_map[i];
 437:Core/Src/main.c ****         
 438:Core/Src/main.c ****         USBD_WebHID_SendReport(&hUsbDeviceFS, tx, 64);
 439:Core/Src/main.c ****     }
 440:Core/Src/main.c ****     else if (cmd == CMD_SET_CONFIG) {
 1887              		.loc 1 440 10 is_stmt 1 view .LVU584
 1888              		.loc 1 440 13 is_stmt 0 view .LVU585
 1889 000e 202B     		cmp	r3, #32
 1890 0010 00F0D480 		beq	.L189
 441:Core/Src/main.c ****         uint8_t id = data[1];
 442:Core/Src/main.c ****         if (id < KEY_COUNT) {
 443:Core/Src/main.c ****             float ap = (float)data[2] / 10.0f;
 444:Core/Src/main.c ****             if (ap < 0.1f) ap = 0.1f; if (ap > 3.0f) ap = 3.0f;
 445:Core/Src/main.c ****             key_states[id].actuation_point = ap;
 446:Core/Src/main.c **** 
 447:Core/Src/main.c ****             float rt = (float)data[3] / 10.0f;
 448:Core/Src/main.c ****             if (rt < 0.1f) rt = 0.1f; if (rt > 3.0f) rt = 3.0f;
 449:Core/Src/main.c ****             key_states[id].rt_press = rt; key_states[id].rt_release = rt;
 450:Core/Src/main.c ****             
 451:Core/Src/main.c ****             float top = (float)data[4] / 100.0f;
 452:Core/Src/main.c ****             float btm = (float)data[5] / 100.0f;
 453:Core/Src/main.c ****             key_states[id].top_deadzone = top;
 454:Core/Src/main.c ****             key_states[id].bottom_deadzone = btm;
 455:Core/Src/main.c ****         }
 456:Core/Src/main.c ****     }
 457:Core/Src/main.c ****     else if (cmd == CMD_SET_SOCD) { g_socd_mode = data[1]; }
 1891              		.loc 1 457 10 is_stmt 1 view .LVU586
 1892              		.loc 1 457 13 is_stmt 0 view .LVU587
 1893 0014 602B     		cmp	r3, #96
 1894 0016 00F03281 		beq	.L190
 458:Core/Src/main.c ****     else if (cmd == CMD_SET_MAPPING) { 
 1895              		.loc 1 458 10 is_stmt 1 view .LVU588
 1896              		.loc 1 458 13 is_stmt 0 view .LVU589
 1897 001a 702B     		cmp	r3, #112
 1898 001c 00F03381 		beq	.L191
 459:Core/Src/main.c ****         uint8_t id = data[1];
 460:Core/Src/main.c ****         uint8_t btn = data[2];
 461:Core/Src/main.c ****         if (id < KEY_COUNT) key_map[id] = btn;
 462:Core/Src/main.c ****     }
 463:Core/Src/main.c ****     else if (cmd == CMD_SET_MACRO) {
 1899              		.loc 1 463 10 is_stmt 1 view .LVU590
ARM GAS  C:\Users\naoki\AppData\Local\Temp\ccaZtq1h.s 			page 47


 1900              		.loc 1 463 13 is_stmt 0 view .LVU591
 1901 0020 802B     		cmp	r3, #128
 1902 0022 00F03881 		beq	.L192
 464:Core/Src/main.c ****         uint8_t macro_id = data[1];
 465:Core/Src/main.c ****         if (macro_id < MAX_MACROS) {
 466:Core/Src/main.c ****             // ★修正: JS側でパックしたデータを正しく復元
 467:Core/Src/main.c ****             // JS: val = buttons | (LT << 8) | (RT << 16)
 468:Core/Src/main.c ****             // C:  custom_macros = val
 469:Core/Src/main.c ****             uint32_t val = data[2] | (data[3] << 8) | (data[4] << 16) | (data[5] << 24);
 470:Core/Src/main.c ****             custom_macros[macro_id] = val;
 471:Core/Src/main.c ****         }
 472:Core/Src/main.c ****     }
 473:Core/Src/main.c ****     else if (cmd == CMD_CALIBRATE) { g_req_calibrate = true; }
 1903              		.loc 1 473 10 is_stmt 1 view .LVU592
 1904              		.loc 1 473 13 is_stmt 0 view .LVU593
 1905 0026 402B     		cmp	r3, #64
 1906 0028 00F04781 		beq	.L193
 474:Core/Src/main.c ****     else if (cmd == CMD_SAVE_SETTINGS) { g_req_save = true; }
 1907              		.loc 1 474 10 is_stmt 1 view .LVU594
 1908              		.loc 1 474 13 is_stmt 0 view .LVU595
 1909 002c 502B     		cmp	r3, #80
 1910 002e 79D1     		bne	.L153
 1911              		.loc 1 474 42 is_stmt 1 discriminator 1 view .LVU596
 1912              		.loc 1 474 53 is_stmt 0 discriminator 1 view .LVU597
 1913 0030 A44B     		ldr	r3, .L203
 1914              	.LVL179:
 1915              		.loc 1 474 53 discriminator 1 view .LVU598
 1916 0032 0122     		movs	r2, #1
 1917 0034 1A70     		strb	r2, [r3]
 1918              	.LVL180:
 475:Core/Src/main.c **** }
 1919              		.loc 1 475 1 view .LVU599
 1920 0036 75E0     		b	.L153
 1921              	.LVL181:
 1922              	.L187:
 1923              	.LBB20:
 413:Core/Src/main.c ****         memset(tx, 0, 64);
 1924              		.loc 1 413 9 is_stmt 1 view .LVU600
 414:Core/Src/main.c ****         tx[0] = CMD_READ_SENSORS;
 1925              		.loc 1 414 9 view .LVU601
 1926 0038 4022     		movs	r2, #64
 1927 003a 0021     		movs	r1, #0
 1928              	.LVL182:
 414:Core/Src/main.c ****         tx[0] = CMD_READ_SENSORS;
 1929              		.loc 1 414 9 is_stmt 0 view .LVU602
 1930 003c A248     		ldr	r0, .L203+4
 1931              	.LVL183:
 414:Core/Src/main.c ****         tx[0] = CMD_READ_SENSORS;
 1932              		.loc 1 414 9 view .LVU603
 1933 003e FFF7FEFF 		bl	memset
 1934              	.LVL184:
 415:Core/Src/main.c ****         for(int i=0; i<KEY_COUNT; i++) {
 1935              		.loc 1 415 9 is_stmt 1 view .LVU604
 415:Core/Src/main.c ****         for(int i=0; i<KEY_COUNT; i++) {
 1936              		.loc 1 415 15 is_stmt 0 view .LVU605
 1937 0042 3023     		movs	r3, #48
 1938 0044 A04A     		ldr	r2, .L203+4
ARM GAS  C:\Users\naoki\AppData\Local\Temp\ccaZtq1h.s 			page 48


 1939 0046 1370     		strb	r3, [r2]
 416:Core/Src/main.c ****             float val = key_states[i].current_mm / TRAVEL_DISTANCE_MM;
 1940              		.loc 1 416 9 is_stmt 1 view .LVU606
 1941              	.LBB21:
 416:Core/Src/main.c ****             float val = key_states[i].current_mm / TRAVEL_DISTANCE_MM;
 1942              		.loc 1 416 13 view .LVU607
 1943              	.LVL185:
 416:Core/Src/main.c ****             float val = key_states[i].current_mm / TRAVEL_DISTANCE_MM;
 1944              		.loc 1 416 17 is_stmt 0 view .LVU608
 1945 0048 0022     		movs	r2, #0
 416:Core/Src/main.c ****             float val = key_states[i].current_mm / TRAVEL_DISTANCE_MM;
 1946              		.loc 1 416 9 view .LVU609
 1947 004a 0FE0     		b	.L155
 1948              	.LVL186:
 1949              	.L196:
 1950              	.LBB22:
 418:Core/Src/main.c ****             tx[i+1] = (uint8_t)(val * 255.0f);
 1951              		.loc 1 418 46 is_stmt 1 discriminator 2 view .LVU610
 418:Core/Src/main.c ****             tx[i+1] = (uint8_t)(val * 255.0f);
 1952              		.loc 1 418 49 is_stmt 0 discriminator 2 view .LVU611
 1953 004c F5EEC07A 		vcmpe.f32	s15, #0
 1954 0050 F1EE10FA 		vmrs	APSR_nzcv, FPSCR
 1955 0054 21D4     		bmi	.L194
 1956              	.LVL187:
 1957              	.L156:
 419:Core/Src/main.c ****         }
 1958              		.loc 1 419 13 is_stmt 1 view .LVU612
 419:Core/Src/main.c ****         }
 1959              		.loc 1 419 37 is_stmt 0 view .LVU613
 1960 0056 9FED9D7A 		vldr.32	s14, .L203+8
 1961 005a 67EE877A 		vmul.f32	s15, s15, s14
 1962              	.LVL188:
 419:Core/Src/main.c ****         }
 1963              		.loc 1 419 17 view .LVU614
 1964 005e 0132     		adds	r2, r2, #1
 1965              	.LVL189:
 419:Core/Src/main.c ****         }
 1966              		.loc 1 419 23 view .LVU615
 1967 0060 FCEEE77A 		vcvt.u32.f32	s15, s15
 1968 0064 17EE903A 		vmov	r3, s15	@ int
 419:Core/Src/main.c ****         }
 1969              		.loc 1 419 21 view .LVU616
 1970 0068 9749     		ldr	r1, .L203+4
 1971 006a 8B54     		strb	r3, [r1, r2]
 1972              	.LBE22:
 416:Core/Src/main.c ****             float val = key_states[i].current_mm / TRAVEL_DISTANCE_MM;
 1973              		.loc 1 416 36 is_stmt 1 discriminator 2 view .LVU617
 1974              	.LVL190:
 1975              	.L155:
 416:Core/Src/main.c ****             float val = key_states[i].current_mm / TRAVEL_DISTANCE_MM;
 1976              		.loc 1 416 23 discriminator 1 view .LVU618
 1977 006c 132A     		cmp	r2, #19
 1978 006e 17DC     		bgt	.L195
 1979              	.LBB23:
 417:Core/Src/main.c ****             if (val > 1.0f) val = 1.0f; else if (val < 0.0f) val = 0.0f;
 1980              		.loc 1 417 13 view .LVU619
 417:Core/Src/main.c ****             if (val > 1.0f) val = 1.0f; else if (val < 0.0f) val = 0.0f;
ARM GAS  C:\Users\naoki\AppData\Local\Temp\ccaZtq1h.s 			page 49


 1981              		.loc 1 417 38 is_stmt 0 view .LVU620
 1982 0070 02EBC201 		add	r1, r2, r2, lsl #3
 1983 0074 964B     		ldr	r3, .L203+12
 1984 0076 03EB8103 		add	r3, r3, r1, lsl #2
 1985 007a D3ED016A 		vldr.32	s13, [r3, #4]
 417:Core/Src/main.c ****             if (val > 1.0f) val = 1.0f; else if (val < 0.0f) val = 0.0f;
 1986              		.loc 1 417 19 view .LVU621
 1987 007e 9FED957A 		vldr.32	s14, .L203+16
 1988 0082 C6EE877A 		vdiv.f32	s15, s13, s14
 1989              	.LVL191:
 418:Core/Src/main.c ****             tx[i+1] = (uint8_t)(val * 255.0f);
 1990              		.loc 1 418 13 is_stmt 1 view .LVU622
 418:Core/Src/main.c ****             tx[i+1] = (uint8_t)(val * 255.0f);
 1991              		.loc 1 418 16 is_stmt 0 view .LVU623
 1992 0086 B7EE007A 		vmov.f32	s14, #1.0e+0
 1993 008a F4EEC77A 		vcmpe.f32	s15, s14
 1994 008e F1EE10FA 		vmrs	APSR_nzcv, FPSCR
 1995 0092 DBDD     		ble	.L196
 418:Core/Src/main.c ****             tx[i+1] = (uint8_t)(val * 255.0f);
 1996              		.loc 1 418 33 discriminator 1 view .LVU624
 1997 0094 F7EE007A 		vmov.f32	s15, #1.0e+0
 1998              	.LVL192:
 418:Core/Src/main.c ****             tx[i+1] = (uint8_t)(val * 255.0f);
 1999              		.loc 1 418 33 discriminator 1 view .LVU625
 2000 0098 DDE7     		b	.L156
 2001              	.LVL193:
 2002              	.L194:
 418:Core/Src/main.c ****             tx[i+1] = (uint8_t)(val * 255.0f);
 2003              		.loc 1 418 66 discriminator 3 view .LVU626
 2004 009a DFED8F7A 		vldr.32	s15, .L203+20
 2005              	.LVL194:
 418:Core/Src/main.c ****             tx[i+1] = (uint8_t)(val * 255.0f);
 2006              		.loc 1 418 66 discriminator 3 view .LVU627
 2007 009e DAE7     		b	.L156
 2008              	.LVL195:
 2009              	.L195:
 418:Core/Src/main.c ****             tx[i+1] = (uint8_t)(val * 255.0f);
 2010              		.loc 1 418 66 discriminator 3 view .LVU628
 2011              	.LBE23:
 2012              	.LBE21:
 2013              	.LBB24:
 421:Core/Src/main.c ****         for(int i=0; i<KEY_COUNT; i++) {
 2014              		.loc 1 421 17 view .LVU629
 2015 00a0 0023     		movs	r3, #0
 2016 00a2 0AE0     		b	.L158
 2017              	.LVL196:
 2018              	.L159:
 421:Core/Src/main.c ****         for(int i=0; i<KEY_COUNT; i++) {
 2019              		.loc 1 421 40 is_stmt 1 discriminator 3 view .LVU630
 421:Core/Src/main.c ****         for(int i=0; i<KEY_COUNT; i++) {
 2020              		.loc 1 421 64 is_stmt 0 discriminator 3 view .LVU631
 2021 00a4 03EBC301 		add	r1, r3, r3, lsl #3
 2022 00a8 894A     		ldr	r2, .L203+12
 2023 00aa 02EB8102 		add	r2, r2, r1, lsl #2
 2024 00ae 107B     		ldrb	r0, [r2, #12]	@ zero_extendqisi2
 421:Core/Src/main.c ****         for(int i=0; i<KEY_COUNT; i++) {
 2025              		.loc 1 421 44 discriminator 3 view .LVU632
ARM GAS  C:\Users\naoki\AppData\Local\Temp\ccaZtq1h.s 			page 50


 2026 00b0 03F11502 		add	r2, r3, #21
 421:Core/Src/main.c ****         for(int i=0; i<KEY_COUNT; i++) {
 2027              		.loc 1 421 49 discriminator 3 view .LVU633
 2028 00b4 8449     		ldr	r1, .L203+4
 2029 00b6 8854     		strb	r0, [r1, r2]
 421:Core/Src/main.c ****         for(int i=0; i<KEY_COUNT; i++) {
 2030              		.loc 1 421 36 is_stmt 1 discriminator 3 view .LVU634
 2031 00b8 0133     		adds	r3, r3, #1
 2032              	.LVL197:
 2033              	.L158:
 421:Core/Src/main.c ****         for(int i=0; i<KEY_COUNT; i++) {
 2034              		.loc 1 421 23 discriminator 1 view .LVU635
 2035 00ba 132B     		cmp	r3, #19
 2036 00bc F2DD     		ble	.L159
 2037              	.LBE24:
 2038              	.LBB25:
 422:Core/Src/main.c ****             float val = key_states[i].anchor_mm / TRAVEL_DISTANCE_MM;
 2039              		.loc 1 422 17 is_stmt 0 view .LVU636
 2040 00be 0022     		movs	r2, #0
 2041 00c0 11E0     		b	.L160
 2042              	.LVL198:
 2043              	.L199:
 2044              	.LBB26:
 424:Core/Src/main.c ****             tx[i+41] = (uint8_t)(val * 255.0f);
 2045              		.loc 1 424 46 is_stmt 1 discriminator 2 view .LVU637
 424:Core/Src/main.c ****             tx[i+41] = (uint8_t)(val * 255.0f);
 2046              		.loc 1 424 49 is_stmt 0 discriminator 2 view .LVU638
 2047 00c2 F5EEC07A 		vcmpe.f32	s15, #0
 2048 00c6 F1EE10FA 		vmrs	APSR_nzcv, FPSCR
 2049 00ca 23D4     		bmi	.L197
 2050              	.LVL199:
 2051              	.L161:
 425:Core/Src/main.c ****         }
 2052              		.loc 1 425 13 is_stmt 1 view .LVU639
 425:Core/Src/main.c ****         }
 2053              		.loc 1 425 38 is_stmt 0 view .LVU640
 2054 00cc 9FED7F7A 		vldr.32	s14, .L203+8
 2055 00d0 67EE877A 		vmul.f32	s15, s15, s14
 2056              	.LVL200:
 425:Core/Src/main.c ****         }
 2057              		.loc 1 425 17 view .LVU641
 2058 00d4 02F12901 		add	r1, r2, #41
 425:Core/Src/main.c ****         }
 2059              		.loc 1 425 24 view .LVU642
 2060 00d8 FCEEE77A 		vcvt.u32.f32	s15, s15
 2061 00dc 17EE903A 		vmov	r3, s15	@ int
 425:Core/Src/main.c ****         }
 2062              		.loc 1 425 22 view .LVU643
 2063 00e0 7948     		ldr	r0, .L203+4
 2064 00e2 4354     		strb	r3, [r0, r1]
 2065              	.LBE26:
 422:Core/Src/main.c ****             float val = key_states[i].anchor_mm / TRAVEL_DISTANCE_MM;
 2066              		.loc 1 422 36 is_stmt 1 discriminator 2 view .LVU644
 2067 00e4 0132     		adds	r2, r2, #1
 2068              	.LVL201:
 2069              	.L160:
 422:Core/Src/main.c ****             float val = key_states[i].anchor_mm / TRAVEL_DISTANCE_MM;
ARM GAS  C:\Users\naoki\AppData\Local\Temp\ccaZtq1h.s 			page 51


 2070              		.loc 1 422 23 discriminator 1 view .LVU645
 2071 00e6 132A     		cmp	r2, #19
 2072 00e8 17DC     		bgt	.L198
 2073              	.LBB27:
 423:Core/Src/main.c ****             if (val > 1.0f) val = 1.0f; else if (val < 0.0f) val = 0.0f;
 2074              		.loc 1 423 13 view .LVU646
 423:Core/Src/main.c ****             if (val > 1.0f) val = 1.0f; else if (val < 0.0f) val = 0.0f;
 2075              		.loc 1 423 38 is_stmt 0 view .LVU647
 2076 00ea 02EBC201 		add	r1, r2, r2, lsl #3
 2077 00ee 784B     		ldr	r3, .L203+12
 2078 00f0 03EB8103 		add	r3, r3, r1, lsl #2
 2079 00f4 D3ED026A 		vldr.32	s13, [r3, #8]
 423:Core/Src/main.c ****             if (val > 1.0f) val = 1.0f; else if (val < 0.0f) val = 0.0f;
 2080              		.loc 1 423 19 view .LVU648
 2081 00f8 9FED767A 		vldr.32	s14, .L203+16
 2082 00fc C6EE877A 		vdiv.f32	s15, s13, s14
 2083              	.LVL202:
 424:Core/Src/main.c ****             tx[i+41] = (uint8_t)(val * 255.0f);
 2084              		.loc 1 424 13 is_stmt 1 view .LVU649
 424:Core/Src/main.c ****             tx[i+41] = (uint8_t)(val * 255.0f);
 2085              		.loc 1 424 16 is_stmt 0 view .LVU650
 2086 0100 B7EE007A 		vmov.f32	s14, #1.0e+0
 2087 0104 F4EEC77A 		vcmpe.f32	s15, s14
 2088 0108 F1EE10FA 		vmrs	APSR_nzcv, FPSCR
 2089 010c D9DD     		ble	.L199
 424:Core/Src/main.c ****             tx[i+41] = (uint8_t)(val * 255.0f);
 2090              		.loc 1 424 33 discriminator 1 view .LVU651
 2091 010e F7EE007A 		vmov.f32	s15, #1.0e+0
 2092              	.LVL203:
 424:Core/Src/main.c ****             tx[i+41] = (uint8_t)(val * 255.0f);
 2093              		.loc 1 424 33 discriminator 1 view .LVU652
 2094 0112 DBE7     		b	.L161
 2095              	.LVL204:
 2096              	.L197:
 424:Core/Src/main.c ****             tx[i+41] = (uint8_t)(val * 255.0f);
 2097              		.loc 1 424 66 discriminator 3 view .LVU653
 2098 0114 DFED707A 		vldr.32	s15, .L203+20
 2099              	.LVL205:
 424:Core/Src/main.c ****             tx[i+41] = (uint8_t)(val * 255.0f);
 2100              		.loc 1 424 66 discriminator 3 view .LVU654
 2101 0118 D8E7     		b	.L161
 2102              	.LVL206:
 2103              	.L198:
 424:Core/Src/main.c ****             tx[i+41] = (uint8_t)(val * 255.0f);
 2104              		.loc 1 424 66 discriminator 3 view .LVU655
 2105              	.LBE27:
 2106              	.LBE25:
 427:Core/Src/main.c ****     }
 2107              		.loc 1 427 9 is_stmt 1 view .LVU656
 2108 011a 4022     		movs	r2, #64
 2109              	.LVL207:
 427:Core/Src/main.c ****     }
 2110              		.loc 1 427 9 is_stmt 0 view .LVU657
 2111 011c 6A49     		ldr	r1, .L203+4
 2112 011e 6F48     		ldr	r0, .L203+24
 2113 0120 FFF7FEFF 		bl	USBD_WebHID_SendReport
 2114              	.LVL208:
ARM GAS  C:\Users\naoki\AppData\Local\Temp\ccaZtq1h.s 			page 52


 2115              	.L153:
 427:Core/Src/main.c ****     }
 2116              		.loc 1 427 9 view .LVU658
 2117              	.LBE20:
 2118              		.loc 1 475 1 view .LVU659
 2119 0124 08BD     		pop	{r3, pc}
 2120              	.LVL209:
 2121              	.L188:
 2122              	.LBB28:
 430:Core/Src/main.c ****         memset(tx, 0, 64);
 2123              		.loc 1 430 9 is_stmt 1 view .LVU660
 431:Core/Src/main.c ****         tx[0] = CMD_GET_CONFIG;
 2124              		.loc 1 431 9 view .LVU661
 2125 0126 4022     		movs	r2, #64
 2126 0128 0021     		movs	r1, #0
 2127              	.LVL210:
 431:Core/Src/main.c ****         tx[0] = CMD_GET_CONFIG;
 2128              		.loc 1 431 9 is_stmt 0 view .LVU662
 2129 012a 6D48     		ldr	r0, .L203+28
 2130              	.LVL211:
 431:Core/Src/main.c ****         tx[0] = CMD_GET_CONFIG;
 2131              		.loc 1 431 9 view .LVU663
 2132 012c FFF7FEFF 		bl	memset
 2133              	.LVL212:
 432:Core/Src/main.c ****         tx[1] = g_socd_mode;
 2134              		.loc 1 432 9 is_stmt 1 view .LVU664
 432:Core/Src/main.c ****         tx[1] = g_socd_mode;
 2135              		.loc 1 432 15 is_stmt 0 view .LVU665
 2136 0130 1023     		movs	r3, #16
 2137 0132 6B4A     		ldr	r2, .L203+28
 2138 0134 1370     		strb	r3, [r2]
 433:Core/Src/main.c ****         for(int i=0; i<KEY_COUNT; i++) tx[i+2] = (uint8_t)(key_states[i].actuation_point * 10.0f);
 2139              		.loc 1 433 9 is_stmt 1 view .LVU666
 433:Core/Src/main.c ****         for(int i=0; i<KEY_COUNT; i++) tx[i+2] = (uint8_t)(key_states[i].actuation_point * 10.0f);
 2140              		.loc 1 433 15 is_stmt 0 view .LVU667
 2141 0136 6B4B     		ldr	r3, .L203+32
 2142 0138 1B78     		ldrb	r3, [r3]	@ zero_extendqisi2
 2143 013a 5370     		strb	r3, [r2, #1]
 434:Core/Src/main.c ****         for(int i=0; i<KEY_COUNT; i++) tx[i+22] = (uint8_t)(key_states[i].rt_press * 10.0f);
 2144              		.loc 1 434 9 is_stmt 1 view .LVU668
 2145              	.LBB29:
 434:Core/Src/main.c ****         for(int i=0; i<KEY_COUNT; i++) tx[i+22] = (uint8_t)(key_states[i].rt_press * 10.0f);
 2146              		.loc 1 434 13 view .LVU669
 2147              	.LVL213:
 434:Core/Src/main.c ****         for(int i=0; i<KEY_COUNT; i++) tx[i+22] = (uint8_t)(key_states[i].rt_press * 10.0f);
 2148              		.loc 1 434 17 is_stmt 0 view .LVU670
 2149 013c 0023     		movs	r3, #0
 2150              	.LVL214:
 2151              	.L165:
 434:Core/Src/main.c ****         for(int i=0; i<KEY_COUNT; i++) tx[i+22] = (uint8_t)(key_states[i].rt_press * 10.0f);
 2152              		.loc 1 434 23 is_stmt 1 discriminator 1 view .LVU671
 2153 013e 132B     		cmp	r3, #19
 2154 0140 13DC     		bgt	.L200
 434:Core/Src/main.c ****         for(int i=0; i<KEY_COUNT; i++) tx[i+22] = (uint8_t)(key_states[i].rt_press * 10.0f);
 2155              		.loc 1 434 40 discriminator 3 view .LVU672
 434:Core/Src/main.c ****         for(int i=0; i<KEY_COUNT; i++) tx[i+22] = (uint8_t)(key_states[i].rt_press * 10.0f);
 2156              		.loc 1 434 73 is_stmt 0 discriminator 3 view .LVU673
ARM GAS  C:\Users\naoki\AppData\Local\Temp\ccaZtq1h.s 			page 53


 2157 0142 03EBC301 		add	r1, r3, r3, lsl #3
 2158 0146 624A     		ldr	r2, .L203+12
 2159 0148 02EB8102 		add	r2, r2, r1, lsl #2
 2160 014c D2ED047A 		vldr.32	s15, [r2, #16]
 434:Core/Src/main.c ****         for(int i=0; i<KEY_COUNT; i++) tx[i+22] = (uint8_t)(key_states[i].rt_press * 10.0f);
 2161              		.loc 1 434 90 discriminator 3 view .LVU674
 2162 0150 B2EE047A 		vmov.f32	s14, #1.0e+1
 2163 0154 67EE877A 		vmul.f32	s15, s15, s14
 434:Core/Src/main.c ****         for(int i=0; i<KEY_COUNT; i++) tx[i+22] = (uint8_t)(key_states[i].rt_press * 10.0f);
 2164              		.loc 1 434 44 discriminator 3 view .LVU675
 2165 0158 991C     		adds	r1, r3, #2
 434:Core/Src/main.c ****         for(int i=0; i<KEY_COUNT; i++) tx[i+22] = (uint8_t)(key_states[i].rt_press * 10.0f);
 2166              		.loc 1 434 50 discriminator 3 view .LVU676
 2167 015a FCEEE77A 		vcvt.u32.f32	s15, s15
 2168 015e 17EE902A 		vmov	r2, s15	@ int
 434:Core/Src/main.c ****         for(int i=0; i<KEY_COUNT; i++) tx[i+22] = (uint8_t)(key_states[i].rt_press * 10.0f);
 2169              		.loc 1 434 48 discriminator 3 view .LVU677
 2170 0162 5F48     		ldr	r0, .L203+28
 2171 0164 4254     		strb	r2, [r0, r1]
 434:Core/Src/main.c ****         for(int i=0; i<KEY_COUNT; i++) tx[i+22] = (uint8_t)(key_states[i].rt_press * 10.0f);
 2172              		.loc 1 434 36 is_stmt 1 discriminator 3 view .LVU678
 2173 0166 0133     		adds	r3, r3, #1
 2174              	.LVL215:
 434:Core/Src/main.c ****         for(int i=0; i<KEY_COUNT; i++) tx[i+22] = (uint8_t)(key_states[i].rt_press * 10.0f);
 2175              		.loc 1 434 36 is_stmt 0 discriminator 3 view .LVU679
 2176 0168 E9E7     		b	.L165
 2177              	.LVL216:
 2178              	.L200:
 434:Core/Src/main.c ****         for(int i=0; i<KEY_COUNT; i++) tx[i+22] = (uint8_t)(key_states[i].rt_press * 10.0f);
 2179              		.loc 1 434 36 discriminator 3 view .LVU680
 2180              	.LBE29:
 2181              	.LBB30:
 435:Core/Src/main.c ****         for(int i=0; i<KEY_COUNT; i++) tx[i+42] = key_map[i];
 2182              		.loc 1 435 17 view .LVU681
 2183 016a 0023     		movs	r3, #0
 2184              	.LVL217:
 2185              	.L167:
 435:Core/Src/main.c ****         for(int i=0; i<KEY_COUNT; i++) tx[i+42] = key_map[i];
 2186              		.loc 1 435 23 is_stmt 1 discriminator 1 view .LVU682
 2187 016c 132B     		cmp	r3, #19
 2188 016e 14DC     		bgt	.L201
 435:Core/Src/main.c ****         for(int i=0; i<KEY_COUNT; i++) tx[i+42] = key_map[i];
 2189              		.loc 1 435 40 discriminator 3 view .LVU683
 435:Core/Src/main.c ****         for(int i=0; i<KEY_COUNT; i++) tx[i+42] = key_map[i];
 2190              		.loc 1 435 74 is_stmt 0 discriminator 3 view .LVU684
 2191 0170 03EBC301 		add	r1, r3, r3, lsl #3
 2192 0174 564A     		ldr	r2, .L203+12
 2193 0176 02EB8102 		add	r2, r2, r1, lsl #2
 2194 017a D2ED057A 		vldr.32	s15, [r2, #20]
 435:Core/Src/main.c ****         for(int i=0; i<KEY_COUNT; i++) tx[i+42] = key_map[i];
 2195              		.loc 1 435 84 discriminator 3 view .LVU685
 2196 017e B2EE047A 		vmov.f32	s14, #1.0e+1
 2197 0182 67EE877A 		vmul.f32	s15, s15, s14
 435:Core/Src/main.c ****         for(int i=0; i<KEY_COUNT; i++) tx[i+42] = key_map[i];
 2198              		.loc 1 435 44 discriminator 3 view .LVU686
 2199 0186 03F11601 		add	r1, r3, #22
 435:Core/Src/main.c ****         for(int i=0; i<KEY_COUNT; i++) tx[i+42] = key_map[i];
ARM GAS  C:\Users\naoki\AppData\Local\Temp\ccaZtq1h.s 			page 54


 2200              		.loc 1 435 51 discriminator 3 view .LVU687
 2201 018a FCEEE77A 		vcvt.u32.f32	s15, s15
 2202 018e 17EE902A 		vmov	r2, s15	@ int
 435:Core/Src/main.c ****         for(int i=0; i<KEY_COUNT; i++) tx[i+42] = key_map[i];
 2203              		.loc 1 435 49 discriminator 3 view .LVU688
 2204 0192 5348     		ldr	r0, .L203+28
 2205 0194 4254     		strb	r2, [r0, r1]
 435:Core/Src/main.c ****         for(int i=0; i<KEY_COUNT; i++) tx[i+42] = key_map[i];
 2206              		.loc 1 435 36 is_stmt 1 discriminator 3 view .LVU689
 2207 0196 0133     		adds	r3, r3, #1
 2208              	.LVL218:
 435:Core/Src/main.c ****         for(int i=0; i<KEY_COUNT; i++) tx[i+42] = key_map[i];
 2209              		.loc 1 435 36 is_stmt 0 discriminator 3 view .LVU690
 2210 0198 E8E7     		b	.L167
 2211              	.LVL219:
 2212              	.L201:
 435:Core/Src/main.c ****         for(int i=0; i<KEY_COUNT; i++) tx[i+42] = key_map[i];
 2213              		.loc 1 435 36 discriminator 3 view .LVU691
 2214              	.LBE30:
 2215              	.LBB31:
 436:Core/Src/main.c ****         
 2216              		.loc 1 436 17 view .LVU692
 2217 019a 0023     		movs	r3, #0
 2218              	.LVL220:
 2219              	.L169:
 436:Core/Src/main.c ****         
 2220              		.loc 1 436 23 is_stmt 1 discriminator 1 view .LVU693
 2221 019c 132B     		cmp	r3, #19
 2222 019e 07DC     		bgt	.L202
 436:Core/Src/main.c ****         
 2223              		.loc 1 436 40 discriminator 3 view .LVU694
 436:Core/Src/main.c ****         
 2224              		.loc 1 436 44 is_stmt 0 discriminator 3 view .LVU695
 2225 01a0 03F12A02 		add	r2, r3, #42
 436:Core/Src/main.c ****         
 2226              		.loc 1 436 58 discriminator 3 view .LVU696
 2227 01a4 5049     		ldr	r1, .L203+36
 2228 01a6 C85C     		ldrb	r0, [r1, r3]	@ zero_extendqisi2
 436:Core/Src/main.c ****         
 2229              		.loc 1 436 49 discriminator 3 view .LVU697
 2230 01a8 4D49     		ldr	r1, .L203+28
 2231 01aa 8854     		strb	r0, [r1, r2]
 436:Core/Src/main.c ****         
 2232              		.loc 1 436 36 is_stmt 1 discriminator 3 view .LVU698
 2233 01ac 0133     		adds	r3, r3, #1
 2234              	.LVL221:
 436:Core/Src/main.c ****         
 2235              		.loc 1 436 36 is_stmt 0 discriminator 3 view .LVU699
 2236 01ae F5E7     		b	.L169
 2237              	.LVL222:
 2238              	.L202:
 436:Core/Src/main.c ****         
 2239              		.loc 1 436 36 discriminator 3 view .LVU700
 2240              	.LBE31:
 438:Core/Src/main.c ****     }
 2241              		.loc 1 438 9 is_stmt 1 view .LVU701
 2242 01b0 4022     		movs	r2, #64
ARM GAS  C:\Users\naoki\AppData\Local\Temp\ccaZtq1h.s 			page 55


 2243 01b2 4B49     		ldr	r1, .L203+28
 2244 01b4 4948     		ldr	r0, .L203+24
 2245 01b6 FFF7FEFF 		bl	USBD_WebHID_SendReport
 2246              	.LVL223:
 438:Core/Src/main.c ****     }
 2247              		.loc 1 438 9 is_stmt 0 view .LVU702
 2248              	.LBE28:
 2249 01ba B3E7     		b	.L153
 2250              	.LVL224:
 2251              	.L189:
 2252              	.LBB32:
 441:Core/Src/main.c ****         if (id < KEY_COUNT) {
 2253              		.loc 1 441 9 is_stmt 1 view .LVU703
 441:Core/Src/main.c ****         if (id < KEY_COUNT) {
 2254              		.loc 1 441 17 is_stmt 0 view .LVU704
 2255 01bc 4378     		ldrb	r3, [r0, #1]	@ zero_extendqisi2
 2256              	.LVL225:
 442:Core/Src/main.c ****             float ap = (float)data[2] / 10.0f;
 2257              		.loc 1 442 9 is_stmt 1 view .LVU705
 442:Core/Src/main.c ****             float ap = (float)data[2] / 10.0f;
 2258              		.loc 1 442 12 is_stmt 0 view .LVU706
 2259 01be 132B     		cmp	r3, #19
 2260 01c0 B0D8     		bhi	.L153
 2261              	.LBB33:
 443:Core/Src/main.c ****             if (ap < 0.1f) ap = 0.1f; if (ap > 3.0f) ap = 3.0f;
 2262              		.loc 1 443 13 is_stmt 1 view .LVU707
 443:Core/Src/main.c ****             if (ap < 0.1f) ap = 0.1f; if (ap > 3.0f) ap = 3.0f;
 2263              		.loc 1 443 35 is_stmt 0 view .LVU708
 2264 01c2 8278     		ldrb	r2, [r0, #2]	@ zero_extendqisi2
 2265 01c4 07EE102A 		vmov	s14, r2	@ int
 443:Core/Src/main.c ****             if (ap < 0.1f) ap = 0.1f; if (ap > 3.0f) ap = 3.0f;
 2266              		.loc 1 443 24 view .LVU709
 2267 01c8 B8EE477A 		vcvt.f32.u32	s14, s14
 443:Core/Src/main.c ****             if (ap < 0.1f) ap = 0.1f; if (ap > 3.0f) ap = 3.0f;
 2268              		.loc 1 443 19 view .LVU710
 2269 01cc F2EE046A 		vmov.f32	s13, #1.0e+1
 2270 01d0 C7EE267A 		vdiv.f32	s15, s14, s13
 2271              	.LVL226:
 444:Core/Src/main.c ****             key_states[id].actuation_point = ap;
 2272              		.loc 1 444 13 is_stmt 1 view .LVU711
 444:Core/Src/main.c ****             key_states[id].actuation_point = ap;
 2273              		.loc 1 444 16 is_stmt 0 view .LVU712
 2274 01d4 9FED457A 		vldr.32	s14, .L203+40
 2275 01d8 F4EEC77A 		vcmpe.f32	s15, s14
 2276 01dc F1EE10FA 		vmrs	APSR_nzcv, FPSCR
 2277 01e0 09D4     		bmi	.L182
 444:Core/Src/main.c ****             key_states[id].actuation_point = ap;
 2278              		.loc 1 444 39 is_stmt 1 discriminator 3 view .LVU713
 444:Core/Src/main.c ****             key_states[id].actuation_point = ap;
 2279              		.loc 1 444 42 is_stmt 0 discriminator 3 view .LVU714
 2280 01e2 B0EE087A 		vmov.f32	s14, #3.0e+0
 2281 01e6 F4EEC77A 		vcmpe.f32	s15, s14
 2282 01ea F1EE10FA 		vmrs	APSR_nzcv, FPSCR
 2283 01ee 04DD     		ble	.L172
 444:Core/Src/main.c ****             key_states[id].actuation_point = ap;
 2284              		.loc 1 444 57 discriminator 4 view .LVU715
 2285 01f0 F0EE087A 		vmov.f32	s15, #3.0e+0
ARM GAS  C:\Users\naoki\AppData\Local\Temp\ccaZtq1h.s 			page 56


 2286              	.LVL227:
 444:Core/Src/main.c ****             key_states[id].actuation_point = ap;
 2287              		.loc 1 444 57 discriminator 4 view .LVU716
 2288 01f4 01E0     		b	.L172
 2289              	.LVL228:
 2290              	.L182:
 444:Core/Src/main.c ****             key_states[id].actuation_point = ap;
 2291              		.loc 1 444 31 discriminator 1 view .LVU717
 2292 01f6 DFED3D7A 		vldr.32	s15, .L203+40
 2293              	.LVL229:
 2294              	.L172:
 445:Core/Src/main.c **** 
 2295              		.loc 1 445 13 is_stmt 1 view .LVU718
 445:Core/Src/main.c **** 
 2296              		.loc 1 445 44 is_stmt 0 view .LVU719
 2297 01fa 03EBC301 		add	r1, r3, r3, lsl #3
 2298              	.LVL230:
 445:Core/Src/main.c **** 
 2299              		.loc 1 445 44 view .LVU720
 2300 01fe 344A     		ldr	r2, .L203+12
 2301 0200 02EB8102 		add	r2, r2, r1, lsl #2
 2302 0204 C2ED047A 		vstr.32	s15, [r2, #16]
 2303              	.LVL231:
 447:Core/Src/main.c ****             if (rt < 0.1f) rt = 0.1f; if (rt > 3.0f) rt = 3.0f;
 2304              		.loc 1 447 13 is_stmt 1 view .LVU721
 447:Core/Src/main.c ****             if (rt < 0.1f) rt = 0.1f; if (rt > 3.0f) rt = 3.0f;
 2305              		.loc 1 447 35 is_stmt 0 view .LVU722
 2306 0208 C278     		ldrb	r2, [r0, #3]	@ zero_extendqisi2
 2307 020a 07EE102A 		vmov	s14, r2	@ int
 447:Core/Src/main.c ****             if (rt < 0.1f) rt = 0.1f; if (rt > 3.0f) rt = 3.0f;
 2308              		.loc 1 447 24 view .LVU723
 2309 020e B8EE477A 		vcvt.f32.u32	s14, s14
 447:Core/Src/main.c ****             if (rt < 0.1f) rt = 0.1f; if (rt > 3.0f) rt = 3.0f;
 2310              		.loc 1 447 19 view .LVU724
 2311 0212 F2EE046A 		vmov.f32	s13, #1.0e+1
 2312 0216 C7EE267A 		vdiv.f32	s15, s14, s13
 2313              	.LVL232:
 448:Core/Src/main.c ****             key_states[id].rt_press = rt; key_states[id].rt_release = rt;
 2314              		.loc 1 448 13 is_stmt 1 view .LVU725
 448:Core/Src/main.c ****             key_states[id].rt_press = rt; key_states[id].rt_release = rt;
 2315              		.loc 1 448 16 is_stmt 0 view .LVU726
 2316 021a 9FED347A 		vldr.32	s14, .L203+40
 2317 021e F4EEC77A 		vcmpe.f32	s15, s14
 2318 0222 F1EE10FA 		vmrs	APSR_nzcv, FPSCR
 2319 0226 09D4     		bmi	.L184
 448:Core/Src/main.c ****             key_states[id].rt_press = rt; key_states[id].rt_release = rt;
 2320              		.loc 1 448 39 is_stmt 1 discriminator 3 view .LVU727
 448:Core/Src/main.c ****             key_states[id].rt_press = rt; key_states[id].rt_release = rt;
 2321              		.loc 1 448 42 is_stmt 0 discriminator 3 view .LVU728
 2322 0228 B0EE087A 		vmov.f32	s14, #3.0e+0
 2323 022c F4EEC77A 		vcmpe.f32	s15, s14
 2324 0230 F1EE10FA 		vmrs	APSR_nzcv, FPSCR
 2325 0234 04DD     		ble	.L173
 448:Core/Src/main.c ****             key_states[id].rt_press = rt; key_states[id].rt_release = rt;
 2326              		.loc 1 448 57 discriminator 4 view .LVU729
 2327 0236 F0EE087A 		vmov.f32	s15, #3.0e+0
 2328              	.LVL233:
ARM GAS  C:\Users\naoki\AppData\Local\Temp\ccaZtq1h.s 			page 57


 448:Core/Src/main.c ****             key_states[id].rt_press = rt; key_states[id].rt_release = rt;
 2329              		.loc 1 448 57 discriminator 4 view .LVU730
 2330 023a 01E0     		b	.L173
 2331              	.LVL234:
 2332              	.L184:
 448:Core/Src/main.c ****             key_states[id].rt_press = rt; key_states[id].rt_release = rt;
 2333              		.loc 1 448 31 discriminator 1 view .LVU731
 2334 023c DFED2B7A 		vldr.32	s15, .L203+40
 2335              	.LVL235:
 2336              	.L173:
 449:Core/Src/main.c ****             
 2337              		.loc 1 449 13 is_stmt 1 view .LVU732
 449:Core/Src/main.c ****             
 2338              		.loc 1 449 37 is_stmt 0 view .LVU733
 2339 0240 2349     		ldr	r1, .L203+12
 2340              	.LVL236:
 449:Core/Src/main.c ****             
 2341              		.loc 1 449 37 view .LVU734
 2342 0242 03EBC302 		add	r2, r3, r3, lsl #3
 2343 0246 01EB8202 		add	r2, r1, r2, lsl #2
 2344 024a C2ED057A 		vstr.32	s15, [r2, #20]
 449:Core/Src/main.c ****             
 2345              		.loc 1 449 43 is_stmt 1 view .LVU735
 449:Core/Src/main.c ****             
 2346              		.loc 1 449 69 is_stmt 0 view .LVU736
 2347 024e C2ED067A 		vstr.32	s15, [r2, #24]
 451:Core/Src/main.c ****             float btm = (float)data[5] / 100.0f;
 2348              		.loc 1 451 13 is_stmt 1 view .LVU737
 451:Core/Src/main.c ****             float btm = (float)data[5] / 100.0f;
 2349              		.loc 1 451 36 is_stmt 0 view .LVU738
 2350 0252 90F804C0 		ldrb	ip, [r0, #4]	@ zero_extendqisi2
 2351 0256 07EE90CA 		vmov	s15, ip	@ int
 2352              	.LVL237:
 451:Core/Src/main.c ****             float btm = (float)data[5] / 100.0f;
 2353              		.loc 1 451 25 view .LVU739
 2354 025a F8EE677A 		vcvt.f32.u32	s15, s15
 451:Core/Src/main.c ****             float btm = (float)data[5] / 100.0f;
 2355              		.loc 1 451 19 view .LVU740
 2356 025e 9FED247A 		vldr.32	s14, .L203+44
 2357 0262 87EE876A 		vdiv.f32	s12, s15, s14
 2358              	.LVL238:
 452:Core/Src/main.c ****             key_states[id].top_deadzone = top;
 2359              		.loc 1 452 13 is_stmt 1 view .LVU741
 452:Core/Src/main.c ****             key_states[id].top_deadzone = top;
 2360              		.loc 1 452 36 is_stmt 0 view .LVU742
 2361 0266 4079     		ldrb	r0, [r0, #5]	@ zero_extendqisi2
 2362              	.LVL239:
 452:Core/Src/main.c ****             key_states[id].top_deadzone = top;
 2363              		.loc 1 452 36 view .LVU743
 2364 0268 07EE900A 		vmov	s15, r0	@ int
 452:Core/Src/main.c ****             key_states[id].top_deadzone = top;
 2365              		.loc 1 452 25 view .LVU744
 2366 026c F8EE677A 		vcvt.f32.u32	s15, s15
 452:Core/Src/main.c ****             key_states[id].top_deadzone = top;
 2367              		.loc 1 452 19 view .LVU745
 2368 0270 C7EE876A 		vdiv.f32	s13, s15, s14
 2369              	.LVL240:
ARM GAS  C:\Users\naoki\AppData\Local\Temp\ccaZtq1h.s 			page 58


 453:Core/Src/main.c ****             key_states[id].bottom_deadzone = btm;
 2370              		.loc 1 453 13 is_stmt 1 view .LVU746
 453:Core/Src/main.c ****             key_states[id].bottom_deadzone = btm;
 2371              		.loc 1 453 41 is_stmt 0 view .LVU747
 2372 0274 82ED076A 		vstr.32	s12, [r2, #28]
 454:Core/Src/main.c ****         }
 2373              		.loc 1 454 13 is_stmt 1 view .LVU748
 454:Core/Src/main.c ****         }
 2374              		.loc 1 454 44 is_stmt 0 view .LVU749
 2375 0278 C2ED086A 		vstr.32	s13, [r2, #32]
 2376 027c 52E7     		b	.L153
 2377              	.LVL241:
 2378              	.L190:
 454:Core/Src/main.c ****         }
 2379              		.loc 1 454 44 view .LVU750
 2380              	.LBE33:
 2381              	.LBE32:
 457:Core/Src/main.c ****     else if (cmd == CMD_SET_MAPPING) { 
 2382              		.loc 1 457 37 is_stmt 1 discriminator 1 view .LVU751
 457:Core/Src/main.c ****     else if (cmd == CMD_SET_MAPPING) { 
 2383              		.loc 1 457 49 is_stmt 0 discriminator 1 view .LVU752
 2384 027e 4278     		ldrb	r2, [r0, #1]	@ zero_extendqisi2
 2385 0280 184B     		ldr	r3, .L203+32
 2386              	.LVL242:
 457:Core/Src/main.c ****     else if (cmd == CMD_SET_MAPPING) { 
 2387              		.loc 1 457 49 discriminator 1 view .LVU753
 2388 0282 1A70     		strb	r2, [r3]
 2389              	.LVL243:
 457:Core/Src/main.c ****     else if (cmd == CMD_SET_MAPPING) { 
 2390              		.loc 1 457 49 discriminator 1 view .LVU754
 2391 0284 4EE7     		b	.L153
 2392              	.LVL244:
 2393              	.L191:
 2394              	.LBB34:
 459:Core/Src/main.c ****         uint8_t btn = data[2];
 2395              		.loc 1 459 9 is_stmt 1 view .LVU755
 459:Core/Src/main.c ****         uint8_t btn = data[2];
 2396              		.loc 1 459 17 is_stmt 0 view .LVU756
 2397 0286 4378     		ldrb	r3, [r0, #1]	@ zero_extendqisi2
 2398              	.LVL245:
 460:Core/Src/main.c ****         if (id < KEY_COUNT) key_map[id] = btn;
 2399              		.loc 1 460 9 is_stmt 1 view .LVU757
 460:Core/Src/main.c ****         if (id < KEY_COUNT) key_map[id] = btn;
 2400              		.loc 1 460 17 is_stmt 0 view .LVU758
 2401 0288 8278     		ldrb	r2, [r0, #2]	@ zero_extendqisi2
 2402              	.LVL246:
 461:Core/Src/main.c ****     }
 2403              		.loc 1 461 9 is_stmt 1 view .LVU759
 461:Core/Src/main.c ****     }
 2404              		.loc 1 461 12 is_stmt 0 view .LVU760
 2405 028a 132B     		cmp	r3, #19
 2406 028c 3FF64AAF 		bhi	.L153
 461:Core/Src/main.c ****     }
 2407              		.loc 1 461 29 is_stmt 1 discriminator 1 view .LVU761
 461:Core/Src/main.c ****     }
 2408              		.loc 1 461 41 is_stmt 0 discriminator 1 view .LVU762
 2409 0290 1549     		ldr	r1, .L203+36
ARM GAS  C:\Users\naoki\AppData\Local\Temp\ccaZtq1h.s 			page 59


 2410              	.LVL247:
 461:Core/Src/main.c ****     }
 2411              		.loc 1 461 41 discriminator 1 view .LVU763
 2412 0292 CA54     		strb	r2, [r1, r3]
 2413              	.LVL248:
 461:Core/Src/main.c ****     }
 2414              		.loc 1 461 41 discriminator 1 view .LVU764
 2415 0294 46E7     		b	.L153
 2416              	.LVL249:
 2417              	.L192:
 461:Core/Src/main.c ****     }
 2418              		.loc 1 461 41 discriminator 1 view .LVU765
 2419              	.LBE34:
 2420              	.LBB35:
 464:Core/Src/main.c ****         if (macro_id < MAX_MACROS) {
 2421              		.loc 1 464 9 is_stmt 1 view .LVU766
 464:Core/Src/main.c ****         if (macro_id < MAX_MACROS) {
 2422              		.loc 1 464 17 is_stmt 0 view .LVU767
 2423 0296 4278     		ldrb	r2, [r0, #1]	@ zero_extendqisi2
 2424              	.LVL250:
 465:Core/Src/main.c ****             // ★修正: JS側でパックしたデータを正しく復元
 2425              		.loc 1 465 9 is_stmt 1 view .LVU768
 465:Core/Src/main.c ****             // ★修正: JS側でパックしたデータを正しく復元
 2426              		.loc 1 465 12 is_stmt 0 view .LVU769
 2427 0298 072A     		cmp	r2, #7
 2428 029a 3FF643AF 		bhi	.L153
 2429              	.LBB36:
 469:Core/Src/main.c ****             custom_macros[macro_id] = val;
 2430              		.loc 1 469 13 is_stmt 1 view .LVU770
 469:Core/Src/main.c ****             custom_macros[macro_id] = val;
 2431              		.loc 1 469 32 is_stmt 0 view .LVU771
 2432 029e 8378     		ldrb	r3, [r0, #2]	@ zero_extendqisi2
 2433              	.LVL251:
 469:Core/Src/main.c ****             custom_macros[macro_id] = val;
 2434              		.loc 1 469 43 view .LVU772
 2435 02a0 C178     		ldrb	r1, [r0, #3]	@ zero_extendqisi2
 2436              	.LVL252:
 469:Core/Src/main.c ****             custom_macros[macro_id] = val;
 2437              		.loc 1 469 36 view .LVU773
 2438 02a2 43EA0123 		orr	r3, r3, r1, lsl #8
 469:Core/Src/main.c ****             custom_macros[macro_id] = val;
 2439              		.loc 1 469 60 view .LVU774
 2440 02a6 0179     		ldrb	r1, [r0, #4]	@ zero_extendqisi2
 469:Core/Src/main.c ****             custom_macros[macro_id] = val;
 2441              		.loc 1 469 53 view .LVU775
 2442 02a8 43EA0143 		orr	r3, r3, r1, lsl #16
 469:Core/Src/main.c ****             custom_macros[macro_id] = val;
 2443              		.loc 1 469 78 view .LVU776
 2444 02ac 4179     		ldrb	r1, [r0, #5]	@ zero_extendqisi2
 469:Core/Src/main.c ****             custom_macros[macro_id] = val;
 2445              		.loc 1 469 71 view .LVU777
 2446 02ae 43EA0163 		orr	r3, r3, r1, lsl #24
 2447              	.LVL253:
 470:Core/Src/main.c ****         }
 2448              		.loc 1 470 13 is_stmt 1 view .LVU778
 470:Core/Src/main.c ****         }
 2449              		.loc 1 470 37 is_stmt 0 view .LVU779
ARM GAS  C:\Users\naoki\AppData\Local\Temp\ccaZtq1h.s 			page 60


 2450 02b2 1049     		ldr	r1, .L203+48
 2451 02b4 41F82230 		str	r3, [r1, r2, lsl #2]
 2452              	.LVL254:
 470:Core/Src/main.c ****         }
 2453              		.loc 1 470 37 view .LVU780
 2454 02b8 34E7     		b	.L153
 2455              	.LVL255:
 2456              	.L193:
 470:Core/Src/main.c ****         }
 2457              		.loc 1 470 37 view .LVU781
 2458              	.LBE36:
 2459              	.LBE35:
 473:Core/Src/main.c ****     else if (cmd == CMD_SAVE_SETTINGS) { g_req_save = true; }
 2460              		.loc 1 473 38 is_stmt 1 discriminator 1 view .LVU782
 473:Core/Src/main.c ****     else if (cmd == CMD_SAVE_SETTINGS) { g_req_save = true; }
 2461              		.loc 1 473 54 is_stmt 0 discriminator 1 view .LVU783
 2462 02ba 0F4B     		ldr	r3, .L203+52
 2463              	.LVL256:
 473:Core/Src/main.c ****     else if (cmd == CMD_SAVE_SETTINGS) { g_req_save = true; }
 2464              		.loc 1 473 54 discriminator 1 view .LVU784
 2465 02bc 0122     		movs	r2, #1
 2466 02be 1A70     		strb	r2, [r3]
 2467              	.LVL257:
 473:Core/Src/main.c ****     else if (cmd == CMD_SAVE_SETTINGS) { g_req_save = true; }
 2468              		.loc 1 473 54 discriminator 1 view .LVU785
 2469 02c0 30E7     		b	.L153
 2470              	.L204:
 2471 02c2 00BF     		.align	2
 2472              	.L203:
 2473 02c4 00000000 		.word	g_req_save
 2474 02c8 00000000 		.word	tx.1
 2475 02cc 00007F43 		.word	1132396544
 2476 02d0 00000000 		.word	key_states
 2477 02d4 CDCC4C40 		.word	1078774989
 2478 02d8 00000000 		.word	0
 2479 02dc 00000000 		.word	hUsbDeviceFS
 2480 02e0 00000000 		.word	tx.0
 2481 02e4 00000000 		.word	g_socd_mode
 2482 02e8 00000000 		.word	key_map
 2483 02ec CDCCCC3D 		.word	1036831949
 2484 02f0 0000C842 		.word	1120403456
 2485 02f4 00000000 		.word	custom_macros
 2486 02f8 00000000 		.word	g_req_calibrate
 2487              		.cfi_endproc
 2488              	.LFE142:
 2490              		.section	.text.Error_Handler,"ax",%progbits
 2491              		.align	1
 2492              		.global	Error_Handler
 2493              		.syntax unified
 2494              		.thumb
 2495              		.thumb_func
 2497              	Error_Handler:
 2498              	.LFB145:
 476:Core/Src/main.c **** 
 477:Core/Src/main.c **** // --- Main ---
 478:Core/Src/main.c **** int main(void) {
 479:Core/Src/main.c ****     HAL_Init();
ARM GAS  C:\Users\naoki\AppData\Local\Temp\ccaZtq1h.s 			page 61


 480:Core/Src/main.c ****     SystemClock_Config();
 481:Core/Src/main.c ****     MX_GPIO_Init();
 482:Core/Src/main.c ****     MX_ADC2_Init();
 483:Core/Src/main.c ****     MX_ADC3_Init();
 484:Core/Src/main.c ****     MX_ADC4_Init();
 485:Core/Src/main.c ****     
 486:Core/Src/main.c ****     // 1. 仮の初期化 (モード判定用)
 487:Core/Src/main.c ****     // ここでは基準点はまだ確定させない
 488:Core/Src/main.c ****     HAL_Delay(200);
 489:Core/Src/main.c ****     scan_all_keys_fast(adc_raw_values);
 490:Core/Src/main.c ****     
 491:Core/Src/main.c ****     // 2. モード判定
 492:Core/Src/main.c ****     int diff_up_down = abs((int)adc_raw_values[18] - (int)adc_raw_values[1]);
 493:Core/Src/main.c ****     if (diff_up_down > 500) { 
 494:Core/Src/main.c ****         g_boot_mode = 1; // Config Mode
 495:Core/Src/main.c ****     } else {
 496:Core/Src/main.c ****         g_boot_mode = 0; // Xbox Mode
 497:Core/Src/main.c ****     }
 498:Core/Src/main.c **** 
 499:Core/Src/main.c ****     // 3. 設定読み込み
 500:Core/Src/main.c ****     Load_Config();
 501:Core/Src/main.c **** 
 502:Core/Src/main.c ****     // 4. USB接続開始
 503:Core/Src/main.c ****     MX_USB_DEVICE_Init();
 504:Core/Src/main.c ****     
 505:Core/Src/main.c ****     // ★修正: 設定モードの場合、指が離れるのを待ってから基準点を取る
 506:Core/Src/main.c ****     if (g_boot_mode == 1) {
 507:Core/Src/main.c ****         // UPボタンの値が安定する（指が離れる）まで待つ簡易ロジック
 508:Core/Src/main.c ****         // あるいは、Webツール接続後にキャリブレーションを必須とする
 509:Core/Src/main.c ****         
 510:Core/Src/main.c ****         // 今回は「起動時は変な値でもOK、Webツールでキャリブレーション
 511:Core/Src/main.c ****         // 少しでもマシにするなら、ここで少し待ってから再取得します。
 512:Core/Src/main.c ****         HAL_Delay(1000); // 1秒待つ (この間に指を離してもらう)
 513:Core/Src/main.c ****         Setup_Keys(); 
 514:Core/Src/main.c ****     } else {
 515:Core/Src/main.c ****         // Xboxモードなら即座に初期化
 516:Core/Src/main.c ****         Setup_Keys();
 517:Core/Src/main.c ****     }
 518:Core/Src/main.c ****     
 519:Core/Src/main.c ****     while (1) {
 520:Core/Src/main.c ****         if (g_req_calibrate) { HAL_Delay(100); Setup_Keys(); g_req_calibrate = false; }
 521:Core/Src/main.c ****         if (g_req_save) { Save_Config(); g_req_save = false; }
 522:Core/Src/main.c **** 
 523:Core/Src/main.c ****         scan_all_keys_fast(adc_raw_values);
 524:Core/Src/main.c ****         for(int i=0; i<KEY_COUNT; i++) Process_Rapid_Trigger(i, adc_raw_values[i]);
 525:Core/Src/main.c **** 
 526:Core/Src/main.c ****         if (g_boot_mode == 0) Send_Reports();
 527:Core/Src/main.c ****     }
 528:Core/Src/main.c **** }
 529:Core/Src/main.c **** 
 530:Core/Src/main.c **** void SystemClock_Config(void) {
 531:Core/Src/main.c ****   RCC_OscInitTypeDef RCC_OscInitStruct = {0};
 532:Core/Src/main.c ****   RCC_ClkInitTypeDef RCC_ClkInitStruct = {0};
 533:Core/Src/main.c ****   RCC_PeriphCLKInitTypeDef PeriphClkInit = {0};
 534:Core/Src/main.c ****   RCC_OscInitStruct.OscillatorType = RCC_OSCILLATORTYPE_HSE;
 535:Core/Src/main.c ****   RCC_OscInitStruct.HSEState = RCC_HSE_ON;
 536:Core/Src/main.c ****   RCC_OscInitStruct.HSEPredivValue = RCC_HSE_PREDIV_DIV2; 
ARM GAS  C:\Users\naoki\AppData\Local\Temp\ccaZtq1h.s 			page 62


 537:Core/Src/main.c ****   RCC_OscInitStruct.HSIState = RCC_HSI_ON;
 538:Core/Src/main.c ****   RCC_OscInitStruct.PLL.PLLState = RCC_PLL_ON;
 539:Core/Src/main.c ****   RCC_OscInitStruct.PLL.PLLSource = RCC_PLLSOURCE_HSE;
 540:Core/Src/main.c ****   RCC_OscInitStruct.PLL.PLLMUL = RCC_PLL_MUL9; 
 541:Core/Src/main.c ****   if (HAL_RCC_OscConfig(&RCC_OscInitStruct) != HAL_OK) Error_Handler();
 542:Core/Src/main.c ****   RCC_ClkInitStruct.ClockType = RCC_CLOCKTYPE_HCLK|RCC_CLOCKTYPE_SYSCLK|RCC_CLOCKTYPE_PCLK1|RCC_CLO
 543:Core/Src/main.c ****   RCC_ClkInitStruct.SYSCLKSource = RCC_SYSCLKSOURCE_PLLCLK;
 544:Core/Src/main.c ****   RCC_ClkInitStruct.AHBCLKDivider = RCC_SYSCLK_DIV1;
 545:Core/Src/main.c ****   RCC_ClkInitStruct.APB1CLKDivider = RCC_HCLK_DIV2;
 546:Core/Src/main.c ****   RCC_ClkInitStruct.APB2CLKDivider = RCC_HCLK_DIV1;
 547:Core/Src/main.c ****   if (HAL_RCC_ClockConfig(&RCC_ClkInitStruct, FLASH_LATENCY_2) != HAL_OK) Error_Handler();
 548:Core/Src/main.c ****   PeriphClkInit.PeriphClockSelection = RCC_PERIPHCLK_USB|RCC_PERIPHCLK_ADC12|RCC_PERIPHCLK_ADC34;
 549:Core/Src/main.c ****   PeriphClkInit.Adc12ClockSelection = RCC_ADC12PLLCLK_DIV1;
 550:Core/Src/main.c ****   PeriphClkInit.Adc34ClockSelection = RCC_ADC34PLLCLK_DIV1;
 551:Core/Src/main.c ****   PeriphClkInit.USBClockSelection = RCC_USBCLKSOURCE_PLL_DIV1_5; 
 552:Core/Src/main.c ****   if (HAL_RCCEx_PeriphCLKConfig(&PeriphClkInit) != HAL_OK) Error_Handler();
 553:Core/Src/main.c **** }
 554:Core/Src/main.c **** void Error_Handler(void) { __disable_irq(); while (1) { } }...
 2499              		.loc 1 554 26 is_stmt 1 view -0
 2500              		.cfi_startproc
 2501              		@ Volatile: function does not return.
 2502              		@ args = 0, pretend = 0, frame = 0
 2503              		@ frame_needed = 0, uses_anonymous_args = 0
 2504              		@ link register save eliminated.
 2505              		.loc 1 554 28 view .LVU787
 2506              	.LBB37:
 2507              	.LBI37:
 2508              		.file 2 "Drivers/CMSIS/Include/cmsis_gcc.h"
   1:Drivers/CMSIS/Include/cmsis_gcc.h **** /**************************************************************************//**
   2:Drivers/CMSIS/Include/cmsis_gcc.h ****  * @file     cmsis_gcc.h
   3:Drivers/CMSIS/Include/cmsis_gcc.h ****  * @brief    CMSIS compiler GCC header file
   4:Drivers/CMSIS/Include/cmsis_gcc.h ****  * @version  V5.0.4
   5:Drivers/CMSIS/Include/cmsis_gcc.h ****  * @date     09. April 2018
   6:Drivers/CMSIS/Include/cmsis_gcc.h ****  ******************************************************************************/
   7:Drivers/CMSIS/Include/cmsis_gcc.h **** /*
   8:Drivers/CMSIS/Include/cmsis_gcc.h ****  * Copyright (c) 2009-2018 Arm Limited. All rights reserved.
   9:Drivers/CMSIS/Include/cmsis_gcc.h ****  *
  10:Drivers/CMSIS/Include/cmsis_gcc.h ****  * SPDX-License-Identifier: Apache-2.0
  11:Drivers/CMSIS/Include/cmsis_gcc.h ****  *
  12:Drivers/CMSIS/Include/cmsis_gcc.h ****  * Licensed under the Apache License, Version 2.0 (the License); you may
  13:Drivers/CMSIS/Include/cmsis_gcc.h ****  * not use this file except in compliance with the License.
  14:Drivers/CMSIS/Include/cmsis_gcc.h ****  * You may obtain a copy of the License at
  15:Drivers/CMSIS/Include/cmsis_gcc.h ****  *
  16:Drivers/CMSIS/Include/cmsis_gcc.h ****  * www.apache.org/licenses/LICENSE-2.0
  17:Drivers/CMSIS/Include/cmsis_gcc.h ****  *
  18:Drivers/CMSIS/Include/cmsis_gcc.h ****  * Unless required by applicable law or agreed to in writing, software
  19:Drivers/CMSIS/Include/cmsis_gcc.h ****  * distributed under the License is distributed on an AS IS BASIS, WITHOUT
  20:Drivers/CMSIS/Include/cmsis_gcc.h ****  * WARRANTIES OR CONDITIONS OF ANY KIND, either express or implied.
  21:Drivers/CMSIS/Include/cmsis_gcc.h ****  * See the License for the specific language governing permissions and
  22:Drivers/CMSIS/Include/cmsis_gcc.h ****  * limitations under the License.
  23:Drivers/CMSIS/Include/cmsis_gcc.h ****  */
  24:Drivers/CMSIS/Include/cmsis_gcc.h **** 
  25:Drivers/CMSIS/Include/cmsis_gcc.h **** #ifndef __CMSIS_GCC_H
  26:Drivers/CMSIS/Include/cmsis_gcc.h **** #define __CMSIS_GCC_H
  27:Drivers/CMSIS/Include/cmsis_gcc.h **** 
  28:Drivers/CMSIS/Include/cmsis_gcc.h **** /* ignore some GCC warnings */
  29:Drivers/CMSIS/Include/cmsis_gcc.h **** #pragma GCC diagnostic push
ARM GAS  C:\Users\naoki\AppData\Local\Temp\ccaZtq1h.s 			page 63


  30:Drivers/CMSIS/Include/cmsis_gcc.h **** #pragma GCC diagnostic ignored "-Wsign-conversion"
  31:Drivers/CMSIS/Include/cmsis_gcc.h **** #pragma GCC diagnostic ignored "-Wconversion"
  32:Drivers/CMSIS/Include/cmsis_gcc.h **** #pragma GCC diagnostic ignored "-Wunused-parameter"
  33:Drivers/CMSIS/Include/cmsis_gcc.h **** 
  34:Drivers/CMSIS/Include/cmsis_gcc.h **** /* Fallback for __has_builtin */
  35:Drivers/CMSIS/Include/cmsis_gcc.h **** #ifndef __has_builtin
  36:Drivers/CMSIS/Include/cmsis_gcc.h ****   #define __has_builtin(x) (0)
  37:Drivers/CMSIS/Include/cmsis_gcc.h **** #endif
  38:Drivers/CMSIS/Include/cmsis_gcc.h **** 
  39:Drivers/CMSIS/Include/cmsis_gcc.h **** /* CMSIS compiler specific defines */
  40:Drivers/CMSIS/Include/cmsis_gcc.h **** #ifndef   __ASM
  41:Drivers/CMSIS/Include/cmsis_gcc.h ****   #define __ASM                                  __asm
  42:Drivers/CMSIS/Include/cmsis_gcc.h **** #endif
  43:Drivers/CMSIS/Include/cmsis_gcc.h **** #ifndef   __INLINE
  44:Drivers/CMSIS/Include/cmsis_gcc.h ****   #define __INLINE                               inline
  45:Drivers/CMSIS/Include/cmsis_gcc.h **** #endif
  46:Drivers/CMSIS/Include/cmsis_gcc.h **** #ifndef   __STATIC_INLINE
  47:Drivers/CMSIS/Include/cmsis_gcc.h ****   #define __STATIC_INLINE                        static inline
  48:Drivers/CMSIS/Include/cmsis_gcc.h **** #endif
  49:Drivers/CMSIS/Include/cmsis_gcc.h **** #ifndef   __STATIC_FORCEINLINE                 
  50:Drivers/CMSIS/Include/cmsis_gcc.h ****   #define __STATIC_FORCEINLINE                   __attribute__((always_inline)) static inline
  51:Drivers/CMSIS/Include/cmsis_gcc.h **** #endif                                           
  52:Drivers/CMSIS/Include/cmsis_gcc.h **** #ifndef   __NO_RETURN
  53:Drivers/CMSIS/Include/cmsis_gcc.h ****   #define __NO_RETURN                            __attribute__((__noreturn__))
  54:Drivers/CMSIS/Include/cmsis_gcc.h **** #endif
  55:Drivers/CMSIS/Include/cmsis_gcc.h **** #ifndef   __USED
  56:Drivers/CMSIS/Include/cmsis_gcc.h ****   #define __USED                                 __attribute__((used))
  57:Drivers/CMSIS/Include/cmsis_gcc.h **** #endif
  58:Drivers/CMSIS/Include/cmsis_gcc.h **** #ifndef   __WEAK
  59:Drivers/CMSIS/Include/cmsis_gcc.h ****   #define __WEAK                                 __attribute__((weak))
  60:Drivers/CMSIS/Include/cmsis_gcc.h **** #endif
  61:Drivers/CMSIS/Include/cmsis_gcc.h **** #ifndef   __PACKED
  62:Drivers/CMSIS/Include/cmsis_gcc.h ****   #define __PACKED                               __attribute__((packed, aligned(1)))
  63:Drivers/CMSIS/Include/cmsis_gcc.h **** #endif
  64:Drivers/CMSIS/Include/cmsis_gcc.h **** #ifndef   __PACKED_STRUCT
  65:Drivers/CMSIS/Include/cmsis_gcc.h ****   #define __PACKED_STRUCT                        struct __attribute__((packed, aligned(1)))
  66:Drivers/CMSIS/Include/cmsis_gcc.h **** #endif
  67:Drivers/CMSIS/Include/cmsis_gcc.h **** #ifndef   __PACKED_UNION
  68:Drivers/CMSIS/Include/cmsis_gcc.h ****   #define __PACKED_UNION                         union __attribute__((packed, aligned(1)))
  69:Drivers/CMSIS/Include/cmsis_gcc.h **** #endif
  70:Drivers/CMSIS/Include/cmsis_gcc.h **** #ifndef   __UNALIGNED_UINT32        /* deprecated */
  71:Drivers/CMSIS/Include/cmsis_gcc.h ****   #pragma GCC diagnostic push
  72:Drivers/CMSIS/Include/cmsis_gcc.h ****   #pragma GCC diagnostic ignored "-Wpacked"
  73:Drivers/CMSIS/Include/cmsis_gcc.h ****   #pragma GCC diagnostic ignored "-Wattributes"
  74:Drivers/CMSIS/Include/cmsis_gcc.h ****   struct __attribute__((packed)) T_UINT32 { uint32_t v; };
  75:Drivers/CMSIS/Include/cmsis_gcc.h ****   #pragma GCC diagnostic pop
  76:Drivers/CMSIS/Include/cmsis_gcc.h ****   #define __UNALIGNED_UINT32(x)                  (((struct T_UINT32 *)(x))->v)
  77:Drivers/CMSIS/Include/cmsis_gcc.h **** #endif
  78:Drivers/CMSIS/Include/cmsis_gcc.h **** #ifndef   __UNALIGNED_UINT16_WRITE
  79:Drivers/CMSIS/Include/cmsis_gcc.h ****   #pragma GCC diagnostic push
  80:Drivers/CMSIS/Include/cmsis_gcc.h ****   #pragma GCC diagnostic ignored "-Wpacked"
  81:Drivers/CMSIS/Include/cmsis_gcc.h ****   #pragma GCC diagnostic ignored "-Wattributes"
  82:Drivers/CMSIS/Include/cmsis_gcc.h ****   __PACKED_STRUCT T_UINT16_WRITE { uint16_t v; };
  83:Drivers/CMSIS/Include/cmsis_gcc.h ****   #pragma GCC diagnostic pop
  84:Drivers/CMSIS/Include/cmsis_gcc.h ****   #define __UNALIGNED_UINT16_WRITE(addr, val)    (void)((((struct T_UINT16_WRITE *)(void *)(addr))-
  85:Drivers/CMSIS/Include/cmsis_gcc.h **** #endif
  86:Drivers/CMSIS/Include/cmsis_gcc.h **** #ifndef   __UNALIGNED_UINT16_READ
ARM GAS  C:\Users\naoki\AppData\Local\Temp\ccaZtq1h.s 			page 64


  87:Drivers/CMSIS/Include/cmsis_gcc.h ****   #pragma GCC diagnostic push
  88:Drivers/CMSIS/Include/cmsis_gcc.h ****   #pragma GCC diagnostic ignored "-Wpacked"
  89:Drivers/CMSIS/Include/cmsis_gcc.h ****   #pragma GCC diagnostic ignored "-Wattributes"
  90:Drivers/CMSIS/Include/cmsis_gcc.h ****   __PACKED_STRUCT T_UINT16_READ { uint16_t v; };
  91:Drivers/CMSIS/Include/cmsis_gcc.h ****   #pragma GCC diagnostic pop
  92:Drivers/CMSIS/Include/cmsis_gcc.h ****   #define __UNALIGNED_UINT16_READ(addr)          (((const struct T_UINT16_READ *)(const void *)(add
  93:Drivers/CMSIS/Include/cmsis_gcc.h **** #endif
  94:Drivers/CMSIS/Include/cmsis_gcc.h **** #ifndef   __UNALIGNED_UINT32_WRITE
  95:Drivers/CMSIS/Include/cmsis_gcc.h ****   #pragma GCC diagnostic push
  96:Drivers/CMSIS/Include/cmsis_gcc.h ****   #pragma GCC diagnostic ignored "-Wpacked"
  97:Drivers/CMSIS/Include/cmsis_gcc.h ****   #pragma GCC diagnostic ignored "-Wattributes"
  98:Drivers/CMSIS/Include/cmsis_gcc.h ****   __PACKED_STRUCT T_UINT32_WRITE { uint32_t v; };
  99:Drivers/CMSIS/Include/cmsis_gcc.h ****   #pragma GCC diagnostic pop
 100:Drivers/CMSIS/Include/cmsis_gcc.h ****   #define __UNALIGNED_UINT32_WRITE(addr, val)    (void)((((struct T_UINT32_WRITE *)(void *)(addr))-
 101:Drivers/CMSIS/Include/cmsis_gcc.h **** #endif
 102:Drivers/CMSIS/Include/cmsis_gcc.h **** #ifndef   __UNALIGNED_UINT32_READ
 103:Drivers/CMSIS/Include/cmsis_gcc.h ****   #pragma GCC diagnostic push
 104:Drivers/CMSIS/Include/cmsis_gcc.h ****   #pragma GCC diagnostic ignored "-Wpacked"
 105:Drivers/CMSIS/Include/cmsis_gcc.h ****   #pragma GCC diagnostic ignored "-Wattributes"
 106:Drivers/CMSIS/Include/cmsis_gcc.h ****   __PACKED_STRUCT T_UINT32_READ { uint32_t v; };
 107:Drivers/CMSIS/Include/cmsis_gcc.h ****   #pragma GCC diagnostic pop
 108:Drivers/CMSIS/Include/cmsis_gcc.h ****   #define __UNALIGNED_UINT32_READ(addr)          (((const struct T_UINT32_READ *)(const void *)(add
 109:Drivers/CMSIS/Include/cmsis_gcc.h **** #endif
 110:Drivers/CMSIS/Include/cmsis_gcc.h **** #ifndef   __ALIGNED
 111:Drivers/CMSIS/Include/cmsis_gcc.h ****   #define __ALIGNED(x)                           __attribute__((aligned(x)))
 112:Drivers/CMSIS/Include/cmsis_gcc.h **** #endif
 113:Drivers/CMSIS/Include/cmsis_gcc.h **** #ifndef   __RESTRICT
 114:Drivers/CMSIS/Include/cmsis_gcc.h ****   #define __RESTRICT                             __restrict
 115:Drivers/CMSIS/Include/cmsis_gcc.h **** #endif
 116:Drivers/CMSIS/Include/cmsis_gcc.h **** 
 117:Drivers/CMSIS/Include/cmsis_gcc.h **** 
 118:Drivers/CMSIS/Include/cmsis_gcc.h **** /* ###########################  Core Function Access  ########################### */
 119:Drivers/CMSIS/Include/cmsis_gcc.h **** /** \ingroup  CMSIS_Core_FunctionInterface
 120:Drivers/CMSIS/Include/cmsis_gcc.h ****     \defgroup CMSIS_Core_RegAccFunctions CMSIS Core Register Access Functions
 121:Drivers/CMSIS/Include/cmsis_gcc.h ****   @{
 122:Drivers/CMSIS/Include/cmsis_gcc.h ****  */
 123:Drivers/CMSIS/Include/cmsis_gcc.h **** 
 124:Drivers/CMSIS/Include/cmsis_gcc.h **** /**
 125:Drivers/CMSIS/Include/cmsis_gcc.h ****   \brief   Enable IRQ Interrupts
 126:Drivers/CMSIS/Include/cmsis_gcc.h ****   \details Enables IRQ interrupts by clearing the I-bit in the CPSR.
 127:Drivers/CMSIS/Include/cmsis_gcc.h ****            Can only be executed in Privileged modes.
 128:Drivers/CMSIS/Include/cmsis_gcc.h ****  */
 129:Drivers/CMSIS/Include/cmsis_gcc.h **** __STATIC_FORCEINLINE void __enable_irq(void)
 130:Drivers/CMSIS/Include/cmsis_gcc.h **** {
 131:Drivers/CMSIS/Include/cmsis_gcc.h ****   __ASM volatile ("cpsie i" : : : "memory");
 132:Drivers/CMSIS/Include/cmsis_gcc.h **** }
 133:Drivers/CMSIS/Include/cmsis_gcc.h **** 
 134:Drivers/CMSIS/Include/cmsis_gcc.h **** 
 135:Drivers/CMSIS/Include/cmsis_gcc.h **** /**
 136:Drivers/CMSIS/Include/cmsis_gcc.h ****   \brief   Disable IRQ Interrupts
 137:Drivers/CMSIS/Include/cmsis_gcc.h ****   \details Disables IRQ interrupts by setting the I-bit in the CPSR.
 138:Drivers/CMSIS/Include/cmsis_gcc.h ****            Can only be executed in Privileged modes.
 139:Drivers/CMSIS/Include/cmsis_gcc.h ****  */
 140:Drivers/CMSIS/Include/cmsis_gcc.h **** __STATIC_FORCEINLINE void __disable_irq(void)
 2509              		.loc 2 140 27 view .LVU788
 2510              	.LBB38:
 141:Drivers/CMSIS/Include/cmsis_gcc.h **** {
ARM GAS  C:\Users\naoki\AppData\Local\Temp\ccaZtq1h.s 			page 65


 142:Drivers/CMSIS/Include/cmsis_gcc.h ****   __ASM volatile ("cpsid i" : : : "memory");
 2511              		.loc 2 142 3 view .LVU789
 2512              		.syntax unified
 2513              	@ 142 "Drivers/CMSIS/Include/cmsis_gcc.h" 1
 2514 0000 72B6     		cpsid i
 2515              	@ 0 "" 2
 2516              		.thumb
 2517              		.syntax unified
 2518              	.L206:
 2519              	.LBE38:
 2520              	.LBE37:
 2521              		.loc 1 554 45 view .LVU790
 2522              		.loc 1 554 57 view .LVU791
 2523              		.loc 1 554 51 view .LVU792
 2524 0002 FEE7     		b	.L206
 2525              		.cfi_endproc
 2526              	.LFE145:
 2528              		.section	.text.SystemClock_Config,"ax",%progbits
 2529              		.align	1
 2530              		.global	SystemClock_Config
 2531              		.syntax unified
 2532              		.thumb
 2533              		.thumb_func
 2535              	SystemClock_Config:
 2536              	.LFB144:
 530:Core/Src/main.c **** void SystemClock_Config(void) {
 2537              		.loc 1 530 31 view -0
 2538              		.cfi_startproc
 2539              		@ args = 0, pretend = 0, frame = 120
 2540              		@ frame_needed = 0, uses_anonymous_args = 0
 2541 0000 10B5     		push	{r4, lr}
 2542              	.LCFI17:
 2543              		.cfi_def_cfa_offset 8
 2544              		.cfi_offset 4, -8
 2545              		.cfi_offset 14, -4
 2546 0002 9EB0     		sub	sp, sp, #120
 2547              	.LCFI18:
 2548              		.cfi_def_cfa_offset 128
 531:Core/Src/main.c ****   RCC_OscInitTypeDef RCC_OscInitStruct = {0};
 2549              		.loc 1 531 3 view .LVU794
 531:Core/Src/main.c ****   RCC_OscInitTypeDef RCC_OscInitStruct = {0};
 2550              		.loc 1 531 22 is_stmt 0 view .LVU795
 2551 0004 14AC     		add	r4, sp, #80
 2552 0006 2822     		movs	r2, #40
 2553 0008 0021     		movs	r1, #0
 2554 000a 2046     		mov	r0, r4
 2555 000c FFF7FEFF 		bl	memset
 2556              	.LVL258:
 532:Core/Src/main.c ****   RCC_ClkInitTypeDef RCC_ClkInitStruct = {0};
 2557              		.loc 1 532 3 is_stmt 1 view .LVU796
 532:Core/Src/main.c ****   RCC_ClkInitTypeDef RCC_ClkInitStruct = {0};
 2558              		.loc 1 532 22 is_stmt 0 view .LVU797
 2559 0010 0021     		movs	r1, #0
 2560 0012 0F91     		str	r1, [sp, #60]
 2561 0014 1091     		str	r1, [sp, #64]
 2562 0016 1191     		str	r1, [sp, #68]
 2563 0018 1291     		str	r1, [sp, #72]
ARM GAS  C:\Users\naoki\AppData\Local\Temp\ccaZtq1h.s 			page 66


 2564 001a 1391     		str	r1, [sp, #76]
 533:Core/Src/main.c ****   RCC_PeriphCLKInitTypeDef PeriphClkInit = {0};
 2565              		.loc 1 533 3 is_stmt 1 view .LVU798
 533:Core/Src/main.c ****   RCC_PeriphCLKInitTypeDef PeriphClkInit = {0};
 2566              		.loc 1 533 28 is_stmt 0 view .LVU799
 2567 001c 3C22     		movs	r2, #60
 2568 001e 6846     		mov	r0, sp
 2569 0020 FFF7FEFF 		bl	memset
 2570              	.LVL259:
 534:Core/Src/main.c ****   RCC_OscInitStruct.OscillatorType = RCC_OSCILLATORTYPE_HSE;
 2571              		.loc 1 534 3 is_stmt 1 view .LVU800
 534:Core/Src/main.c ****   RCC_OscInitStruct.OscillatorType = RCC_OSCILLATORTYPE_HSE;
 2572              		.loc 1 534 36 is_stmt 0 view .LVU801
 2573 0024 0123     		movs	r3, #1
 2574 0026 1493     		str	r3, [sp, #80]
 535:Core/Src/main.c ****   RCC_OscInitStruct.HSEState = RCC_HSE_ON;
 2575              		.loc 1 535 3 is_stmt 1 view .LVU802
 535:Core/Src/main.c ****   RCC_OscInitStruct.HSEState = RCC_HSE_ON;
 2576              		.loc 1 535 30 is_stmt 0 view .LVU803
 2577 0028 4FF48032 		mov	r2, #65536
 2578 002c 1592     		str	r2, [sp, #84]
 536:Core/Src/main.c ****   RCC_OscInitStruct.HSEPredivValue = RCC_HSE_PREDIV_DIV2; 
 2579              		.loc 1 536 3 is_stmt 1 view .LVU804
 536:Core/Src/main.c ****   RCC_OscInitStruct.HSEPredivValue = RCC_HSE_PREDIV_DIV2; 
 2580              		.loc 1 536 36 is_stmt 0 view .LVU805
 2581 002e 1693     		str	r3, [sp, #88]
 537:Core/Src/main.c ****   RCC_OscInitStruct.HSIState = RCC_HSI_ON;
 2582              		.loc 1 537 3 is_stmt 1 view .LVU806
 537:Core/Src/main.c ****   RCC_OscInitStruct.HSIState = RCC_HSI_ON;
 2583              		.loc 1 537 30 is_stmt 0 view .LVU807
 2584 0030 1893     		str	r3, [sp, #96]
 538:Core/Src/main.c ****   RCC_OscInitStruct.PLL.PLLState = RCC_PLL_ON;
 2585              		.loc 1 538 3 is_stmt 1 view .LVU808
 538:Core/Src/main.c ****   RCC_OscInitStruct.PLL.PLLState = RCC_PLL_ON;
 2586              		.loc 1 538 34 is_stmt 0 view .LVU809
 2587 0032 0223     		movs	r3, #2
 2588 0034 1B93     		str	r3, [sp, #108]
 539:Core/Src/main.c ****   RCC_OscInitStruct.PLL.PLLSource = RCC_PLLSOURCE_HSE;
 2589              		.loc 1 539 3 is_stmt 1 view .LVU810
 539:Core/Src/main.c ****   RCC_OscInitStruct.PLL.PLLSource = RCC_PLLSOURCE_HSE;
 2590              		.loc 1 539 35 is_stmt 0 view .LVU811
 2591 0036 1C92     		str	r2, [sp, #112]
 540:Core/Src/main.c ****   RCC_OscInitStruct.PLL.PLLMUL = RCC_PLL_MUL9; 
 2592              		.loc 1 540 3 is_stmt 1 view .LVU812
 540:Core/Src/main.c ****   RCC_OscInitStruct.PLL.PLLMUL = RCC_PLL_MUL9; 
 2593              		.loc 1 540 32 is_stmt 0 view .LVU813
 2594 0038 4FF4E013 		mov	r3, #1835008
 2595 003c 1D93     		str	r3, [sp, #116]
 541:Core/Src/main.c ****   if (HAL_RCC_OscConfig(&RCC_OscInitStruct) != HAL_OK) Error_Handler();
 2596              		.loc 1 541 3 is_stmt 1 view .LVU814
 541:Core/Src/main.c ****   if (HAL_RCC_OscConfig(&RCC_OscInitStruct) != HAL_OK) Error_Handler();
 2597              		.loc 1 541 7 is_stmt 0 view .LVU815
 2598 003e 2046     		mov	r0, r4
 2599 0040 FFF7FEFF 		bl	HAL_RCC_OscConfig
 2600              	.LVL260:
 541:Core/Src/main.c ****   if (HAL_RCC_OscConfig(&RCC_OscInitStruct) != HAL_OK) Error_Handler();
 2601              		.loc 1 541 6 discriminator 1 view .LVU816
ARM GAS  C:\Users\naoki\AppData\Local\Temp\ccaZtq1h.s 			page 67


 2602 0044 D8B9     		cbnz	r0, .L212
 542:Core/Src/main.c ****   RCC_ClkInitStruct.ClockType = RCC_CLOCKTYPE_HCLK|RCC_CLOCKTYPE_SYSCLK|RCC_CLOCKTYPE_PCLK1|RCC_CLO
 2603              		.loc 1 542 3 is_stmt 1 view .LVU817
 542:Core/Src/main.c ****   RCC_ClkInitStruct.ClockType = RCC_CLOCKTYPE_HCLK|RCC_CLOCKTYPE_SYSCLK|RCC_CLOCKTYPE_PCLK1|RCC_CLO
 2604              		.loc 1 542 31 is_stmt 0 view .LVU818
 2605 0046 0F23     		movs	r3, #15
 2606 0048 0F93     		str	r3, [sp, #60]
 543:Core/Src/main.c ****   RCC_ClkInitStruct.SYSCLKSource = RCC_SYSCLKSOURCE_PLLCLK;
 2607              		.loc 1 543 3 is_stmt 1 view .LVU819
 543:Core/Src/main.c ****   RCC_ClkInitStruct.SYSCLKSource = RCC_SYSCLKSOURCE_PLLCLK;
 2608              		.loc 1 543 34 is_stmt 0 view .LVU820
 2609 004a 0221     		movs	r1, #2
 2610 004c 1091     		str	r1, [sp, #64]
 544:Core/Src/main.c ****   RCC_ClkInitStruct.AHBCLKDivider = RCC_SYSCLK_DIV1;
 2611              		.loc 1 544 3 is_stmt 1 view .LVU821
 544:Core/Src/main.c ****   RCC_ClkInitStruct.AHBCLKDivider = RCC_SYSCLK_DIV1;
 2612              		.loc 1 544 35 is_stmt 0 view .LVU822
 2613 004e 1190     		str	r0, [sp, #68]
 545:Core/Src/main.c ****   RCC_ClkInitStruct.APB1CLKDivider = RCC_HCLK_DIV2;
 2614              		.loc 1 545 3 is_stmt 1 view .LVU823
 545:Core/Src/main.c ****   RCC_ClkInitStruct.APB1CLKDivider = RCC_HCLK_DIV2;
 2615              		.loc 1 545 36 is_stmt 0 view .LVU824
 2616 0050 4FF48062 		mov	r2, #1024
 2617 0054 1292     		str	r2, [sp, #72]
 546:Core/Src/main.c ****   RCC_ClkInitStruct.APB2CLKDivider = RCC_HCLK_DIV1;
 2618              		.loc 1 546 3 is_stmt 1 view .LVU825
 546:Core/Src/main.c ****   RCC_ClkInitStruct.APB2CLKDivider = RCC_HCLK_DIV1;
 2619              		.loc 1 546 36 is_stmt 0 view .LVU826
 2620 0056 1390     		str	r0, [sp, #76]
 547:Core/Src/main.c ****   if (HAL_RCC_ClockConfig(&RCC_ClkInitStruct, FLASH_LATENCY_2) != HAL_OK) Error_Handler();
 2621              		.loc 1 547 3 is_stmt 1 view .LVU827
 547:Core/Src/main.c ****   if (HAL_RCC_ClockConfig(&RCC_ClkInitStruct, FLASH_LATENCY_2) != HAL_OK) Error_Handler();
 2622              		.loc 1 547 7 is_stmt 0 view .LVU828
 2623 0058 0FA8     		add	r0, sp, #60
 2624 005a FFF7FEFF 		bl	HAL_RCC_ClockConfig
 2625              	.LVL261:
 547:Core/Src/main.c ****   if (HAL_RCC_ClockConfig(&RCC_ClkInitStruct, FLASH_LATENCY_2) != HAL_OK) Error_Handler();
 2626              		.loc 1 547 6 discriminator 1 view .LVU829
 2627 005e 80B9     		cbnz	r0, .L213
 548:Core/Src/main.c ****   PeriphClkInit.PeriphClockSelection = RCC_PERIPHCLK_USB|RCC_PERIPHCLK_ADC12|RCC_PERIPHCLK_ADC34;
 2628              		.loc 1 548 3 is_stmt 1 view .LVU830
 548:Core/Src/main.c ****   PeriphClkInit.PeriphClockSelection = RCC_PERIPHCLK_USB|RCC_PERIPHCLK_ADC12|RCC_PERIPHCLK_ADC34;
 2629              		.loc 1 548 38 is_stmt 0 view .LVU831
 2630 0060 0A4B     		ldr	r3, .L215
 2631 0062 0093     		str	r3, [sp]
 549:Core/Src/main.c ****   PeriphClkInit.Adc12ClockSelection = RCC_ADC12PLLCLK_DIV1;
 2632              		.loc 1 549 3 is_stmt 1 view .LVU832
 549:Core/Src/main.c ****   PeriphClkInit.Adc12ClockSelection = RCC_ADC12PLLCLK_DIV1;
 2633              		.loc 1 549 37 is_stmt 0 view .LVU833
 2634 0064 4FF48073 		mov	r3, #256
 2635 0068 0993     		str	r3, [sp, #36]
 550:Core/Src/main.c ****   PeriphClkInit.Adc34ClockSelection = RCC_ADC34PLLCLK_DIV1;
 2636              		.loc 1 550 3 is_stmt 1 view .LVU834
 550:Core/Src/main.c ****   PeriphClkInit.Adc34ClockSelection = RCC_ADC34PLLCLK_DIV1;
 2637              		.loc 1 550 37 is_stmt 0 view .LVU835
 2638 006a 4FF40053 		mov	r3, #8192
 2639 006e 0A93     		str	r3, [sp, #40]
ARM GAS  C:\Users\naoki\AppData\Local\Temp\ccaZtq1h.s 			page 68


 551:Core/Src/main.c ****   PeriphClkInit.USBClockSelection = RCC_USBCLKSOURCE_PLL_DIV1_5; 
 2640              		.loc 1 551 3 is_stmt 1 view .LVU836
 551:Core/Src/main.c ****   PeriphClkInit.USBClockSelection = RCC_USBCLKSOURCE_PLL_DIV1_5; 
 2641              		.loc 1 551 35 is_stmt 0 view .LVU837
 2642 0070 0E90     		str	r0, [sp, #56]
 552:Core/Src/main.c ****   if (HAL_RCCEx_PeriphCLKConfig(&PeriphClkInit) != HAL_OK) Error_Handler();
 2643              		.loc 1 552 3 is_stmt 1 view .LVU838
 552:Core/Src/main.c ****   if (HAL_RCCEx_PeriphCLKConfig(&PeriphClkInit) != HAL_OK) Error_Handler();
 2644              		.loc 1 552 7 is_stmt 0 view .LVU839
 2645 0072 6846     		mov	r0, sp
 2646 0074 FFF7FEFF 		bl	HAL_RCCEx_PeriphCLKConfig
 2647              	.LVL262:
 552:Core/Src/main.c ****   if (HAL_RCCEx_PeriphCLKConfig(&PeriphClkInit) != HAL_OK) Error_Handler();
 2648              		.loc 1 552 6 discriminator 1 view .LVU840
 2649 0078 28B9     		cbnz	r0, .L214
 553:Core/Src/main.c **** }
 2650              		.loc 1 553 1 view .LVU841
 2651 007a 1EB0     		add	sp, sp, #120
 2652              	.LCFI19:
 2653              		.cfi_remember_state
 2654              		.cfi_def_cfa_offset 8
 2655              		@ sp needed
 2656 007c 10BD     		pop	{r4, pc}
 2657              	.L212:
 2658              	.LCFI20:
 2659              		.cfi_restore_state
 541:Core/Src/main.c ****   if (HAL_RCC_OscConfig(&RCC_OscInitStruct) != HAL_OK) Error_Handler();
 2660              		.loc 1 541 56 is_stmt 1 discriminator 2 view .LVU842
 2661 007e FFF7FEFF 		bl	Error_Handler
 2662              	.LVL263:
 2663              	.L213:
 547:Core/Src/main.c ****   if (HAL_RCC_ClockConfig(&RCC_ClkInitStruct, FLASH_LATENCY_2) != HAL_OK) Error_Handler();
 2664              		.loc 1 547 75 discriminator 2 view .LVU843
 2665 0082 FFF7FEFF 		bl	Error_Handler
 2666              	.LVL264:
 2667              	.L214:
 552:Core/Src/main.c ****   if (HAL_RCCEx_PeriphCLKConfig(&PeriphClkInit) != HAL_OK) Error_Handler();
 2668              		.loc 1 552 60 discriminator 2 view .LVU844
 2669 0086 FFF7FEFF 		bl	Error_Handler
 2670              	.LVL265:
 2671              	.L216:
 2672 008a 00BF     		.align	2
 2673              	.L215:
 2674 008c 80010200 		.word	131456
 2675              		.cfi_endproc
 2676              	.LFE144:
 2678              		.section	.text.main,"ax",%progbits
 2679              		.align	1
 2680              		.global	main
 2681              		.syntax unified
 2682              		.thumb
 2683              		.thumb_func
 2685              	main:
 2686              	.LFB143:
 478:Core/Src/main.c **** int main(void) {
 2687              		.loc 1 478 16 view -0
 2688              		.cfi_startproc
ARM GAS  C:\Users\naoki\AppData\Local\Temp\ccaZtq1h.s 			page 69


 2689              		@ args = 0, pretend = 0, frame = 0
 2690              		@ frame_needed = 0, uses_anonymous_args = 0
 2691 0000 10B5     		push	{r4, lr}
 2692              	.LCFI21:
 2693              		.cfi_def_cfa_offset 8
 2694              		.cfi_offset 4, -8
 2695              		.cfi_offset 14, -4
 479:Core/Src/main.c ****     HAL_Init();
 2696              		.loc 1 479 5 view .LVU846
 2697 0002 FFF7FEFF 		bl	HAL_Init
 2698              	.LVL266:
 480:Core/Src/main.c ****     SystemClock_Config();
 2699              		.loc 1 480 5 view .LVU847
 2700 0006 FFF7FEFF 		bl	SystemClock_Config
 2701              	.LVL267:
 481:Core/Src/main.c ****     MX_GPIO_Init();
 2702              		.loc 1 481 5 view .LVU848
 2703 000a FFF7FEFF 		bl	MX_GPIO_Init
 2704              	.LVL268:
 482:Core/Src/main.c ****     MX_ADC2_Init();
 2705              		.loc 1 482 5 view .LVU849
 2706 000e FFF7FEFF 		bl	MX_ADC2_Init
 2707              	.LVL269:
 483:Core/Src/main.c ****     MX_ADC3_Init();
 2708              		.loc 1 483 5 view .LVU850
 2709 0012 FFF7FEFF 		bl	MX_ADC3_Init
 2710              	.LVL270:
 484:Core/Src/main.c ****     MX_ADC4_Init();
 2711              		.loc 1 484 5 view .LVU851
 2712 0016 FFF7FEFF 		bl	MX_ADC4_Init
 2713              	.LVL271:
 488:Core/Src/main.c ****     HAL_Delay(200);
 2714              		.loc 1 488 5 view .LVU852
 2715 001a C820     		movs	r0, #200
 2716 001c FFF7FEFF 		bl	HAL_Delay
 2717              	.LVL272:
 489:Core/Src/main.c ****     scan_all_keys_fast(adc_raw_values);
 2718              		.loc 1 489 5 view .LVU853
 2719 0020 284C     		ldr	r4, .L233
 2720 0022 2046     		mov	r0, r4
 2721 0024 FFF7FEFF 		bl	scan_all_keys_fast
 2722              	.LVL273:
 492:Core/Src/main.c ****     int diff_up_down = abs((int)adc_raw_values[18] - (int)adc_raw_values[1]);
 2723              		.loc 1 492 5 view .LVU854
 492:Core/Src/main.c ****     int diff_up_down = abs((int)adc_raw_values[18] - (int)adc_raw_values[1]);
 2724              		.loc 1 492 47 is_stmt 0 view .LVU855
 2725 0028 A38C     		ldrh	r3, [r4, #36]
 492:Core/Src/main.c ****     int diff_up_down = abs((int)adc_raw_values[18] - (int)adc_raw_values[1]);
 2726              		.loc 1 492 73 view .LVU856
 2727 002a 6288     		ldrh	r2, [r4, #2]
 492:Core/Src/main.c ****     int diff_up_down = abs((int)adc_raw_values[18] - (int)adc_raw_values[1]);
 2728              		.loc 1 492 52 view .LVU857
 2729 002c 9B1A     		subs	r3, r3, r2
 492:Core/Src/main.c ****     int diff_up_down = abs((int)adc_raw_values[18] - (int)adc_raw_values[1]);
 2730              		.loc 1 492 9 view .LVU858
 2731 002e 002B     		cmp	r3, #0
 2732 0030 B8BF     		it	lt
ARM GAS  C:\Users\naoki\AppData\Local\Temp\ccaZtq1h.s 			page 70


 2733 0032 5B42     		rsblt	r3, r3, #0
 2734              	.LVL274:
 493:Core/Src/main.c ****     if (diff_up_down > 500) { 
 2735              		.loc 1 493 5 is_stmt 1 view .LVU859
 493:Core/Src/main.c ****     if (diff_up_down > 500) { 
 2736              		.loc 1 493 8 is_stmt 0 view .LVU860
 2737 0034 B3F5FA7F 		cmp	r3, #500
 2738 0038 0DDD     		ble	.L218
 494:Core/Src/main.c ****         g_boot_mode = 1; // Config Mode
 2739              		.loc 1 494 9 is_stmt 1 view .LVU861
 494:Core/Src/main.c ****         g_boot_mode = 1; // Config Mode
 2740              		.loc 1 494 21 is_stmt 0 view .LVU862
 2741 003a 234B     		ldr	r3, .L233+4
 2742              	.LVL275:
 494:Core/Src/main.c ****         g_boot_mode = 1; // Config Mode
 2743              		.loc 1 494 21 view .LVU863
 2744 003c 0122     		movs	r2, #1
 2745              	.LVL276:
 494:Core/Src/main.c ****         g_boot_mode = 1; // Config Mode
 2746              		.loc 1 494 21 view .LVU864
 2747 003e 1A70     		strb	r2, [r3]
 2748              	.L219:
 500:Core/Src/main.c ****     Load_Config();
 2749              		.loc 1 500 5 is_stmt 1 view .LVU865
 2750 0040 FFF7FEFF 		bl	Load_Config
 2751              	.LVL277:
 503:Core/Src/main.c ****     MX_USB_DEVICE_Init();
 2752              		.loc 1 503 5 view .LVU866
 2753 0044 FFF7FEFF 		bl	MX_USB_DEVICE_Init
 2754              	.LVL278:
 506:Core/Src/main.c ****     if (g_boot_mode == 1) {
 2755              		.loc 1 506 5 view .LVU867
 506:Core/Src/main.c ****     if (g_boot_mode == 1) {
 2756              		.loc 1 506 21 is_stmt 0 view .LVU868
 2757 0048 1F4B     		ldr	r3, .L233+4
 2758 004a 1B78     		ldrb	r3, [r3]	@ zero_extendqisi2
 506:Core/Src/main.c ****     if (g_boot_mode == 1) {
 2759              		.loc 1 506 8 view .LVU869
 2760 004c 012B     		cmp	r3, #1
 2761 004e 06D0     		beq	.L229
 516:Core/Src/main.c ****         Setup_Keys();
 2762              		.loc 1 516 9 is_stmt 1 view .LVU870
 2763 0050 FFF7FEFF 		bl	Setup_Keys
 2764              	.LVL279:
 2765 0054 25E0     		b	.L226
 2766              	.LVL280:
 2767              	.L218:
 496:Core/Src/main.c ****         g_boot_mode = 0; // Xbox Mode
 2768              		.loc 1 496 9 view .LVU871
 496:Core/Src/main.c ****         g_boot_mode = 0; // Xbox Mode
 2769              		.loc 1 496 21 is_stmt 0 view .LVU872
 2770 0056 1C4B     		ldr	r3, .L233+4
 2771              	.LVL281:
 496:Core/Src/main.c ****         g_boot_mode = 0; // Xbox Mode
 2772              		.loc 1 496 21 view .LVU873
 2773 0058 0022     		movs	r2, #0
 2774              	.LVL282:
ARM GAS  C:\Users\naoki\AppData\Local\Temp\ccaZtq1h.s 			page 71


 496:Core/Src/main.c ****         g_boot_mode = 0; // Xbox Mode
 2775              		.loc 1 496 21 view .LVU874
 2776 005a 1A70     		strb	r2, [r3]
 2777 005c F0E7     		b	.L219
 2778              	.LVL283:
 2779              	.L229:
 512:Core/Src/main.c ****         HAL_Delay(1000); // 1秒待つ (この間に指を離してもらう)
 2780              		.loc 1 512 9 is_stmt 1 view .LVU875
 2781 005e 4FF47A70 		mov	r0, #1000
 2782 0062 FFF7FEFF 		bl	HAL_Delay
 2783              	.LVL284:
 513:Core/Src/main.c ****         Setup_Keys(); 
 2784              		.loc 1 513 9 view .LVU876
 2785 0066 FFF7FEFF 		bl	Setup_Keys
 2786              	.LVL285:
 2787 006a 1AE0     		b	.L226
 2788              	.L231:
 520:Core/Src/main.c ****         if (g_req_calibrate) { HAL_Delay(100); Setup_Keys(); g_req_calibrate = false; }
 2789              		.loc 1 520 32 discriminator 1 view .LVU877
 2790 006c 6420     		movs	r0, #100
 2791 006e FFF7FEFF 		bl	HAL_Delay
 2792              	.LVL286:
 520:Core/Src/main.c ****         if (g_req_calibrate) { HAL_Delay(100); Setup_Keys(); g_req_calibrate = false; }
 2793              		.loc 1 520 48 discriminator 2 view .LVU878
 2794 0072 FFF7FEFF 		bl	Setup_Keys
 2795              	.LVL287:
 520:Core/Src/main.c ****         if (g_req_calibrate) { HAL_Delay(100); Setup_Keys(); g_req_calibrate = false; }
 2796              		.loc 1 520 62 discriminator 3 view .LVU879
 520:Core/Src/main.c ****         if (g_req_calibrate) { HAL_Delay(100); Setup_Keys(); g_req_calibrate = false; }
 2797              		.loc 1 520 78 is_stmt 0 discriminator 3 view .LVU880
 2798 0076 154B     		ldr	r3, .L233+8
 2799 0078 0022     		movs	r2, #0
 2800 007a 1A70     		strb	r2, [r3]
 2801 007c 15E0     		b	.L222
 2802              	.L232:
 521:Core/Src/main.c ****         if (g_req_save) { Save_Config(); g_req_save = false; }
 2803              		.loc 1 521 27 is_stmt 1 discriminator 1 view .LVU881
 2804 007e FFF7FEFF 		bl	Save_Config
 2805              	.LVL288:
 521:Core/Src/main.c ****         if (g_req_save) { Save_Config(); g_req_save = false; }
 2806              		.loc 1 521 42 discriminator 2 view .LVU882
 521:Core/Src/main.c ****         if (g_req_save) { Save_Config(); g_req_save = false; }
 2807              		.loc 1 521 53 is_stmt 0 discriminator 2 view .LVU883
 2808 0082 134B     		ldr	r3, .L233+12
 2809 0084 0022     		movs	r2, #0
 2810 0086 1A70     		strb	r2, [r3]
 2811 0088 13E0     		b	.L223
 2812              	.LVL289:
 2813              	.L225:
 2814              	.LBB39:
 524:Core/Src/main.c ****         for(int i=0; i<KEY_COUNT; i++) Process_Rapid_Trigger(i, adc_raw_values[i]);
 2815              		.loc 1 524 40 is_stmt 1 discriminator 4 view .LVU884
 2816 008a 0E4B     		ldr	r3, .L233
 2817 008c 33F81410 		ldrh	r1, [r3, r4, lsl #1]
 2818 0090 2046     		mov	r0, r4
 2819 0092 FFF7FEFF 		bl	Process_Rapid_Trigger
 2820              	.LVL290:
ARM GAS  C:\Users\naoki\AppData\Local\Temp\ccaZtq1h.s 			page 72


 524:Core/Src/main.c ****         for(int i=0; i<KEY_COUNT; i++) Process_Rapid_Trigger(i, adc_raw_values[i]);
 2821              		.loc 1 524 36 discriminator 4 view .LVU885
 2822 0096 0134     		adds	r4, r4, #1
 2823              	.LVL291:
 2824              	.L224:
 524:Core/Src/main.c ****         for(int i=0; i<KEY_COUNT; i++) Process_Rapid_Trigger(i, adc_raw_values[i]);
 2825              		.loc 1 524 23 discriminator 3 view .LVU886
 2826 0098 132C     		cmp	r4, #19
 2827 009a F6DD     		ble	.L225
 2828              	.LBE39:
 526:Core/Src/main.c ****         if (g_boot_mode == 0) Send_Reports();
 2829              		.loc 1 526 9 view .LVU887
 526:Core/Src/main.c ****         if (g_boot_mode == 0) Send_Reports();
 2830              		.loc 1 526 25 is_stmt 0 view .LVU888
 2831 009c 0A4B     		ldr	r3, .L233+4
 2832 009e 1B78     		ldrb	r3, [r3]	@ zero_extendqisi2
 526:Core/Src/main.c ****         if (g_boot_mode == 0) Send_Reports();
 2833              		.loc 1 526 12 view .LVU889
 2834 00a0 63B1     		cbz	r3, .L230
 2835              	.LVL292:
 2836              	.L226:
 519:Core/Src/main.c ****     while (1) {
 2837              		.loc 1 519 5 is_stmt 1 view .LVU890
 520:Core/Src/main.c ****         if (g_req_calibrate) { HAL_Delay(100); Setup_Keys(); g_req_calibrate = false; }
 2838              		.loc 1 520 9 view .LVU891
 520:Core/Src/main.c ****         if (g_req_calibrate) { HAL_Delay(100); Setup_Keys(); g_req_calibrate = false; }
 2839              		.loc 1 520 13 is_stmt 0 view .LVU892
 2840 00a2 0A4B     		ldr	r3, .L233+8
 2841 00a4 1B78     		ldrb	r3, [r3]	@ zero_extendqisi2
 520:Core/Src/main.c ****         if (g_req_calibrate) { HAL_Delay(100); Setup_Keys(); g_req_calibrate = false; }
 2842              		.loc 1 520 12 view .LVU893
 2843 00a6 002B     		cmp	r3, #0
 2844 00a8 E0D1     		bne	.L231
 2845              	.L222:
 521:Core/Src/main.c ****         if (g_req_save) { Save_Config(); g_req_save = false; }
 2846              		.loc 1 521 9 is_stmt 1 view .LVU894
 521:Core/Src/main.c ****         if (g_req_save) { Save_Config(); g_req_save = false; }
 2847              		.loc 1 521 13 is_stmt 0 view .LVU895
 2848 00aa 094B     		ldr	r3, .L233+12
 2849 00ac 1B78     		ldrb	r3, [r3]	@ zero_extendqisi2
 521:Core/Src/main.c ****         if (g_req_save) { Save_Config(); g_req_save = false; }
 2850              		.loc 1 521 12 view .LVU896
 2851 00ae 002B     		cmp	r3, #0
 2852 00b0 E5D1     		bne	.L232
 2853              	.L223:
 523:Core/Src/main.c ****         scan_all_keys_fast(adc_raw_values);
 2854              		.loc 1 523 9 is_stmt 1 view .LVU897
 2855 00b2 0448     		ldr	r0, .L233
 2856 00b4 FFF7FEFF 		bl	scan_all_keys_fast
 2857              	.LVL293:
 524:Core/Src/main.c ****         for(int i=0; i<KEY_COUNT; i++) Process_Rapid_Trigger(i, adc_raw_values[i]);
 2858              		.loc 1 524 9 view .LVU898
 2859              	.LBB40:
 524:Core/Src/main.c ****         for(int i=0; i<KEY_COUNT; i++) Process_Rapid_Trigger(i, adc_raw_values[i]);
 2860              		.loc 1 524 13 view .LVU899
 524:Core/Src/main.c ****         for(int i=0; i<KEY_COUNT; i++) Process_Rapid_Trigger(i, adc_raw_values[i]);
 2861              		.loc 1 524 17 is_stmt 0 view .LVU900
ARM GAS  C:\Users\naoki\AppData\Local\Temp\ccaZtq1h.s 			page 73


 2862 00b8 0024     		movs	r4, #0
 524:Core/Src/main.c ****         for(int i=0; i<KEY_COUNT; i++) Process_Rapid_Trigger(i, adc_raw_values[i]);
 2863              		.loc 1 524 9 view .LVU901
 2864 00ba EDE7     		b	.L224
 2865              	.LVL294:
 2866              	.L230:
 524:Core/Src/main.c ****         for(int i=0; i<KEY_COUNT; i++) Process_Rapid_Trigger(i, adc_raw_values[i]);
 2867              		.loc 1 524 9 view .LVU902
 2868              	.LBE40:
 526:Core/Src/main.c ****         if (g_boot_mode == 0) Send_Reports();
 2869              		.loc 1 526 31 is_stmt 1 discriminator 1 view .LVU903
 2870 00bc FFF7FEFF 		bl	Send_Reports
 2871              	.LVL295:
 2872 00c0 EFE7     		b	.L226
 2873              	.L234:
 2874 00c2 00BF     		.align	2
 2875              	.L233:
 2876 00c4 00000000 		.word	adc_raw_values
 2877 00c8 00000000 		.word	g_boot_mode
 2878 00cc 00000000 		.word	g_req_calibrate
 2879 00d0 00000000 		.word	g_req_save
 2880              		.cfi_endproc
 2881              	.LFE143:
 2883              		.section	.bss.tx.0,"aw",%nobits
 2884              		.align	2
 2887              	tx.0:
 2888 0000 00000000 		.space	64
 2888      00000000 
 2888      00000000 
 2888      00000000 
 2888      00000000 
 2889              		.section	.bss.tx.1,"aw",%nobits
 2890              		.align	2
 2893              	tx.1:
 2894 0000 00000000 		.space	64
 2894      00000000 
 2894      00000000 
 2894      00000000 
 2894      00000000 
 2895              		.section	.bss.prev_report.2,"aw",%nobits
 2896              		.align	2
 2899              	prev_report.2:
 2900 0000 00000000 		.space	20
 2900      00000000 
 2900      00000000 
 2900      00000000 
 2900      00000000 
 2901              		.global	webhid_tx_buf
 2902              		.section	.bss.webhid_tx_buf,"aw",%nobits
 2903              		.align	2
 2906              	webhid_tx_buf:
 2907 0000 00000000 		.space	64
 2907      00000000 
 2907      00000000 
 2907      00000000 
 2907      00000000 
 2908              		.global	key_states
ARM GAS  C:\Users\naoki\AppData\Local\Temp\ccaZtq1h.s 			page 74


 2909              		.section	.bss.key_states,"aw",%nobits
 2910              		.align	2
 2913              	key_states:
 2914 0000 00000000 		.space	720
 2914      00000000 
 2914      00000000 
 2914      00000000 
 2914      00000000 
 2915              		.global	adc_raw_values
 2916              		.section	.bss.adc_raw_values,"aw",%nobits
 2917              		.align	2
 2920              	adc_raw_values:
 2921 0000 00000000 		.space	40
 2921      00000000 
 2921      00000000 
 2921      00000000 
 2921      00000000 
 2922              		.global	last_ud_winner
 2923              		.section	.bss.last_ud_winner,"aw",%nobits
 2924              		.align	2
 2927              	last_ud_winner:
 2928 0000 00000000 		.space	4
 2929              		.global	last_lr_winner
 2930              		.section	.bss.last_lr_winner,"aw",%nobits
 2931              		.align	2
 2934              	last_lr_winner:
 2935 0000 00000000 		.space	4
 2936              		.global	last_down_state
 2937              		.section	.bss.last_down_state,"aw",%nobits
 2940              	last_down_state:
 2941 0000 00       		.space	1
 2942              		.global	last_up_state
 2943              		.section	.bss.last_up_state,"aw",%nobits
 2946              	last_up_state:
 2947 0000 00       		.space	1
 2948              		.global	last_right_state
 2949              		.section	.bss.last_right_state,"aw",%nobits
 2952              	last_right_state:
 2953 0000 00       		.space	1
 2954              		.global	last_left_state
 2955              		.section	.bss.last_left_state,"aw",%nobits
 2958              	last_left_state:
 2959 0000 00       		.space	1
 2960              		.global	g_socd_mode
 2961              		.section	.bss.g_socd_mode,"aw",%nobits
 2964              	g_socd_mode:
 2965 0000 00       		.space	1
 2966              		.global	g_req_save
 2967              		.section	.bss.g_req_save,"aw",%nobits
 2970              	g_req_save:
 2971 0000 00       		.space	1
 2972              		.global	g_req_calibrate
 2973              		.section	.bss.g_req_calibrate,"aw",%nobits
 2976              	g_req_calibrate:
 2977 0000 00       		.space	1
 2978              		.global	g_boot_mode
 2979              		.section	.bss.g_boot_mode,"aw",%nobits
ARM GAS  C:\Users\naoki\AppData\Local\Temp\ccaZtq1h.s 			page 75


 2982              	g_boot_mode:
 2983 0000 00       		.space	1
 2984              		.global	custom_macros
 2985              		.section	.bss.custom_macros,"aw",%nobits
 2986              		.align	2
 2989              	custom_macros:
 2990 0000 00000000 		.space	32
 2990      00000000 
 2990      00000000 
 2990      00000000 
 2990      00000000 
 2991              		.global	key_map
 2992              		.section	.data.key_map,"aw"
 2993              		.align	2
 2996              	key_map:
 2997 0000 04020308 		.ascii	"\004\002\003\010\007\013\006\005\012\011\017\016\010"
 2997      070B0605 
 2997      0A090F0E 
 2997      08
 2998 000d 0C0D1011 		.ascii	"\014\015\020\021\007\001\010"
 2998      070108
 2999              		.text
 3000              	.Letext0:
 3001              		.file 3 "C:/built/gnu/arm-none-eabi/include/machine/_default_types.h"
 3002              		.file 4 "C:/built/gnu/arm-none-eabi/include/sys/_stdint.h"
 3003              		.file 5 "Drivers/CMSIS/Device/ST/STM32F3xx/Include/stm32f303xc.h"
 3004              		.file 6 "Drivers/CMSIS/Device/ST/STM32F3xx/Include/stm32f3xx.h"
 3005              		.file 7 "Drivers/STM32F3xx_HAL_Driver/Inc/stm32f3xx_hal_def.h"
 3006              		.file 8 "Drivers/STM32F3xx_HAL_Driver/Inc/stm32f3xx_hal_rcc.h"
 3007              		.file 9 "Drivers/STM32F3xx_HAL_Driver/Inc/stm32f3xx_hal_rcc_ex.h"
 3008              		.file 10 "Drivers/STM32F3xx_HAL_Driver/Inc/stm32f3xx_hal_gpio.h"
 3009              		.file 11 "Drivers/STM32F3xx_HAL_Driver/Inc/stm32f3xx_hal_dma.h"
 3010              		.file 12 "Drivers/STM32F3xx_HAL_Driver/Inc/stm32f3xx_hal_adc_ex.h"
 3011              		.file 13 "Drivers/STM32F3xx_HAL_Driver/Inc/stm32f3xx_hal_adc.h"
 3012              		.file 14 "Drivers/STM32F3xx_HAL_Driver/Inc/stm32f3xx_hal_flash_ex.h"
 3013              		.file 15 "Core/Inc/main.h"
 3014              		.file 16 "Core/Inc/adc.h"
 3015              		.file 17 "Middlewares/ST/STM32_USB_Device_Library/Core/Inc/usbd_def.h"
 3016              		.file 18 "USB_DEVICE/App/usb_device.h"
 3017              		.file 19 "Core/Inc/gpio.h"
 3018              		.file 20 "C:/built/gnu/arm-none-eabi/include/string.h"
 3019              		.file 21 "Drivers/STM32F3xx_HAL_Driver/Inc/stm32f3xx_hal.h"
 3020              		.file 22 "Drivers/STM32F3xx_HAL_Driver/Inc/stm32f3xx_hal_flash.h"
 3021              		.file 23 "<built-in>"
ARM GAS  C:\Users\naoki\AppData\Local\Temp\ccaZtq1h.s 			page 76


DEFINED SYMBOLS
                            *ABS*:00000000 main.c
C:\Users\naoki\AppData\Local\Temp\ccaZtq1h.s:21     .text.Save_Config:00000000 $t
C:\Users\naoki\AppData\Local\Temp\ccaZtq1h.s:27     .text.Save_Config:00000000 Save_Config
C:\Users\naoki\AppData\Local\Temp\ccaZtq1h.s:205    .text.Save_Config:000000c4 $d
C:\Users\naoki\AppData\Local\Temp\ccaZtq1h.s:2964   .bss.g_socd_mode:00000000 g_socd_mode
C:\Users\naoki\AppData\Local\Temp\ccaZtq1h.s:2913   .bss.key_states:00000000 key_states
C:\Users\naoki\AppData\Local\Temp\ccaZtq1h.s:2996   .data.key_map:00000000 key_map
C:\Users\naoki\AppData\Local\Temp\ccaZtq1h.s:2989   .bss.custom_macros:00000000 custom_macros
C:\Users\naoki\AppData\Local\Temp\ccaZtq1h.s:217    .text.Load_Config:00000000 $t
C:\Users\naoki\AppData\Local\Temp\ccaZtq1h.s:223    .text.Load_Config:00000000 Load_Config
C:\Users\naoki\AppData\Local\Temp\ccaZtq1h.s:337    .text.Load_Config:00000088 $d
C:\Users\naoki\AppData\Local\Temp\ccaZtq1h.s:348    .text.short_delay:00000000 $t
C:\Users\naoki\AppData\Local\Temp\ccaZtq1h.s:354    .text.short_delay:00000000 short_delay
C:\Users\naoki\AppData\Local\Temp\ccaZtq1h.s:400    .text.MUX1_Select:00000000 $t
C:\Users\naoki\AppData\Local\Temp\ccaZtq1h.s:406    .text.MUX1_Select:00000000 MUX1_Select
C:\Users\naoki\AppData\Local\Temp\ccaZtq1h.s:447    .text.MUX1_Select:00000030 $d
C:\Users\naoki\AppData\Local\Temp\ccaZtq1h.s:452    .text.MUX2_Select:00000000 $t
C:\Users\naoki\AppData\Local\Temp\ccaZtq1h.s:458    .text.MUX2_Select:00000000 MUX2_Select
C:\Users\naoki\AppData\Local\Temp\ccaZtq1h.s:499    .text.MUX2_Select:00000034 $d
C:\Users\naoki\AppData\Local\Temp\ccaZtq1h.s:504    .text.scan_all_keys_fast:00000000 $t
C:\Users\naoki\AppData\Local\Temp\ccaZtq1h.s:510    .text.scan_all_keys_fast:00000000 scan_all_keys_fast
C:\Users\naoki\AppData\Local\Temp\ccaZtq1h.s:715    .text.scan_all_keys_fast:000000c4 $d
C:\Users\naoki\AppData\Local\Temp\ccaZtq1h.s:722    .rodata.Setup_Keys.str1.4:00000000 $d
C:\Users\naoki\AppData\Local\Temp\ccaZtq1h.s:727    .text.Setup_Keys:00000000 $t
C:\Users\naoki\AppData\Local\Temp\ccaZtq1h.s:733    .text.Setup_Keys:00000000 Setup_Keys
C:\Users\naoki\AppData\Local\Temp\ccaZtq1h.s:860    .text.Setup_Keys:00000094 $d
C:\Users\naoki\AppData\Local\Temp\ccaZtq1h.s:2920   .bss.adc_raw_values:00000000 adc_raw_values
C:\Users\naoki\AppData\Local\Temp\ccaZtq1h.s:873    .text.Process_Rapid_Trigger:00000000 $t
C:\Users\naoki\AppData\Local\Temp\ccaZtq1h.s:879    .text.Process_Rapid_Trigger:00000000 Process_Rapid_Trigger
C:\Users\naoki\AppData\Local\Temp\ccaZtq1h.s:1173   .text.Process_Rapid_Trigger:00000180 $d
C:\Users\naoki\AppData\Local\Temp\ccaZtq1h.s:1181   .text.Send_Reports:00000000 $t
C:\Users\naoki\AppData\Local\Temp\ccaZtq1h.s:1187   .text.Send_Reports:00000000 Send_Reports
C:\Users\naoki\AppData\Local\Temp\ccaZtq1h.s:1840   .text.Send_Reports:00000284 $d
C:\Users\naoki\AppData\Local\Temp\ccaZtq1h.s:2958   .bss.last_left_state:00000000 last_left_state
C:\Users\naoki\AppData\Local\Temp\ccaZtq1h.s:2934   .bss.last_lr_winner:00000000 last_lr_winner
C:\Users\naoki\AppData\Local\Temp\ccaZtq1h.s:2952   .bss.last_right_state:00000000 last_right_state
C:\Users\naoki\AppData\Local\Temp\ccaZtq1h.s:2946   .bss.last_up_state:00000000 last_up_state
C:\Users\naoki\AppData\Local\Temp\ccaZtq1h.s:2927   .bss.last_ud_winner:00000000 last_ud_winner
C:\Users\naoki\AppData\Local\Temp\ccaZtq1h.s:2940   .bss.last_down_state:00000000 last_down_state
C:\Users\naoki\AppData\Local\Temp\ccaZtq1h.s:2899   .bss.prev_report.2:00000000 prev_report.2
C:\Users\naoki\AppData\Local\Temp\ccaZtq1h.s:1856   .text.WebHID_DataReceived_Callback:00000000 $t
C:\Users\naoki\AppData\Local\Temp\ccaZtq1h.s:1862   .text.WebHID_DataReceived_Callback:00000000 WebHID_DataReceived_Callback
C:\Users\naoki\AppData\Local\Temp\ccaZtq1h.s:2473   .text.WebHID_DataReceived_Callback:000002c4 $d
C:\Users\naoki\AppData\Local\Temp\ccaZtq1h.s:2970   .bss.g_req_save:00000000 g_req_save
C:\Users\naoki\AppData\Local\Temp\ccaZtq1h.s:2893   .bss.tx.1:00000000 tx.1
C:\Users\naoki\AppData\Local\Temp\ccaZtq1h.s:2887   .bss.tx.0:00000000 tx.0
C:\Users\naoki\AppData\Local\Temp\ccaZtq1h.s:2976   .bss.g_req_calibrate:00000000 g_req_calibrate
C:\Users\naoki\AppData\Local\Temp\ccaZtq1h.s:2491   .text.Error_Handler:00000000 $t
C:\Users\naoki\AppData\Local\Temp\ccaZtq1h.s:2497   .text.Error_Handler:00000000 Error_Handler
C:\Users\naoki\AppData\Local\Temp\ccaZtq1h.s:2529   .text.SystemClock_Config:00000000 $t
C:\Users\naoki\AppData\Local\Temp\ccaZtq1h.s:2535   .text.SystemClock_Config:00000000 SystemClock_Config
C:\Users\naoki\AppData\Local\Temp\ccaZtq1h.s:2674   .text.SystemClock_Config:0000008c $d
C:\Users\naoki\AppData\Local\Temp\ccaZtq1h.s:2679   .text.main:00000000 $t
C:\Users\naoki\AppData\Local\Temp\ccaZtq1h.s:2685   .text.main:00000000 main
C:\Users\naoki\AppData\Local\Temp\ccaZtq1h.s:2876   .text.main:000000c4 $d
C:\Users\naoki\AppData\Local\Temp\ccaZtq1h.s:2982   .bss.g_boot_mode:00000000 g_boot_mode
ARM GAS  C:\Users\naoki\AppData\Local\Temp\ccaZtq1h.s 			page 77


C:\Users\naoki\AppData\Local\Temp\ccaZtq1h.s:2884   .bss.tx.0:00000000 $d
C:\Users\naoki\AppData\Local\Temp\ccaZtq1h.s:2890   .bss.tx.1:00000000 $d
C:\Users\naoki\AppData\Local\Temp\ccaZtq1h.s:2896   .bss.prev_report.2:00000000 $d
C:\Users\naoki\AppData\Local\Temp\ccaZtq1h.s:2906   .bss.webhid_tx_buf:00000000 webhid_tx_buf
C:\Users\naoki\AppData\Local\Temp\ccaZtq1h.s:2903   .bss.webhid_tx_buf:00000000 $d
C:\Users\naoki\AppData\Local\Temp\ccaZtq1h.s:2910   .bss.key_states:00000000 $d
C:\Users\naoki\AppData\Local\Temp\ccaZtq1h.s:2917   .bss.adc_raw_values:00000000 $d
C:\Users\naoki\AppData\Local\Temp\ccaZtq1h.s:2924   .bss.last_ud_winner:00000000 $d
C:\Users\naoki\AppData\Local\Temp\ccaZtq1h.s:2931   .bss.last_lr_winner:00000000 $d
C:\Users\naoki\AppData\Local\Temp\ccaZtq1h.s:2941   .bss.last_down_state:00000000 $d
C:\Users\naoki\AppData\Local\Temp\ccaZtq1h.s:2947   .bss.last_up_state:00000000 $d
C:\Users\naoki\AppData\Local\Temp\ccaZtq1h.s:2953   .bss.last_right_state:00000000 $d
C:\Users\naoki\AppData\Local\Temp\ccaZtq1h.s:2959   .bss.last_left_state:00000000 $d
C:\Users\naoki\AppData\Local\Temp\ccaZtq1h.s:2965   .bss.g_socd_mode:00000000 $d
C:\Users\naoki\AppData\Local\Temp\ccaZtq1h.s:2971   .bss.g_req_save:00000000 $d
C:\Users\naoki\AppData\Local\Temp\ccaZtq1h.s:2977   .bss.g_req_calibrate:00000000 $d
C:\Users\naoki\AppData\Local\Temp\ccaZtq1h.s:2983   .bss.g_boot_mode:00000000 $d
C:\Users\naoki\AppData\Local\Temp\ccaZtq1h.s:2986   .bss.custom_macros:00000000 $d
C:\Users\naoki\AppData\Local\Temp\ccaZtq1h.s:2993   .data.key_map:00000000 $d

UNDEFINED SYMBOLS
HAL_FLASH_Unlock
HAL_FLASHEx_Erase
HAL_FLASH_Lock
HAL_FLASH_Program
HAL_GPIO_WritePin
HAL_ADC_PollForConversion
HAL_ADC_Start
HAL_ADC_GetValue
hadc3
hadc2
hadc4
HAL_Delay
memset
memcmp
USBD_HID_SendReport
hUsbDeviceFS
USBD_WebHID_SendReport
HAL_RCC_OscConfig
HAL_RCC_ClockConfig
HAL_RCCEx_PeriphCLKConfig
HAL_Init
MX_GPIO_Init
MX_ADC2_Init
MX_ADC3_Init
MX_ADC4_Init
MX_USB_DEVICE_Init
