ARM GAS  C:\Users\naoki\AppData\Local\Temp\ccZXKLPf.s 			page 1


   1              		.cpu cortex-m4
   2              		.arch armv7e-m
   3              		.fpu fpv4-sp-d16
   4              		.eabi_attribute 27, 1
   5              		.eabi_attribute 28, 1
   6              		.eabi_attribute 20, 1
   7              		.eabi_attribute 21, 1
   8              		.eabi_attribute 23, 3
   9              		.eabi_attribute 24, 1
  10              		.eabi_attribute 25, 1
  11              		.eabi_attribute 26, 1
  12              		.eabi_attribute 30, 1
  13              		.eabi_attribute 34, 1
  14              		.eabi_attribute 18, 4
  15              		.file	"main.c"
  16              		.text
  17              	.Ltext0:
  18              		.cfi_sections	.debug_frame
  19              		.file 1 "Core/Src/main.c"
  20              		.section	.text.Save_Config,"ax",%progbits
  21              		.align	1
  22              		.global	Save_Config
  23              		.syntax unified
  24              		.thumb
  25              		.thumb_func
  27              	Save_Config:
  28              	.LFB134:
   1:Core/Src/main.c **** /* main.c */
   2:Core/Src/main.c **** #include "main.h"
   3:Core/Src/main.c **** #include "adc.h"
   4:Core/Src/main.c **** #include "usb_device.h"
   5:Core/Src/main.c **** #include "gpio.h"
   6:Core/Src/main.c **** #include "usbd_hid.h"
   7:Core/Src/main.c **** #include <stdint.h>
   8:Core/Src/main.c **** #include <stdbool.h>
   9:Core/Src/main.c **** #include <string.h>
  10:Core/Src/main.c **** #include <stdlib.h>
  11:Core/Src/main.c **** #include <math.h>
  12:Core/Src/main.c **** 
  13:Core/Src/main.c **** // --- 定数定義 ---
  14:Core/Src/main.c **** #define KEY_COUNT 20
  15:Core/Src/main.c **** #define TRAVEL_DISTANCE_MM 3.2f
  16:Core/Src/main.c **** #define ADC_MAX 4095.0f
  17:Core/Src/main.c **** #define RAW_DEADZONE 60 
  18:Core/Src/main.c **** 
  19:Core/Src/main.c **** // WebHID Commands
  20:Core/Src/main.c **** #define CMD_GET_CONFIG    0x10 
  21:Core/Src/main.c **** #define CMD_GET_COMBOS    0x11
  22:Core/Src/main.c **** #define CMD_SET_CONFIG    0x20 
  23:Core/Src/main.c **** #define CMD_READ_SENSORS  0x30 
  24:Core/Src/main.c **** #define CMD_CALIBRATE     0x40 
  25:Core/Src/main.c **** #define CMD_SAVE_SETTINGS 0x50 
  26:Core/Src/main.c **** #define CMD_SET_SOCD      0x60 
  27:Core/Src/main.c **** #define CMD_SET_MAPPING   0x70 
  28:Core/Src/main.c **** #define CMD_STOP_INPUT    0x80 
  29:Core/Src/main.c **** #define CMD_SET_COMBO     0x81 
  30:Core/Src/main.c **** 
ARM GAS  C:\Users\naoki\AppData\Local\Temp\ccZXKLPf.s 			page 2


  31:Core/Src/main.c **** // Flash Memory
  32:Core/Src/main.c **** #define FLASH_STORAGE_ADDR 0x0801F800
  33:Core/Src/main.c **** #define FLASH_MAGIC_NUM    0xDEADBEE3 
  34:Core/Src/main.c **** 
  35:Core/Src/main.c **** // --- ボタンID定義 ---
  36:Core/Src/main.c **** #define BTN_NONE      0
  37:Core/Src/main.c **** #define BTN_UP        1
  38:Core/Src/main.c **** #define BTN_DOWN      2
  39:Core/Src/main.c **** #define BTN_LEFT      3
  40:Core/Src/main.c **** #define BTN_RIGHT     4
  41:Core/Src/main.c **** #define BTN_START     5
  42:Core/Src/main.c **** #define BTN_BACK      6
  43:Core/Src/main.c **** #define BTN_L3        7
  44:Core/Src/main.c **** #define BTN_R3        8
  45:Core/Src/main.c **** #define BTN_LB        9
  46:Core/Src/main.c **** #define BTN_RB        10
  47:Core/Src/main.c **** #define BTN_GUIDE     11
  48:Core/Src/main.c **** #define BTN_A         12
  49:Core/Src/main.c **** #define BTN_B         13
  50:Core/Src/main.c **** #define BTN_X         14
  51:Core/Src/main.c **** #define BTN_Y         15
  52:Core/Src/main.c **** #define BTN_LT        16 
  53:Core/Src/main.c **** #define BTN_RT        17 
  54:Core/Src/main.c **** // コンボボタンID
  55:Core/Src/main.c **** #define BTN_COMBO_1   100
  56:Core/Src/main.c **** #define BTN_COMBO_2   101
  57:Core/Src/main.c **** #define BTN_COMBO_3   102
  58:Core/Src/main.c **** #define BTN_COMBO_4   103
  59:Core/Src/main.c **** 
  60:Core/Src/main.c **** // XInput Bitmask
  61:Core/Src/main.c **** #define XINPUT_DPAD_UP    0x0001
  62:Core/Src/main.c **** #define XINPUT_DPAD_DOWN  0x0002
  63:Core/Src/main.c **** #define XINPUT_DPAD_LEFT  0x0004
  64:Core/Src/main.c **** #define XINPUT_DPAD_RIGHT 0x0008
  65:Core/Src/main.c **** #define XINPUT_START      0x0010
  66:Core/Src/main.c **** #define XINPUT_BACK       0x0020
  67:Core/Src/main.c **** #define XINPUT_LB         0x0100
  68:Core/Src/main.c **** #define XINPUT_RB         0x0200
  69:Core/Src/main.c **** #define XINPUT_BTN_A      0x1000
  70:Core/Src/main.c **** #define XINPUT_BTN_B      0x2000
  71:Core/Src/main.c **** #define XINPUT_BTN_X      0x4000
  72:Core/Src/main.c **** #define XINPUT_BTN_Y      0x8000
  73:Core/Src/main.c **** #define XINPUT_THUMB_L    0x0040
  74:Core/Src/main.c **** #define XINPUT_THUMB_R    0x0080
  75:Core/Src/main.c **** #define XINPUT_GUIDE      0x0400
  76:Core/Src/main.c **** 
  77:Core/Src/main.c **** #define COMBO_COUNT 4
  78:Core/Src/main.c **** 
  79:Core/Src/main.c **** // --- キーマップ (デフォルト) ---
  80:Core/Src/main.c **** uint8_t key_map[KEY_COUNT] = {
  81:Core/Src/main.c ****     BTN_RIGHT, BTN_DOWN, BTN_LEFT, BTN_R3, BTN_L3, BTN_GUIDE, BTN_BACK, BTN_START, 
  82:Core/Src/main.c ****     BTN_RB,    BTN_LB,   BTN_Y,    BTN_X,  BTN_R3, BTN_A,     BTN_B,    BTN_LT, 
  83:Core/Src/main.c ****     BTN_RT,    BTN_L3,   BTN_UP,   BTN_R3
  84:Core/Src/main.c **** };
  85:Core/Src/main.c **** 
  86:Core/Src/main.c **** // --- 構造体 ---
  87:Core/Src/main.c **** typedef struct {
ARM GAS  C:\Users\naoki\AppData\Local\Temp\ccZXKLPf.s 			page 3


  88:Core/Src/main.c ****     uint16_t resting_val;
  89:Core/Src/main.c ****     uint16_t max_diff;
  90:Core/Src/main.c ****     float current_mm;
  91:Core/Src/main.c ****     float anchor_mm;
  92:Core/Src/main.c ****     bool is_pressed;
  93:Core/Src/main.c ****     
  94:Core/Src/main.c ****     // 設定値
  95:Core/Src/main.c ****     float actuation_point;
  96:Core/Src/main.c ****     float rt_press;
  97:Core/Src/main.c ****     float rt_release;
  98:Core/Src/main.c ****     float top_deadzone;
  99:Core/Src/main.c ****     float bottom_deadzone;
 100:Core/Src/main.c **** } KeyState_t;
 101:Core/Src/main.c **** 
 102:Core/Src/main.c **** typedef struct {
 103:Core/Src/main.c ****     uint16_t mask; 
 104:Core/Src/main.c ****     uint8_t lt;    
 105:Core/Src/main.c ****     uint8_t rt;    
 106:Core/Src/main.c **** } ComboSetting_t;
 107:Core/Src/main.c **** 
 108:Core/Src/main.c **** // Flash保存用構造体
 109:Core/Src/main.c **** typedef struct {
 110:Core/Src/main.c ****     uint32_t magic;
 111:Core/Src/main.c ****     float ap[KEY_COUNT];
 112:Core/Src/main.c ****     float rt[KEY_COUNT];
 113:Core/Src/main.c ****     float top_dz[KEY_COUNT];
 114:Core/Src/main.c ****     float bottom_dz[KEY_COUNT];
 115:Core/Src/main.c ****     uint8_t socd_mode;
 116:Core/Src/main.c ****     uint8_t key_map[KEY_COUNT];
 117:Core/Src/main.c ****     ComboSetting_t combos[COMBO_COUNT];
 118:Core/Src/main.c ****     uint8_t reserved[3];
 119:Core/Src/main.c **** } FlashConfig_t;
 120:Core/Src/main.c **** 
 121:Core/Src/main.c **** typedef struct __attribute__((packed)) {
 122:Core/Src/main.c ****     uint8_t msg_type; uint8_t pkt_size; 
 123:Core/Src/main.c ****     uint16_t buttons; uint8_t lt; uint8_t rt;
 124:Core/Src/main.c ****     int16_t lx; int16_t ly; int16_t rx; int16_t ry; 
 125:Core/Src/main.c ****     uint8_t reserved[6]; 
 126:Core/Src/main.c **** } XInputReport_t;
 127:Core/Src/main.c **** 
 128:Core/Src/main.c **** // --- グローバル変数 ---
 129:Core/Src/main.c **** extern USBD_HandleTypeDef hUsbDeviceFS;
 130:Core/Src/main.c **** extern ADC_HandleTypeDef hadc2;
 131:Core/Src/main.c **** extern ADC_HandleTypeDef hadc3;
 132:Core/Src/main.c **** extern ADC_HandleTypeDef hadc4;
 133:Core/Src/main.c **** 
 134:Core/Src/main.c **** uint8_t g_boot_mode = 0; 
 135:Core/Src/main.c **** volatile bool g_req_calibrate = false;
 136:Core/Src/main.c **** volatile bool g_req_save = false;
 137:Core/Src/main.c **** volatile bool g_input_enabled = true; 
 138:Core/Src/main.c **** 
 139:Core/Src/main.c **** uint8_t g_socd_mode = 0; 
 140:Core/Src/main.c **** ComboSetting_t g_combos[COMBO_COUNT];
 141:Core/Src/main.c **** 
 142:Core/Src/main.c **** // Last Win用
 143:Core/Src/main.c **** bool last_left_state = false;
 144:Core/Src/main.c **** bool last_right_state = false;
ARM GAS  C:\Users\naoki\AppData\Local\Temp\ccZXKLPf.s 			page 4


 145:Core/Src/main.c **** bool last_up_state = false;
 146:Core/Src/main.c **** bool last_down_state = false;
 147:Core/Src/main.c **** int  last_lr_winner = 0; 
 148:Core/Src/main.c **** int  last_ud_winner = 0; 
 149:Core/Src/main.c **** 
 150:Core/Src/main.c **** uint16_t adc_raw_values[KEY_COUNT];
 151:Core/Src/main.c **** KeyState_t key_states[KEY_COUNT];
 152:Core/Src/main.c **** uint8_t webhid_tx_buf[64];
 153:Core/Src/main.c **** 
 154:Core/Src/main.c **** // --- プロトタイプ宣言 ---
 155:Core/Src/main.c **** void SystemClock_Config(void);
 156:Core/Src/main.c **** void Error_Handler(void);
 157:Core/Src/main.c **** void MUX1_Select(uint8_t ch);
 158:Core/Src/main.c **** void MUX2_Select(uint8_t ch);
 159:Core/Src/main.c **** void scan_all_keys_fast(uint16_t *buffer);
 160:Core/Src/main.c **** void Process_Rapid_Trigger(int key_idx, uint16_t raw_val);
 161:Core/Src/main.c **** void Send_Reports(void);
 162:Core/Src/main.c **** void Save_Config(void);
 163:Core/Src/main.c **** void Load_Config(void);
 164:Core/Src/main.c **** extern uint8_t USBD_WebHID_SendReport(USBD_HandleTypeDef *pdev, uint8_t *report, uint16_t len);
 165:Core/Src/main.c **** extern uint8_t USBD_HID_SendReport(USBD_HandleTypeDef *pdev, uint8_t *report, uint16_t len);
 166:Core/Src/main.c **** 
 167:Core/Src/main.c **** // --- 初期化 ---
 168:Core/Src/main.c **** void Setup_Keys(void) {
 169:Core/Src/main.c ****     HAL_Delay(100);
 170:Core/Src/main.c ****     scan_all_keys_fast(adc_raw_values);
 171:Core/Src/main.c ****     HAL_Delay(50);
 172:Core/Src/main.c ****     scan_all_keys_fast(adc_raw_values);
 173:Core/Src/main.c **** 
 174:Core/Src/main.c ****     for(int i=0; i<KEY_COUNT; i++) {
 175:Core/Src/main.c ****         key_states[i].resting_val = adc_raw_values[i];
 176:Core/Src/main.c ****         key_states[i].max_diff = 200; 
 177:Core/Src/main.c ****         
 178:Core/Src/main.c ****         key_states[i].actuation_point = 1.2f;
 179:Core/Src/main.c ****         key_states[i].rt_press = 0.5f;
 180:Core/Src/main.c ****         key_states[i].rt_release = 0.5f;
 181:Core/Src/main.c ****         key_states[i].top_deadzone = 0.2f;
 182:Core/Src/main.c ****         key_states[i].bottom_deadzone = 0.1f;
 183:Core/Src/main.c ****         
 184:Core/Src/main.c ****         key_states[i].is_pressed = false;
 185:Core/Src/main.c ****         key_states[i].anchor_mm = 0.0f;
 186:Core/Src/main.c ****         key_states[i].current_mm = 0.0f;
 187:Core/Src/main.c ****     }
 188:Core/Src/main.c ****     g_socd_mode = 0; 
 189:Core/Src/main.c ****     for(int i=0; i<COMBO_COUNT; i++) {
 190:Core/Src/main.c ****         g_combos[i].mask = 0; g_combos[i].lt = 0; g_combos[i].rt = 0;
 191:Core/Src/main.c ****     }
 192:Core/Src/main.c **** }
 193:Core/Src/main.c **** 
 194:Core/Src/main.c **** // --- Flash 保存/読み込み ---
 195:Core/Src/main.c **** void Save_Config(void) {
  29              		.loc 1 195 24 view -0
  30              		.cfi_startproc
  31              		@ args = 0, pretend = 0, frame = 384
  32              		@ frame_needed = 0, uses_anonymous_args = 0
  33 0000 10B5     		push	{r4, lr}
  34              	.LCFI0:
ARM GAS  C:\Users\naoki\AppData\Local\Temp\ccZXKLPf.s 			page 5


  35              		.cfi_def_cfa_offset 8
  36              		.cfi_offset 4, -8
  37              		.cfi_offset 14, -4
  38 0002 E0B0     		sub	sp, sp, #384
  39              	.LCFI1:
  40              		.cfi_def_cfa_offset 392
 196:Core/Src/main.c ****     FlashConfig_t cfg;
  41              		.loc 1 196 5 view .LVU1
 197:Core/Src/main.c ****     cfg.magic = FLASH_MAGIC_NUM;
  42              		.loc 1 197 5 view .LVU2
  43              		.loc 1 197 15 is_stmt 0 view .LVU3
  44 0004 304A     		ldr	r2, .L11
  45 0006 0492     		str	r2, [sp, #16]
 198:Core/Src/main.c ****     cfg.socd_mode = g_socd_mode;
  46              		.loc 1 198 5 is_stmt 1 view .LVU4
  47              		.loc 1 198 19 is_stmt 0 view .LVU5
  48 0008 304A     		ldr	r2, .L11+4
  49 000a 1278     		ldrb	r2, [r2]	@ zero_extendqisi2
  50 000c 8DF85421 		strb	r2, [sp, #340]
 199:Core/Src/main.c ****     for(int i=0; i<KEY_COUNT; i++) {
  51              		.loc 1 199 5 is_stmt 1 view .LVU6
  52              	.LBB4:
  53              		.loc 1 199 9 view .LVU7
  54              	.LVL0:
  55              		.loc 1 199 13 is_stmt 0 view .LVU8
  56 0010 0023     		movs	r3, #0
  57              		.loc 1 199 5 view .LVU9
  58 0012 21E0     		b	.L2
  59              	.LVL1:
  60              	.L3:
 200:Core/Src/main.c ****         cfg.ap[i] = key_states[i].actuation_point;
  61              		.loc 1 200 9 is_stmt 1 view .LVU10
  62              		.loc 1 200 34 is_stmt 0 view .LVU11
  63 0014 03EBC302 		add	r2, r3, r3, lsl #3
  64 0018 2D49     		ldr	r1, .L11+8
  65 001a 01EB8201 		add	r1, r1, r2, lsl #2
  66 001e 0C69     		ldr	r4, [r1, #16]	@ float
  67              		.loc 1 200 19 view .LVU12
  68 0020 04AA     		add	r2, sp, #16
  69 0022 02EB8300 		add	r0, r2, r3, lsl #2
  70 0026 4460     		str	r4, [r0, #4]	@ float
 201:Core/Src/main.c ****         cfg.rt[i] = key_states[i].rt_press;
  71              		.loc 1 201 9 is_stmt 1 view .LVU13
  72              		.loc 1 201 34 is_stmt 0 view .LVU14
  73 0028 4C69     		ldr	r4, [r1, #20]	@ float
  74              		.loc 1 201 19 view .LVU15
  75 002a 03F11400 		add	r0, r3, #20
  76 002e 02EB8000 		add	r0, r2, r0, lsl #2
  77 0032 4460     		str	r4, [r0, #4]	@ float
 202:Core/Src/main.c ****         cfg.top_dz[i] = key_states[i].top_deadzone;
  78              		.loc 1 202 9 is_stmt 1 view .LVU16
  79              		.loc 1 202 38 is_stmt 0 view .LVU17
  80 0034 CC69     		ldr	r4, [r1, #28]	@ float
  81              		.loc 1 202 23 view .LVU18
  82 0036 03F12800 		add	r0, r3, #40
  83 003a 02EB8000 		add	r0, r2, r0, lsl #2
  84 003e 4460     		str	r4, [r0, #4]	@ float
ARM GAS  C:\Users\naoki\AppData\Local\Temp\ccZXKLPf.s 			page 6


 203:Core/Src/main.c ****         cfg.bottom_dz[i] = key_states[i].bottom_deadzone;
  85              		.loc 1 203 9 is_stmt 1 view .LVU19
  86              		.loc 1 203 41 is_stmt 0 view .LVU20
  87 0040 086A     		ldr	r0, [r1, #32]	@ float
  88              		.loc 1 203 26 view .LVU21
  89 0042 03F13C01 		add	r1, r3, #60
  90 0046 02EB8101 		add	r1, r2, r1, lsl #2
  91 004a 4860     		str	r0, [r1, #4]	@ float
 204:Core/Src/main.c ****         cfg.key_map[i] = key_map[i];
  92              		.loc 1 204 9 is_stmt 1 view .LVU22
  93              		.loc 1 204 33 is_stmt 0 view .LVU23
  94 004c 2149     		ldr	r1, .L11+12
  95 004e C95C     		ldrb	r1, [r1, r3]	@ zero_extendqisi2
  96              		.loc 1 204 24 view .LVU24
  97 0050 1A44     		add	r2, r2, r3
  98 0052 82F84511 		strb	r1, [r2, #325]
 199:Core/Src/main.c ****         cfg.ap[i] = key_states[i].actuation_point;
  99              		.loc 1 199 32 is_stmt 1 discriminator 3 view .LVU25
 100 0056 0133     		adds	r3, r3, #1
 101              	.LVL2:
 102              	.L2:
 199:Core/Src/main.c ****         cfg.ap[i] = key_states[i].actuation_point;
 103              		.loc 1 199 19 discriminator 1 view .LVU26
 104 0058 132B     		cmp	r3, #19
 105 005a DBDD     		ble	.L3
 106              	.LBE4:
 107              	.LBB5:
 205:Core/Src/main.c ****     }
 206:Core/Src/main.c ****     for(int i=0; i<COMBO_COUNT; i++) cfg.combos[i] = g_combos[i];
 108              		.loc 1 206 13 is_stmt 0 view .LVU27
 109 005c 0023     		movs	r3, #0
 110              	.LVL3:
 111              		.loc 1 206 13 view .LVU28
 112 005e 0AE0     		b	.L4
 113              	.LVL4:
 114              	.L5:
 115              		.loc 1 206 38 is_stmt 1 discriminator 3 view .LVU29
 116              		.loc 1 206 52 is_stmt 0 discriminator 3 view .LVU30
 117 0060 03F15601 		add	r1, r3, #86
 118 0064 04AA     		add	r2, sp, #16
 119 0066 02EB8102 		add	r2, r2, r1, lsl #2
 120 006a 1B49     		ldr	r1, .L11+16
 121 006c 51F82300 		ldr	r0, [r1, r3, lsl #2]
 122 0070 C2F80200 		str	r0, [r2, #2]	@ unaligned
 123              		.loc 1 206 34 is_stmt 1 discriminator 3 view .LVU31
 124 0074 0133     		adds	r3, r3, #1
 125              	.LVL5:
 126              	.L4:
 127              		.loc 1 206 19 discriminator 1 view .LVU32
 128 0076 032B     		cmp	r3, #3
 129 0078 F2DD     		ble	.L5
 130              	.LBE5:
 207:Core/Src/main.c **** 
 208:Core/Src/main.c ****     HAL_FLASH_Unlock();
 131              		.loc 1 208 5 view .LVU33
 132 007a FFF7FEFF 		bl	HAL_FLASH_Unlock
 133              	.LVL6:
ARM GAS  C:\Users\naoki\AppData\Local\Temp\ccZXKLPf.s 			page 7


 209:Core/Src/main.c ****     FLASH_EraseInitTypeDef EraseInitStruct;
 134              		.loc 1 209 5 view .LVU34
 210:Core/Src/main.c ****     uint32_t PageError;
 135              		.loc 1 210 5 view .LVU35
 211:Core/Src/main.c ****     EraseInitStruct.TypeErase = FLASH_TYPEERASE_PAGES;
 136              		.loc 1 211 5 view .LVU36
 137              		.loc 1 211 31 is_stmt 0 view .LVU37
 138 007e 01A8     		add	r0, sp, #4
 139 0080 0023     		movs	r3, #0
 140 0082 0360     		str	r3, [r0]
 212:Core/Src/main.c ****     EraseInitStruct.PageAddress = FLASH_STORAGE_ADDR;
 141              		.loc 1 212 5 is_stmt 1 view .LVU38
 142              		.loc 1 212 33 is_stmt 0 view .LVU39
 143 0084 154B     		ldr	r3, .L11+20
 144 0086 4360     		str	r3, [r0, #4]
 213:Core/Src/main.c ****     EraseInitStruct.NbPages = 1;
 145              		.loc 1 213 5 is_stmt 1 view .LVU40
 146              		.loc 1 213 29 is_stmt 0 view .LVU41
 147 0088 0123     		movs	r3, #1
 148 008a 8360     		str	r3, [r0, #8]
 214:Core/Src/main.c **** 
 215:Core/Src/main.c ****     if (HAL_FLASHEx_Erase(&EraseInitStruct, &PageError) == HAL_OK) {
 149              		.loc 1 215 5 is_stmt 1 view .LVU42
 150              		.loc 1 215 9 is_stmt 0 view .LVU43
 151 008c 6946     		mov	r1, sp
 152 008e FFF7FEFF 		bl	HAL_FLASHEx_Erase
 153              	.LVL7:
 154              		.loc 1 215 8 discriminator 1 view .LVU44
 155 0092 B0B1     		cbz	r0, .L9
 156              	.L7:
 216:Core/Src/main.c ****         uint32_t *pData = (uint32_t*)&cfg;
 217:Core/Src/main.c ****         for (int i = 0; i < sizeof(FlashConfig_t) / 4; i++) {
 218:Core/Src/main.c ****             HAL_FLASH_Program(FLASH_TYPEPROGRAM_WORD, FLASH_STORAGE_ADDR + (i * 4), pData[i]);
 219:Core/Src/main.c ****         }
 220:Core/Src/main.c ****     }
 221:Core/Src/main.c ****     HAL_FLASH_Lock();
 157              		.loc 1 221 5 is_stmt 1 view .LVU45
 158 0094 FFF7FEFF 		bl	HAL_FLASH_Lock
 159              	.LVL8:
 222:Core/Src/main.c **** }
 160              		.loc 1 222 1 is_stmt 0 view .LVU46
 161 0098 60B0     		add	sp, sp, #384
 162              	.LCFI2:
 163              		.cfi_remember_state
 164              		.cfi_def_cfa_offset 8
 165              		@ sp needed
 166 009a 10BD     		pop	{r4, pc}
 167              	.LVL9:
 168              	.L8:
 169              	.LCFI3:
 170              		.cfi_restore_state
 171              	.LBB6:
 172              	.LBB7:
 218:Core/Src/main.c ****         }
 173              		.loc 1 218 13 is_stmt 1 view .LVU47
 218:Core/Src/main.c ****         }
 174              		.loc 1 218 74 is_stmt 0 view .LVU48
ARM GAS  C:\Users\naoki\AppData\Local\Temp\ccZXKLPf.s 			page 8


 175 009c 04F10071 		add	r1, r4, #33554432
 176 00a0 01F5FC41 		add	r1, r1, #32256
 218:Core/Src/main.c ****         }
 177              		.loc 1 218 90 view .LVU49
 178 00a4 60AB     		add	r3, sp, #384
 179 00a6 03EB8403 		add	r3, r3, r4, lsl #2
 180 00aa A3F5B873 		sub	r3, r3, #368
 218:Core/Src/main.c ****         }
 181              		.loc 1 218 13 view .LVU50
 182 00ae 1A68     		ldr	r2, [r3]
 183 00b0 0023     		movs	r3, #0
 184 00b2 8900     		lsls	r1, r1, #2
 185 00b4 0220     		movs	r0, #2
 186 00b6 FFF7FEFF 		bl	HAL_FLASH_Program
 187              	.LVL10:
 217:Core/Src/main.c ****             HAL_FLASH_Program(FLASH_TYPEPROGRAM_WORD, FLASH_STORAGE_ADDR + (i * 4), pData[i]);
 188              		.loc 1 217 57 is_stmt 1 discriminator 3 view .LVU51
 189 00ba 0134     		adds	r4, r4, #1
 190              	.LVL11:
 191              	.L6:
 217:Core/Src/main.c ****             HAL_FLASH_Program(FLASH_TYPEPROGRAM_WORD, FLASH_STORAGE_ADDR + (i * 4), pData[i]);
 192              		.loc 1 217 27 discriminator 1 view .LVU52
 193 00bc 5B2C     		cmp	r4, #91
 194 00be EDD9     		bls	.L8
 195 00c0 E8E7     		b	.L7
 196              	.LVL12:
 197              	.L9:
 217:Core/Src/main.c ****             HAL_FLASH_Program(FLASH_TYPEPROGRAM_WORD, FLASH_STORAGE_ADDR + (i * 4), pData[i]);
 198              		.loc 1 217 18 is_stmt 0 view .LVU53
 199 00c2 0446     		mov	r4, r0
 200 00c4 FAE7     		b	.L6
 201              	.L12:
 202 00c6 00BF     		.align	2
 203              	.L11:
 204 00c8 E3BEADDE 		.word	-559038749
 205 00cc 00000000 		.word	g_socd_mode
 206 00d0 00000000 		.word	key_states
 207 00d4 00000000 		.word	key_map
 208 00d8 00000000 		.word	g_combos
 209 00dc 00F80108 		.word	134346752
 210              	.LBE7:
 211              	.LBE6:
 212              		.cfi_endproc
 213              	.LFE134:
 215              		.section	.text.Load_Config,"ax",%progbits
 216              		.align	1
 217              		.global	Load_Config
 218              		.syntax unified
 219              		.thumb
 220              		.thumb_func
 222              	Load_Config:
 223              	.LFB135:
 223:Core/Src/main.c **** 
 224:Core/Src/main.c **** void Load_Config(void) {
 224              		.loc 1 224 24 is_stmt 1 view -0
 225              		.cfi_startproc
 226              		@ args = 0, pretend = 0, frame = 0
ARM GAS  C:\Users\naoki\AppData\Local\Temp\ccZXKLPf.s 			page 9


 227              		@ frame_needed = 0, uses_anonymous_args = 0
 228              		@ link register save eliminated.
 225:Core/Src/main.c ****     FlashConfig_t *pCfg = (FlashConfig_t*)FLASH_STORAGE_ADDR;
 229              		.loc 1 225 5 view .LVU55
 230              	.LVL13:
 226:Core/Src/main.c ****     if (pCfg->magic == FLASH_MAGIC_NUM) {
 231              		.loc 1 226 5 view .LVU56
 232              		.loc 1 226 13 is_stmt 0 view .LVU57
 233 0000 214B     		ldr	r3, .L20
 234 0002 1A68     		ldr	r2, [r3]
 235              		.loc 1 226 8 view .LVU58
 236 0004 214B     		ldr	r3, .L20+4
 237 0006 9A42     		cmp	r2, r3
 238 0008 00D0     		beq	.L19
 239              	.L13:
 227:Core/Src/main.c ****         g_socd_mode = pCfg->socd_mode;
 228:Core/Src/main.c ****         for(int i=0; i<KEY_COUNT; i++) {
 229:Core/Src/main.c ****             key_states[i].actuation_point = pCfg->ap[i];
 230:Core/Src/main.c ****             key_states[i].rt_press = pCfg->rt[i];
 231:Core/Src/main.c ****             key_states[i].rt_release = pCfg->rt[i];
 232:Core/Src/main.c ****             key_states[i].top_deadzone = pCfg->top_dz[i];
 233:Core/Src/main.c ****             key_states[i].bottom_deadzone = pCfg->bottom_dz[i];
 234:Core/Src/main.c ****             key_map[i] = pCfg->key_map[i];
 235:Core/Src/main.c ****         }
 236:Core/Src/main.c ****         for(int i=0; i<COMBO_COUNT; i++) g_combos[i] = pCfg->combos[i];
 237:Core/Src/main.c ****     }
 238:Core/Src/main.c **** }
 240              		.loc 1 238 1 view .LVU59
 241 000a 7047     		bx	lr
 242              	.L19:
 227:Core/Src/main.c ****         g_socd_mode = pCfg->socd_mode;
 243              		.loc 1 227 9 is_stmt 1 view .LVU60
 227:Core/Src/main.c ****         g_socd_mode = pCfg->socd_mode;
 244              		.loc 1 227 27 is_stmt 0 view .LVU61
 245 000c 1E4B     		ldr	r3, .L20
 246 000e 93F84421 		ldrb	r2, [r3, #324]	@ zero_extendqisi2
 227:Core/Src/main.c ****         g_socd_mode = pCfg->socd_mode;
 247              		.loc 1 227 21 view .LVU62
 248 0012 1F4B     		ldr	r3, .L20+8
 249 0014 1A70     		strb	r2, [r3]
 228:Core/Src/main.c ****             key_states[i].actuation_point = pCfg->ap[i];
 250              		.loc 1 228 9 is_stmt 1 view .LVU63
 251              	.LBB8:
 228:Core/Src/main.c ****             key_states[i].actuation_point = pCfg->ap[i];
 252              		.loc 1 228 13 view .LVU64
 253              	.LVL14:
 228:Core/Src/main.c ****             key_states[i].actuation_point = pCfg->ap[i];
 254              		.loc 1 228 17 is_stmt 0 view .LVU65
 255 0016 0023     		movs	r3, #0
 228:Core/Src/main.c ****             key_states[i].actuation_point = pCfg->ap[i];
 256              		.loc 1 228 9 view .LVU66
 257 0018 22E0     		b	.L15
 258              	.LVL15:
 259              	.L16:
 229:Core/Src/main.c ****             key_states[i].rt_press = pCfg->rt[i];
 260              		.loc 1 229 13 is_stmt 1 view .LVU67
 229:Core/Src/main.c ****             key_states[i].rt_press = pCfg->rt[i];
ARM GAS  C:\Users\naoki\AppData\Local\Temp\ccZXKLPf.s 			page 10


 261              		.loc 1 229 53 is_stmt 0 view .LVU68
 262 001a 1B4A     		ldr	r2, .L20
 263 001c 02EB8301 		add	r1, r2, r3, lsl #2
 264 0020 4868     		ldr	r0, [r1, #4]	@ float
 229:Core/Src/main.c ****             key_states[i].rt_press = pCfg->rt[i];
 265              		.loc 1 229 43 view .LVU69
 266 0022 03EBC30C 		add	ip, r3, r3, lsl #3
 267 0026 1B49     		ldr	r1, .L20+12
 268 0028 01EB8C01 		add	r1, r1, ip, lsl #2
 269 002c 0861     		str	r0, [r1, #16]	@ float
 230:Core/Src/main.c ****             key_states[i].rt_release = pCfg->rt[i];
 270              		.loc 1 230 13 is_stmt 1 view .LVU70
 230:Core/Src/main.c ****             key_states[i].rt_release = pCfg->rt[i];
 271              		.loc 1 230 46 is_stmt 0 view .LVU71
 272 002e 03F11400 		add	r0, r3, #20
 273 0032 02EB8000 		add	r0, r2, r0, lsl #2
 274 0036 4068     		ldr	r0, [r0, #4]	@ float
 230:Core/Src/main.c ****             key_states[i].rt_release = pCfg->rt[i];
 275              		.loc 1 230 36 view .LVU72
 276 0038 4861     		str	r0, [r1, #20]	@ float
 231:Core/Src/main.c ****             key_states[i].top_deadzone = pCfg->top_dz[i];
 277              		.loc 1 231 13 is_stmt 1 view .LVU73
 231:Core/Src/main.c ****             key_states[i].top_deadzone = pCfg->top_dz[i];
 278              		.loc 1 231 38 is_stmt 0 view .LVU74
 279 003a 8861     		str	r0, [r1, #24]	@ float
 232:Core/Src/main.c ****             key_states[i].bottom_deadzone = pCfg->bottom_dz[i];
 280              		.loc 1 232 13 is_stmt 1 view .LVU75
 232:Core/Src/main.c ****             key_states[i].bottom_deadzone = pCfg->bottom_dz[i];
 281              		.loc 1 232 54 is_stmt 0 view .LVU76
 282 003c 03F12800 		add	r0, r3, #40
 283 0040 02EB8000 		add	r0, r2, r0, lsl #2
 284 0044 4068     		ldr	r0, [r0, #4]	@ float
 232:Core/Src/main.c ****             key_states[i].bottom_deadzone = pCfg->bottom_dz[i];
 285              		.loc 1 232 40 view .LVU77
 286 0046 C861     		str	r0, [r1, #28]	@ float
 233:Core/Src/main.c ****             key_map[i] = pCfg->key_map[i];
 287              		.loc 1 233 13 is_stmt 1 view .LVU78
 233:Core/Src/main.c ****             key_map[i] = pCfg->key_map[i];
 288              		.loc 1 233 60 is_stmt 0 view .LVU79
 289 0048 03F13C00 		add	r0, r3, #60
 290 004c 02EB8000 		add	r0, r2, r0, lsl #2
 291 0050 4068     		ldr	r0, [r0, #4]	@ float
 233:Core/Src/main.c ****             key_map[i] = pCfg->key_map[i];
 292              		.loc 1 233 43 view .LVU80
 293 0052 0862     		str	r0, [r1, #32]	@ float
 234:Core/Src/main.c ****         }
 294              		.loc 1 234 13 is_stmt 1 view .LVU81
 234:Core/Src/main.c ****         }
 295              		.loc 1 234 39 is_stmt 0 view .LVU82
 296 0054 1A44     		add	r2, r2, r3
 297 0056 92F84511 		ldrb	r1, [r2, #325]	@ zero_extendqisi2
 234:Core/Src/main.c ****         }
 298              		.loc 1 234 24 view .LVU83
 299 005a 0F4A     		ldr	r2, .L20+16
 300 005c D154     		strb	r1, [r2, r3]
 228:Core/Src/main.c ****             key_states[i].actuation_point = pCfg->ap[i];
 301              		.loc 1 228 36 is_stmt 1 discriminator 3 view .LVU84
ARM GAS  C:\Users\naoki\AppData\Local\Temp\ccZXKLPf.s 			page 11


 302 005e 0133     		adds	r3, r3, #1
 303              	.LVL16:
 304              	.L15:
 228:Core/Src/main.c ****             key_states[i].actuation_point = pCfg->ap[i];
 305              		.loc 1 228 23 discriminator 1 view .LVU85
 306 0060 132B     		cmp	r3, #19
 307 0062 DADD     		ble	.L16
 308              	.LBE8:
 309              	.LBB9:
 236:Core/Src/main.c ****     }
 310              		.loc 1 236 17 is_stmt 0 view .LVU86
 311 0064 0022     		movs	r2, #0
 312 0066 0CE0     		b	.L17
 313              	.LVL17:
 314              	.L18:
 236:Core/Src/main.c ****     }
 315              		.loc 1 236 42 is_stmt 1 discriminator 3 view .LVU87
 236:Core/Src/main.c ****     }
 316              		.loc 1 236 54 is_stmt 0 discriminator 3 view .LVU88
 317 0068 02F15603 		add	r3, r2, #86
 318 006c 9B00     		lsls	r3, r3, #2
 319 006e 03F10063 		add	r3, r3, #134217728
 320 0072 03F5FC33 		add	r3, r3, #129024
 321 0076 D3F80200 		ldr	r0, [r3, #2]	@ unaligned
 322 007a 084B     		ldr	r3, .L20+20
 323 007c 43F82200 		str	r0, [r3, r2, lsl #2]
 236:Core/Src/main.c ****     }
 324              		.loc 1 236 38 is_stmt 1 discriminator 3 view .LVU89
 325 0080 0132     		adds	r2, r2, #1
 326              	.LVL18:
 327              	.L17:
 236:Core/Src/main.c ****     }
 328              		.loc 1 236 23 discriminator 1 view .LVU90
 329 0082 032A     		cmp	r2, #3
 330 0084 F0DD     		ble	.L18
 331 0086 C0E7     		b	.L13
 332              	.L21:
 333              		.align	2
 334              	.L20:
 335 0088 00F80108 		.word	134346752
 336 008c E3BEADDE 		.word	-559038749
 337 0090 00000000 		.word	g_socd_mode
 338 0094 00000000 		.word	key_states
 339 0098 00000000 		.word	key_map
 340 009c 00000000 		.word	g_combos
 341              	.LBE9:
 342              		.cfi_endproc
 343              	.LFE135:
 345              		.section	.text.short_delay,"ax",%progbits
 346              		.align	1
 347              		.global	short_delay
 348              		.syntax unified
 349              		.thumb
 350              		.thumb_func
 352              	short_delay:
 353              	.LFB136:
 239:Core/Src/main.c **** 
ARM GAS  C:\Users\naoki\AppData\Local\Temp\ccZXKLPf.s 			page 12


 240:Core/Src/main.c **** // --- MUX制御 ---
 241:Core/Src/main.c **** void short_delay(void) { for(volatile int i = 0; i < 30; i++) { __NOP(); } }
 354              		.loc 1 241 24 view -0
 355              		.cfi_startproc
 356              		@ args = 0, pretend = 0, frame = 8
 357              		@ frame_needed = 0, uses_anonymous_args = 0
 358              		@ link register save eliminated.
 359 0000 82B0     		sub	sp, sp, #8
 360              	.LCFI4:
 361              		.cfi_def_cfa_offset 8
 362              		.loc 1 241 26 view .LVU92
 363              	.LBB10:
 364              		.loc 1 241 30 view .LVU93
 365              		.loc 1 241 43 is_stmt 0 view .LVU94
 366 0002 0023     		movs	r3, #0
 367 0004 0193     		str	r3, [sp, #4]
 368              		.loc 1 241 26 view .LVU95
 369 0006 03E0     		b	.L23
 370              	.L24:
 371              		.loc 1 241 65 is_stmt 1 discriminator 3 view .LVU96
 372              		.syntax unified
 373              	@ 241 "Core/Src/main.c" 1
 374 0008 00BF     		nop
 375              	@ 0 "" 2
 376              		.loc 1 241 59 discriminator 3 view .LVU97
 377              		.thumb
 378              		.syntax unified
 379 000a 019B     		ldr	r3, [sp, #4]
 380 000c 0133     		adds	r3, r3, #1
 381 000e 0193     		str	r3, [sp, #4]
 382              	.L23:
 383              		.loc 1 241 52 discriminator 1 view .LVU98
 384 0010 019B     		ldr	r3, [sp, #4]
 385 0012 1D2B     		cmp	r3, #29
 386 0014 F8DD     		ble	.L24
 387              	.LBE10:
 388              		.loc 1 241 76 is_stmt 0 view .LVU99
 389 0016 02B0     		add	sp, sp, #8
 390              	.LCFI5:
 391              		.cfi_def_cfa_offset 0
 392              		@ sp needed
 393 0018 7047     		bx	lr
 394              		.cfi_endproc
 395              	.LFE136:
 397              		.section	.text.MUX1_Select,"ax",%progbits
 398              		.align	1
 399              		.global	MUX1_Select
 400              		.syntax unified
 401              		.thumb
 402              		.thumb_func
 404              	MUX1_Select:
 405              	.LVL19:
 406              	.LFB137:
 242:Core/Src/main.c **** void MUX1_Select(uint8_t ch) {
 407              		.loc 1 242 30 is_stmt 1 view -0
 408              		.cfi_startproc
 409              		@ args = 0, pretend = 0, frame = 0
ARM GAS  C:\Users\naoki\AppData\Local\Temp\ccZXKLPf.s 			page 13


 410              		@ frame_needed = 0, uses_anonymous_args = 0
 411              		.loc 1 242 30 is_stmt 0 view .LVU101
 412 0000 10B5     		push	{r4, lr}
 413              	.LCFI6:
 414              		.cfi_def_cfa_offset 8
 415              		.cfi_offset 4, -8
 416              		.cfi_offset 14, -4
 417 0002 0446     		mov	r4, r0
 243:Core/Src/main.c ****     HAL_GPIO_WritePin(MUX1_A_GPIO_Port, MUX1_A_Pin, (ch & 0x01) ? GPIO_PIN_SET : GPIO_PIN_RESET);
 418              		.loc 1 243 5 is_stmt 1 view .LVU102
 419 0004 00F00102 		and	r2, r0, #1
 420 0008 0121     		movs	r1, #1
 421 000a 0948     		ldr	r0, .L28
 422              	.LVL20:
 423              		.loc 1 243 5 is_stmt 0 view .LVU103
 424 000c FFF7FEFF 		bl	HAL_GPIO_WritePin
 425              	.LVL21:
 244:Core/Src/main.c ****     HAL_GPIO_WritePin(MUX1_B_GPIO_Port, MUX1_B_Pin, (ch & 0x02) ? GPIO_PIN_SET : GPIO_PIN_RESET);
 426              		.loc 1 244 5 is_stmt 1 view .LVU104
 427 0010 C4F34002 		ubfx	r2, r4, #1, #1
 428 0014 2021     		movs	r1, #32
 429 0016 4FF09040 		mov	r0, #1207959552
 430 001a FFF7FEFF 		bl	HAL_GPIO_WritePin
 431              	.LVL22:
 245:Core/Src/main.c ****     HAL_GPIO_WritePin(MUX1_C_GPIO_Port, MUX1_C_Pin, (ch & 0x04) ? GPIO_PIN_SET : GPIO_PIN_RESET);
 432              		.loc 1 245 5 view .LVU105
 433 001e C4F38002 		ubfx	r2, r4, #2, #1
 434 0022 8021     		movs	r1, #128
 435 0024 4FF09040 		mov	r0, #1207959552
 436 0028 FFF7FEFF 		bl	HAL_GPIO_WritePin
 437              	.LVL23:
 246:Core/Src/main.c **** }
 438              		.loc 1 246 1 is_stmt 0 view .LVU106
 439 002c 10BD     		pop	{r4, pc}
 440              	.LVL24:
 441              	.L29:
 442              		.loc 1 246 1 view .LVU107
 443 002e 00BF     		.align	2
 444              	.L28:
 445 0030 00040048 		.word	1207960576
 446              		.cfi_endproc
 447              	.LFE137:
 449              		.section	.text.MUX2_Select,"ax",%progbits
 450              		.align	1
 451              		.global	MUX2_Select
 452              		.syntax unified
 453              		.thumb
 454              		.thumb_func
 456              	MUX2_Select:
 457              	.LVL25:
 458              	.LFB138:
 247:Core/Src/main.c **** void MUX2_Select(uint8_t ch) {
 459              		.loc 1 247 30 is_stmt 1 view -0
 460              		.cfi_startproc
 461              		@ args = 0, pretend = 0, frame = 0
 462              		@ frame_needed = 0, uses_anonymous_args = 0
 463              		.loc 1 247 30 is_stmt 0 view .LVU109
ARM GAS  C:\Users\naoki\AppData\Local\Temp\ccZXKLPf.s 			page 14


 464 0000 10B5     		push	{r4, lr}
 465              	.LCFI7:
 466              		.cfi_def_cfa_offset 8
 467              		.cfi_offset 4, -8
 468              		.cfi_offset 14, -4
 469 0002 0446     		mov	r4, r0
 248:Core/Src/main.c ****     HAL_GPIO_WritePin(MUX2_A_GPIO_Port, MUX2_A_Pin, (ch & 0x01) ? GPIO_PIN_SET : GPIO_PIN_RESET);
 470              		.loc 1 248 5 is_stmt 1 view .LVU110
 471 0004 00F00102 		and	r2, r0, #1
 472 0008 4FF40071 		mov	r1, #512
 473 000c 4FF09040 		mov	r0, #1207959552
 474              	.LVL26:
 475              		.loc 1 248 5 is_stmt 0 view .LVU111
 476 0010 FFF7FEFF 		bl	HAL_GPIO_WritePin
 477              	.LVL27:
 249:Core/Src/main.c ****     HAL_GPIO_WritePin(MUX2_B_GPIO_Port, MUX2_B_Pin, (ch & 0x02) ? GPIO_PIN_SET : GPIO_PIN_RESET);
 478              		.loc 1 249 5 is_stmt 1 view .LVU112
 479 0014 C4F34002 		ubfx	r2, r4, #1, #1
 480 0018 4FF48071 		mov	r1, #256
 481 001c 4FF09040 		mov	r0, #1207959552
 482 0020 FFF7FEFF 		bl	HAL_GPIO_WritePin
 483              	.LVL28:
 250:Core/Src/main.c ****     HAL_GPIO_WritePin(MUX2_C_GPIO_Port, MUX2_C_Pin, (ch & 0x04) ? GPIO_PIN_SET : GPIO_PIN_RESET);
 484              		.loc 1 250 5 view .LVU113
 485 0024 C4F38002 		ubfx	r2, r4, #2, #1
 486 0028 4FF40041 		mov	r1, #32768
 487 002c 0148     		ldr	r0, .L32
 488 002e FFF7FEFF 		bl	HAL_GPIO_WritePin
 489              	.LVL29:
 251:Core/Src/main.c **** }
 490              		.loc 1 251 1 is_stmt 0 view .LVU114
 491 0032 10BD     		pop	{r4, pc}
 492              	.LVL30:
 493              	.L33:
 494              		.loc 1 251 1 view .LVU115
 495              		.align	2
 496              	.L32:
 497 0034 00040048 		.word	1207960576
 498              		.cfi_endproc
 499              	.LFE138:
 501              		.section	.text.scan_all_keys_fast,"ax",%progbits
 502              		.align	1
 503              		.global	scan_all_keys_fast
 504              		.syntax unified
 505              		.thumb
 506              		.thumb_func
 508              	scan_all_keys_fast:
 509              	.LVL31:
 510              	.LFB139:
 252:Core/Src/main.c **** 
 253:Core/Src/main.c **** // --- ADCスキャン ---
 254:Core/Src/main.c **** void scan_all_keys_fast(uint16_t *buffer) {
 511              		.loc 1 254 43 is_stmt 1 view -0
 512              		.cfi_startproc
 513              		@ args = 0, pretend = 0, frame = 0
 514              		@ frame_needed = 0, uses_anonymous_args = 0
 515              		.loc 1 254 43 is_stmt 0 view .LVU117
ARM GAS  C:\Users\naoki\AppData\Local\Temp\ccZXKLPf.s 			page 15


 516 0000 70B5     		push	{r4, r5, r6, lr}
 517              	.LCFI8:
 518              		.cfi_def_cfa_offset 16
 519              		.cfi_offset 4, -16
 520              		.cfi_offset 5, -12
 521              		.cfi_offset 6, -8
 522              		.cfi_offset 14, -4
 523 0002 0646     		mov	r6, r0
 255:Core/Src/main.c ****     for (int ch = 0; ch < 8; ch++) {
 524              		.loc 1 255 5 is_stmt 1 view .LVU118
 525              	.LBB11:
 526              		.loc 1 255 10 view .LVU119
 527              	.LVL32:
 528              		.loc 1 255 14 is_stmt 0 view .LVU120
 529 0004 0024     		movs	r4, #0
 530              		.loc 1 255 5 view .LVU121
 531 0006 0AE0     		b	.L35
 532              	.LVL33:
 533              	.L36:
 256:Core/Src/main.c ****         MUX2_Select(ch); MUX1_Select(ch); short_delay(); 
 257:Core/Src/main.c ****         HAL_ADC_Start(&hadc4); HAL_ADC_Start(&hadc3); HAL_ADC_Start(&hadc2);
 258:Core/Src/main.c ****         if (HAL_ADC_PollForConversion(&hadc4, 1) == HAL_OK) buffer[ch] = HAL_ADC_GetValue(&hadc4);
 259:Core/Src/main.c ****         if (HAL_ADC_PollForConversion(&hadc3, 1) == HAL_OK) {
 534              		.loc 1 259 9 is_stmt 1 view .LVU122
 535              		.loc 1 259 13 is_stmt 0 view .LVU123
 536 0008 0121     		movs	r1, #1
 537 000a 2E48     		ldr	r0, .L53
 538 000c FFF7FEFF 		bl	HAL_ADC_PollForConversion
 539              	.LVL34:
 540              		.loc 1 259 12 discriminator 1 view .LVU124
 541 0010 30B3     		cbz	r0, .L50
 542              	.L37:
 260:Core/Src/main.c ****             uint16_t val = HAL_ADC_GetValue(&hadc3);
 261:Core/Src/main.c ****             if (ch < 4) buffer[ch + 8] = val; else if (ch == 7) buffer[12] = val; 
 262:Core/Src/main.c ****         }
 263:Core/Src/main.c ****         if (HAL_ADC_PollForConversion(&hadc2, 1) == HAL_OK) {
 543              		.loc 1 263 9 is_stmt 1 view .LVU125
 544              		.loc 1 263 13 is_stmt 0 view .LVU126
 545 0012 0121     		movs	r1, #1
 546 0014 2C48     		ldr	r0, .L53+4
 547 0016 FFF7FEFF 		bl	HAL_ADC_PollForConversion
 548              	.LVL35:
 549              		.loc 1 263 12 discriminator 1 view .LVU127
 550 001a 80B3     		cbz	r0, .L51
 551              	.L39:
 255:Core/Src/main.c ****         MUX2_Select(ch); MUX1_Select(ch); short_delay(); 
 552              		.loc 1 255 32 is_stmt 1 discriminator 2 view .LVU128
 553 001c 0134     		adds	r4, r4, #1
 554              	.LVL36:
 555              	.L35:
 255:Core/Src/main.c ****         MUX2_Select(ch); MUX1_Select(ch); short_delay(); 
 556              		.loc 1 255 25 discriminator 1 view .LVU129
 557 001e 072C     		cmp	r4, #7
 558 0020 4EDC     		bgt	.L52
 256:Core/Src/main.c ****         MUX2_Select(ch); MUX1_Select(ch); short_delay(); 
 559              		.loc 1 256 9 view .LVU130
 560 0022 E5B2     		uxtb	r5, r4
ARM GAS  C:\Users\naoki\AppData\Local\Temp\ccZXKLPf.s 			page 16


 561 0024 2846     		mov	r0, r5
 562 0026 FFF7FEFF 		bl	MUX2_Select
 563              	.LVL37:
 256:Core/Src/main.c ****         MUX2_Select(ch); MUX1_Select(ch); short_delay(); 
 564              		.loc 1 256 26 discriminator 1 view .LVU131
 565 002a 2846     		mov	r0, r5
 566 002c FFF7FEFF 		bl	MUX1_Select
 567              	.LVL38:
 256:Core/Src/main.c ****         MUX2_Select(ch); MUX1_Select(ch); short_delay(); 
 568              		.loc 1 256 43 discriminator 2 view .LVU132
 569 0030 FFF7FEFF 		bl	short_delay
 570              	.LVL39:
 257:Core/Src/main.c ****         if (HAL_ADC_PollForConversion(&hadc4, 1) == HAL_OK) buffer[ch] = HAL_ADC_GetValue(&hadc4);
 571              		.loc 1 257 9 view .LVU133
 572 0034 254D     		ldr	r5, .L53+8
 573 0036 2846     		mov	r0, r5
 574 0038 FFF7FEFF 		bl	HAL_ADC_Start
 575              	.LVL40:
 257:Core/Src/main.c ****         if (HAL_ADC_PollForConversion(&hadc4, 1) == HAL_OK) buffer[ch] = HAL_ADC_GetValue(&hadc4);
 576              		.loc 1 257 32 discriminator 1 view .LVU134
 577 003c 2148     		ldr	r0, .L53
 578 003e FFF7FEFF 		bl	HAL_ADC_Start
 579              	.LVL41:
 257:Core/Src/main.c ****         if (HAL_ADC_PollForConversion(&hadc4, 1) == HAL_OK) buffer[ch] = HAL_ADC_GetValue(&hadc4);
 580              		.loc 1 257 55 discriminator 2 view .LVU135
 581 0042 2148     		ldr	r0, .L53+4
 582 0044 FFF7FEFF 		bl	HAL_ADC_Start
 583              	.LVL42:
 258:Core/Src/main.c ****         if (HAL_ADC_PollForConversion(&hadc3, 1) == HAL_OK) {
 584              		.loc 1 258 9 view .LVU136
 258:Core/Src/main.c ****         if (HAL_ADC_PollForConversion(&hadc3, 1) == HAL_OK) {
 585              		.loc 1 258 13 is_stmt 0 view .LVU137
 586 0048 0121     		movs	r1, #1
 587 004a 2846     		mov	r0, r5
 588 004c FFF7FEFF 		bl	HAL_ADC_PollForConversion
 589              	.LVL43:
 258:Core/Src/main.c ****         if (HAL_ADC_PollForConversion(&hadc3, 1) == HAL_OK) {
 590              		.loc 1 258 12 discriminator 1 view .LVU138
 591 0050 0028     		cmp	r0, #0
 592 0052 D9D1     		bne	.L36
 258:Core/Src/main.c ****         if (HAL_ADC_PollForConversion(&hadc3, 1) == HAL_OK) {
 593              		.loc 1 258 61 is_stmt 1 discriminator 2 view .LVU139
 258:Core/Src/main.c ****         if (HAL_ADC_PollForConversion(&hadc3, 1) == HAL_OK) {
 594              		.loc 1 258 74 is_stmt 0 discriminator 2 view .LVU140
 595 0054 2846     		mov	r0, r5
 596 0056 FFF7FEFF 		bl	HAL_ADC_GetValue
 597              	.LVL44:
 258:Core/Src/main.c ****         if (HAL_ADC_PollForConversion(&hadc3, 1) == HAL_OK) {
 598              		.loc 1 258 72 discriminator 3 view .LVU141
 599 005a 26F81400 		strh	r0, [r6, r4, lsl #1]	@ movhi
 600 005e D3E7     		b	.L36
 601              	.L50:
 602              	.LBB12:
 260:Core/Src/main.c ****             if (ch < 4) buffer[ch + 8] = val; else if (ch == 7) buffer[12] = val; 
 603              		.loc 1 260 13 is_stmt 1 view .LVU142
 260:Core/Src/main.c ****             if (ch < 4) buffer[ch + 8] = val; else if (ch == 7) buffer[12] = val; 
 604              		.loc 1 260 28 is_stmt 0 view .LVU143
ARM GAS  C:\Users\naoki\AppData\Local\Temp\ccZXKLPf.s 			page 17


 605 0060 1848     		ldr	r0, .L53
 606 0062 FFF7FEFF 		bl	HAL_ADC_GetValue
 607              	.LVL45:
 260:Core/Src/main.c ****             if (ch < 4) buffer[ch + 8] = val; else if (ch == 7) buffer[12] = val; 
 608              		.loc 1 260 22 discriminator 1 view .LVU144
 609 0066 80B2     		uxth	r0, r0
 610              	.LVL46:
 261:Core/Src/main.c ****         }
 611              		.loc 1 261 13 is_stmt 1 view .LVU145
 261:Core/Src/main.c ****         }
 612              		.loc 1 261 16 is_stmt 0 view .LVU146
 613 0068 032C     		cmp	r4, #3
 614 006a 04DC     		bgt	.L38
 261:Core/Src/main.c ****         }
 615              		.loc 1 261 25 is_stmt 1 discriminator 1 view .LVU147
 261:Core/Src/main.c ****         }
 616              		.loc 1 261 35 is_stmt 0 discriminator 1 view .LVU148
 617 006c 04F10803 		add	r3, r4, #8
 261:Core/Src/main.c ****         }
 618              		.loc 1 261 40 discriminator 1 view .LVU149
 619 0070 26F81300 		strh	r0, [r6, r3, lsl #1]	@ movhi
 620 0074 CDE7     		b	.L37
 621              	.L38:
 261:Core/Src/main.c ****         }
 622              		.loc 1 261 52 is_stmt 1 discriminator 2 view .LVU150
 261:Core/Src/main.c ****         }
 623              		.loc 1 261 55 is_stmt 0 discriminator 2 view .LVU151
 624 0076 072C     		cmp	r4, #7
 625 0078 CBD1     		bne	.L37
 261:Core/Src/main.c ****         }
 626              		.loc 1 261 65 is_stmt 1 discriminator 3 view .LVU152
 261:Core/Src/main.c ****         }
 627              		.loc 1 261 76 is_stmt 0 discriminator 3 view .LVU153
 628 007a 3083     		strh	r0, [r6, #24]	@ movhi
 629 007c C9E7     		b	.L37
 630              	.LVL47:
 631              	.L51:
 261:Core/Src/main.c ****         }
 632              		.loc 1 261 76 discriminator 3 view .LVU154
 633              	.LBE12:
 634              	.LBB13:
 264:Core/Src/main.c ****             uint16_t val = HAL_ADC_GetValue(&hadc2);
 635              		.loc 1 264 13 is_stmt 1 view .LVU155
 636              		.loc 1 264 28 is_stmt 0 view .LVU156
 637 007e 1248     		ldr	r0, .L53+4
 638 0080 FFF7FEFF 		bl	HAL_ADC_GetValue
 639              	.LVL48:
 640              		.loc 1 264 22 discriminator 1 view .LVU157
 641 0084 80B2     		uxth	r0, r0
 642              	.LVL49:
 265:Core/Src/main.c ****             switch(ch) { 
 643              		.loc 1 265 13 is_stmt 1 view .LVU158
 644 0086 042C     		cmp	r4, #4
 645 0088 14D0     		beq	.L40
 646 008a 07DC     		bgt	.L41
 647 008c 022C     		cmp	r4, #2
 648 008e 15D0     		beq	.L42
ARM GAS  C:\Users\naoki\AppData\Local\Temp\ccZXKLPf.s 			page 18


 649 0090 032C     		cmp	r4, #3
 650 0092 11D0     		beq	.L43
 651 0094 012C     		cmp	r4, #1
 652 0096 C1D1     		bne	.L39
 266:Core/Src/main.c ****                 case 7: buffer[13]=val; break; case 6: buffer[14]=val; break; 
 267:Core/Src/main.c ****                 case 5: buffer[15]=val; break; case 4: buffer[16]=val; break; 
 268:Core/Src/main.c ****                 case 3: buffer[17]=val; break; case 2: buffer[18]=val; break; 
 269:Core/Src/main.c ****                 case 1: buffer[19]=val; break; 
 653              		.loc 1 269 25 view .LVU159
 654              		.loc 1 269 35 is_stmt 0 view .LVU160
 655 0098 F084     		strh	r0, [r6, #38]	@ movhi
 656              		.loc 1 269 41 is_stmt 1 view .LVU161
 657 009a BFE7     		b	.L39
 658              	.L41:
 265:Core/Src/main.c ****             switch(ch) { 
 659              		.loc 1 265 13 is_stmt 0 view .LVU162
 660 009c 062C     		cmp	r4, #6
 661 009e 07D0     		beq	.L45
 662 00a0 072C     		cmp	r4, #7
 663 00a2 03D0     		beq	.L46
 664 00a4 052C     		cmp	r4, #5
 665 00a6 B9D1     		bne	.L39
 267:Core/Src/main.c ****                 case 3: buffer[17]=val; break; case 2: buffer[18]=val; break; 
 666              		.loc 1 267 25 is_stmt 1 view .LVU163
 267:Core/Src/main.c ****                 case 3: buffer[17]=val; break; case 2: buffer[18]=val; break; 
 667              		.loc 1 267 35 is_stmt 0 view .LVU164
 668 00a8 F083     		strh	r0, [r6, #30]	@ movhi
 267:Core/Src/main.c ****                 case 3: buffer[17]=val; break; case 2: buffer[18]=val; break; 
 669              		.loc 1 267 41 is_stmt 1 view .LVU165
 670 00aa B7E7     		b	.L39
 671              	.L46:
 266:Core/Src/main.c ****                 case 7: buffer[13]=val; break; case 6: buffer[14]=val; break; 
 672              		.loc 1 266 25 view .LVU166
 266:Core/Src/main.c ****                 case 7: buffer[13]=val; break; case 6: buffer[14]=val; break; 
 673              		.loc 1 266 35 is_stmt 0 view .LVU167
 674 00ac 7083     		strh	r0, [r6, #26]	@ movhi
 266:Core/Src/main.c ****                 case 7: buffer[13]=val; break; case 6: buffer[14]=val; break; 
 675              		.loc 1 266 41 is_stmt 1 view .LVU168
 676 00ae B5E7     		b	.L39
 677              	.L45:
 266:Core/Src/main.c ****                 case 7: buffer[13]=val; break; case 6: buffer[14]=val; break; 
 678              		.loc 1 266 56 view .LVU169
 266:Core/Src/main.c ****                 case 7: buffer[13]=val; break; case 6: buffer[14]=val; break; 
 679              		.loc 1 266 66 is_stmt 0 view .LVU170
 680 00b0 B083     		strh	r0, [r6, #28]	@ movhi
 266:Core/Src/main.c ****                 case 7: buffer[13]=val; break; case 6: buffer[14]=val; break; 
 681              		.loc 1 266 72 is_stmt 1 view .LVU171
 682 00b2 B3E7     		b	.L39
 683              	.L40:
 267:Core/Src/main.c ****                 case 3: buffer[17]=val; break; case 2: buffer[18]=val; break; 
 684              		.loc 1 267 56 view .LVU172
 267:Core/Src/main.c ****                 case 3: buffer[17]=val; break; case 2: buffer[18]=val; break; 
 685              		.loc 1 267 66 is_stmt 0 view .LVU173
 686 00b4 3084     		strh	r0, [r6, #32]	@ movhi
 267:Core/Src/main.c ****                 case 3: buffer[17]=val; break; case 2: buffer[18]=val; break; 
 687              		.loc 1 267 72 is_stmt 1 view .LVU174
 688 00b6 B1E7     		b	.L39
ARM GAS  C:\Users\naoki\AppData\Local\Temp\ccZXKLPf.s 			page 19


 689              	.L43:
 268:Core/Src/main.c ****                 case 1: buffer[19]=val; break; 
 690              		.loc 1 268 25 view .LVU175
 268:Core/Src/main.c ****                 case 1: buffer[19]=val; break; 
 691              		.loc 1 268 35 is_stmt 0 view .LVU176
 692 00b8 7084     		strh	r0, [r6, #34]	@ movhi
 268:Core/Src/main.c ****                 case 1: buffer[19]=val; break; 
 693              		.loc 1 268 41 is_stmt 1 view .LVU177
 694 00ba AFE7     		b	.L39
 695              	.L42:
 268:Core/Src/main.c ****                 case 1: buffer[19]=val; break; 
 696              		.loc 1 268 56 view .LVU178
 268:Core/Src/main.c ****                 case 1: buffer[19]=val; break; 
 697              		.loc 1 268 66 is_stmt 0 view .LVU179
 698 00bc B084     		strh	r0, [r6, #36]	@ movhi
 268:Core/Src/main.c ****                 case 1: buffer[19]=val; break; 
 699              		.loc 1 268 72 is_stmt 1 view .LVU180
 700 00be ADE7     		b	.L39
 701              	.LVL50:
 702              	.L52:
 268:Core/Src/main.c ****                 case 1: buffer[19]=val; break; 
 703              		.loc 1 268 72 is_stmt 0 view .LVU181
 704              	.LBE13:
 705              	.LBE11:
 270:Core/Src/main.c ****             }
 271:Core/Src/main.c ****         }
 272:Core/Src/main.c ****     }
 273:Core/Src/main.c **** }
 706              		.loc 1 273 1 view .LVU182
 707 00c0 70BD     		pop	{r4, r5, r6, pc}
 708              	.LVL51:
 709              	.L54:
 710              		.loc 1 273 1 view .LVU183
 711 00c2 00BF     		.align	2
 712              	.L53:
 713 00c4 00000000 		.word	hadc3
 714 00c8 00000000 		.word	hadc2
 715 00cc 00000000 		.word	hadc4
 716              		.cfi_endproc
 717              	.LFE139:
 719              		.section	.text.Setup_Keys,"ax",%progbits
 720              		.align	1
 721              		.global	Setup_Keys
 722              		.syntax unified
 723              		.thumb
 724              		.thumb_func
 726              	Setup_Keys:
 727              	.LFB133:
 168:Core/Src/main.c ****     HAL_Delay(100);
 728              		.loc 1 168 23 is_stmt 1 view -0
 729              		.cfi_startproc
 730              		@ args = 0, pretend = 0, frame = 0
 731              		@ frame_needed = 0, uses_anonymous_args = 0
 732 0000 10B5     		push	{r4, lr}
 733              	.LCFI9:
 734              		.cfi_def_cfa_offset 8
 735              		.cfi_offset 4, -8
ARM GAS  C:\Users\naoki\AppData\Local\Temp\ccZXKLPf.s 			page 20


 736              		.cfi_offset 14, -4
 169:Core/Src/main.c ****     scan_all_keys_fast(adc_raw_values);
 737              		.loc 1 169 5 view .LVU185
 738 0002 6420     		movs	r0, #100
 739 0004 FFF7FEFF 		bl	HAL_Delay
 740              	.LVL52:
 170:Core/Src/main.c ****     HAL_Delay(50);
 741              		.loc 1 170 5 view .LVU186
 742 0008 1D4C     		ldr	r4, .L61
 743 000a 2046     		mov	r0, r4
 744 000c FFF7FEFF 		bl	scan_all_keys_fast
 745              	.LVL53:
 171:Core/Src/main.c ****     scan_all_keys_fast(adc_raw_values);
 746              		.loc 1 171 5 view .LVU187
 747 0010 3220     		movs	r0, #50
 748 0012 FFF7FEFF 		bl	HAL_Delay
 749              	.LVL54:
 172:Core/Src/main.c **** 
 750              		.loc 1 172 5 view .LVU188
 751 0016 2046     		mov	r0, r4
 752 0018 FFF7FEFF 		bl	scan_all_keys_fast
 753              	.LVL55:
 174:Core/Src/main.c ****         key_states[i].resting_val = adc_raw_values[i];
 754              		.loc 1 174 5 view .LVU189
 755              	.LBB14:
 174:Core/Src/main.c ****         key_states[i].resting_val = adc_raw_values[i];
 756              		.loc 1 174 9 view .LVU190
 174:Core/Src/main.c ****         key_states[i].resting_val = adc_raw_values[i];
 757              		.loc 1 174 13 is_stmt 0 view .LVU191
 758 001c 0022     		movs	r2, #0
 174:Core/Src/main.c ****         key_states[i].resting_val = adc_raw_values[i];
 759              		.loc 1 174 5 view .LVU192
 760 001e 1BE0     		b	.L56
 761              	.LVL56:
 762              	.L57:
 175:Core/Src/main.c ****         key_states[i].max_diff = 200; 
 763              		.loc 1 175 9 is_stmt 1 view .LVU193
 175:Core/Src/main.c ****         key_states[i].max_diff = 200; 
 764              		.loc 1 175 51 is_stmt 0 view .LVU194
 765 0020 174B     		ldr	r3, .L61
 766 0022 33F812C0 		ldrh	ip, [r3, r2, lsl #1]
 175:Core/Src/main.c ****         key_states[i].max_diff = 200; 
 767              		.loc 1 175 35 view .LVU195
 768 0026 1749     		ldr	r1, .L61+4
 769 0028 02EBC200 		add	r0, r2, r2, lsl #3
 770 002c 01EB8003 		add	r3, r1, r0, lsl #2
 771 0030 21F820C0 		strh	ip, [r1, r0, lsl #2]	@ movhi
 176:Core/Src/main.c ****         
 772              		.loc 1 176 9 is_stmt 1 view .LVU196
 176:Core/Src/main.c ****         
 773              		.loc 1 176 32 is_stmt 0 view .LVU197
 774 0034 C821     		movs	r1, #200
 775 0036 5980     		strh	r1, [r3, #2]	@ movhi
 178:Core/Src/main.c ****         key_states[i].rt_press = 0.5f;
 776              		.loc 1 178 9 is_stmt 1 view .LVU198
 178:Core/Src/main.c ****         key_states[i].rt_press = 0.5f;
 777              		.loc 1 178 39 is_stmt 0 view .LVU199
ARM GAS  C:\Users\naoki\AppData\Local\Temp\ccZXKLPf.s 			page 21


 778 0038 1349     		ldr	r1, .L61+8
 779 003a 1961     		str	r1, [r3, #16]	@ float
 179:Core/Src/main.c ****         key_states[i].rt_release = 0.5f;
 780              		.loc 1 179 9 is_stmt 1 view .LVU200
 179:Core/Src/main.c ****         key_states[i].rt_release = 0.5f;
 781              		.loc 1 179 32 is_stmt 0 view .LVU201
 782 003c 4FF07C51 		mov	r1, #1056964608
 783 0040 5961     		str	r1, [r3, #20]	@ float
 180:Core/Src/main.c ****         key_states[i].top_deadzone = 0.2f;
 784              		.loc 1 180 9 is_stmt 1 view .LVU202
 180:Core/Src/main.c ****         key_states[i].top_deadzone = 0.2f;
 785              		.loc 1 180 34 is_stmt 0 view .LVU203
 786 0042 9961     		str	r1, [r3, #24]	@ float
 181:Core/Src/main.c ****         key_states[i].bottom_deadzone = 0.1f;
 787              		.loc 1 181 9 is_stmt 1 view .LVU204
 181:Core/Src/main.c ****         key_states[i].bottom_deadzone = 0.1f;
 788              		.loc 1 181 36 is_stmt 0 view .LVU205
 789 0044 1149     		ldr	r1, .L61+12
 790 0046 D961     		str	r1, [r3, #28]	@ float
 182:Core/Src/main.c ****         
 791              		.loc 1 182 9 is_stmt 1 view .LVU206
 182:Core/Src/main.c ****         
 792              		.loc 1 182 39 is_stmt 0 view .LVU207
 793 0048 1149     		ldr	r1, .L61+16
 794 004a 1962     		str	r1, [r3, #32]	@ float
 184:Core/Src/main.c ****         key_states[i].anchor_mm = 0.0f;
 795              		.loc 1 184 9 is_stmt 1 view .LVU208
 184:Core/Src/main.c ****         key_states[i].anchor_mm = 0.0f;
 796              		.loc 1 184 34 is_stmt 0 view .LVU209
 797 004c 0021     		movs	r1, #0
 798 004e 1973     		strb	r1, [r3, #12]
 185:Core/Src/main.c ****         key_states[i].current_mm = 0.0f;
 799              		.loc 1 185 9 is_stmt 1 view .LVU210
 185:Core/Src/main.c ****         key_states[i].current_mm = 0.0f;
 800              		.loc 1 185 33 is_stmt 0 view .LVU211
 801 0050 0021     		movs	r1, #0
 802 0052 9960     		str	r1, [r3, #8]	@ float
 186:Core/Src/main.c ****     }
 803              		.loc 1 186 9 is_stmt 1 view .LVU212
 186:Core/Src/main.c ****     }
 804              		.loc 1 186 34 is_stmt 0 view .LVU213
 805 0054 5960     		str	r1, [r3, #4]	@ float
 174:Core/Src/main.c ****         key_states[i].resting_val = adc_raw_values[i];
 806              		.loc 1 174 32 is_stmt 1 discriminator 3 view .LVU214
 807 0056 0132     		adds	r2, r2, #1
 808              	.LVL57:
 809              	.L56:
 174:Core/Src/main.c ****         key_states[i].resting_val = adc_raw_values[i];
 810              		.loc 1 174 19 discriminator 1 view .LVU215
 811 0058 132A     		cmp	r2, #19
 812 005a E1DD     		ble	.L57
 813              	.LBE14:
 188:Core/Src/main.c ****     for(int i=0; i<COMBO_COUNT; i++) {
 814              		.loc 1 188 5 view .LVU216
 188:Core/Src/main.c ****     for(int i=0; i<COMBO_COUNT; i++) {
 815              		.loc 1 188 17 is_stmt 0 view .LVU217
 816 005c 0023     		movs	r3, #0
ARM GAS  C:\Users\naoki\AppData\Local\Temp\ccZXKLPf.s 			page 22


 817 005e 0D4A     		ldr	r2, .L61+20
 818              	.LVL58:
 188:Core/Src/main.c ****     for(int i=0; i<COMBO_COUNT; i++) {
 819              		.loc 1 188 17 view .LVU218
 820 0060 1370     		strb	r3, [r2]
 189:Core/Src/main.c ****         g_combos[i].mask = 0; g_combos[i].lt = 0; g_combos[i].rt = 0;
 821              		.loc 1 189 5 is_stmt 1 view .LVU219
 822              	.LBB15:
 189:Core/Src/main.c ****         g_combos[i].mask = 0; g_combos[i].lt = 0; g_combos[i].rt = 0;
 823              		.loc 1 189 9 view .LVU220
 824              	.LVL59:
 189:Core/Src/main.c ****         g_combos[i].mask = 0; g_combos[i].lt = 0; g_combos[i].rt = 0;
 825              		.loc 1 189 5 is_stmt 0 view .LVU221
 826 0062 0AE0     		b	.L58
 827              	.LVL60:
 828              	.L59:
 190:Core/Src/main.c ****     }
 829              		.loc 1 190 9 is_stmt 1 view .LVU222
 190:Core/Src/main.c ****     }
 830              		.loc 1 190 26 is_stmt 0 view .LVU223
 831 0064 0C4A     		ldr	r2, .L61+24
 832 0066 0021     		movs	r1, #0
 833 0068 22F82310 		strh	r1, [r2, r3, lsl #2]	@ movhi
 190:Core/Src/main.c ****     }
 834              		.loc 1 190 31 is_stmt 1 view .LVU224
 190:Core/Src/main.c ****     }
 835              		.loc 1 190 46 is_stmt 0 view .LVU225
 836 006c 02EB8302 		add	r2, r2, r3, lsl #2
 837 0070 4FF00000 		mov	r0, #0	@ movhi
 838 0074 9070     		strb	r0, [r2, #2]
 190:Core/Src/main.c ****     }
 839              		.loc 1 190 51 is_stmt 1 view .LVU226
 190:Core/Src/main.c ****     }
 840              		.loc 1 190 66 is_stmt 0 view .LVU227
 841 0076 D170     		strb	r1, [r2, #3]
 189:Core/Src/main.c ****         g_combos[i].mask = 0; g_combos[i].lt = 0; g_combos[i].rt = 0;
 842              		.loc 1 189 34 is_stmt 1 discriminator 3 view .LVU228
 843 0078 0133     		adds	r3, r3, #1
 844              	.LVL61:
 845              	.L58:
 189:Core/Src/main.c ****         g_combos[i].mask = 0; g_combos[i].lt = 0; g_combos[i].rt = 0;
 846              		.loc 1 189 19 discriminator 1 view .LVU229
 847 007a 032B     		cmp	r3, #3
 848 007c F2DD     		ble	.L59
 849              	.LBE15:
 192:Core/Src/main.c **** 
 850              		.loc 1 192 1 is_stmt 0 view .LVU230
 851 007e 10BD     		pop	{r4, pc}
 852              	.L62:
 853              		.align	2
 854              	.L61:
 855 0080 00000000 		.word	adc_raw_values
 856 0084 00000000 		.word	key_states
 857 0088 9A99993F 		.word	1067030938
 858 008c CDCC4C3E 		.word	1045220557
 859 0090 CDCCCC3D 		.word	1036831949
 860 0094 00000000 		.word	g_socd_mode
ARM GAS  C:\Users\naoki\AppData\Local\Temp\ccZXKLPf.s 			page 23


 861 0098 00000000 		.word	g_combos
 862              		.cfi_endproc
 863              	.LFE133:
 865              		.section	.text.Process_Rapid_Trigger,"ax",%progbits
 866              		.align	1
 867              		.global	Process_Rapid_Trigger
 868              		.syntax unified
 869              		.thumb
 870              		.thumb_func
 872              	Process_Rapid_Trigger:
 873              	.LVL62:
 874              	.LFB140:
 274:Core/Src/main.c **** 
 275:Core/Src/main.c **** // --- ラピッドトリガー (AP優先ロジック修正版) ---
 276:Core/Src/main.c **** void Process_Rapid_Trigger(int key_idx, uint16_t raw) {
 875              		.loc 1 276 55 is_stmt 1 view -0
 876              		.cfi_startproc
 877              		@ args = 0, pretend = 0, frame = 0
 878              		@ frame_needed = 0, uses_anonymous_args = 0
 879              		@ link register save eliminated.
 277:Core/Src/main.c ****     KeyState_t *k = &key_states[key_idx];
 880              		.loc 1 277 5 view .LVU232
 278:Core/Src/main.c ****     int diff = (int)raw - (int)k->resting_val;
 881              		.loc 1 278 5 view .LVU233
 882              		.loc 1 278 33 is_stmt 0 view .LVU234
 883 0000 00EBC002 		add	r2, r0, r0, lsl #3
 884 0004 654B     		ldr	r3, .L94
 885 0006 33F82230 		ldrh	r3, [r3, r2, lsl #2]
 886              		.loc 1 278 9 view .LVU235
 887 000a C91A     		subs	r1, r1, r3
 888              	.LVL63:
 279:Core/Src/main.c ****     uint16_t abs_diff = abs(diff);
 889              		.loc 1 279 5 is_stmt 1 view .LVU236
 890              		.loc 1 279 25 is_stmt 0 view .LVU237
 891 000c 0029     		cmp	r1, #0
 892 000e B8BF     		it	lt
 893 0010 4942     		rsblt	r1, r1, #0
 894              	.LVL64:
 895              		.loc 1 279 14 view .LVU238
 896 0012 89B2     		uxth	r1, r1
 897              	.LVL65:
 280:Core/Src/main.c **** 
 281:Core/Src/main.c ****     if (abs_diff < RAW_DEADZONE) abs_diff = 0;
 898              		.loc 1 281 5 is_stmt 1 view .LVU239
 899              		.loc 1 281 8 is_stmt 0 view .LVU240
 900 0014 3B29     		cmp	r1, #59
 901 0016 0AD9     		bls	.L80
 282:Core/Src/main.c ****     if (abs_diff > k->max_diff) k->max_diff = abs_diff;
 902              		.loc 1 282 5 is_stmt 1 view .LVU241
 903              		.loc 1 282 21 is_stmt 0 view .LVU242
 904 0018 604B     		ldr	r3, .L94
 905              	.LVL66:
 906              		.loc 1 282 21 view .LVU243
 907 001a 03EB8203 		add	r3, r3, r2, lsl #2
 908              	.LVL67:
 909              		.loc 1 282 21 view .LVU244
 910 001e 5B88     		ldrh	r3, [r3, #2]
ARM GAS  C:\Users\naoki\AppData\Local\Temp\ccZXKLPf.s 			page 24


 911              		.loc 1 282 8 view .LVU245
 912 0020 8B42     		cmp	r3, r1
 913 0022 05D2     		bcs	.L64
 914              		.loc 1 282 33 is_stmt 1 discriminator 1 view .LVU246
 915              		.loc 1 282 45 is_stmt 0 discriminator 1 view .LVU247
 916 0024 5D4B     		ldr	r3, .L94
 917              	.LVL68:
 918              		.loc 1 282 45 discriminator 1 view .LVU248
 919 0026 03EB8203 		add	r3, r3, r2, lsl #2
 920              	.LVL69:
 921              		.loc 1 282 45 discriminator 1 view .LVU249
 922 002a 5980     		strh	r1, [r3, #2]	@ movhi
 923 002c 00E0     		b	.L64
 924              	.LVL70:
 925              	.L80:
 281:Core/Src/main.c ****     if (abs_diff > k->max_diff) k->max_diff = abs_diff;
 926              		.loc 1 281 43 discriminator 1 view .LVU250
 927 002e 0021     		movs	r1, #0
 928              	.LVL71:
 929              	.L64:
 283:Core/Src/main.c **** 
 284:Core/Src/main.c ****     float norm = (float)abs_diff / (float)k->max_diff;
 930              		.loc 1 284 5 is_stmt 1 view .LVU251
 931              		.loc 1 284 18 is_stmt 0 view .LVU252
 932 0030 07EE901A 		vmov	s15, r1	@ int
 933 0034 F8EE677A 		vcvt.f32.u32	s15, s15
 934              		.loc 1 284 44 view .LVU253
 935 0038 00EBC002 		add	r2, r0, r0, lsl #3
 936              	.LVL72:
 937              		.loc 1 284 44 view .LVU254
 938 003c 574B     		ldr	r3, .L94
 939              	.LVL73:
 940              		.loc 1 284 44 view .LVU255
 941 003e 03EB8203 		add	r3, r3, r2, lsl #2
 942              	.LVL74:
 943              		.loc 1 284 44 view .LVU256
 944 0042 5B88     		ldrh	r3, [r3, #2]
 945 0044 06EE903A 		vmov	s13, r3	@ int
 946              		.loc 1 284 36 view .LVU257
 947 0048 F8EE666A 		vcvt.f32.u32	s13, s13
 948              		.loc 1 284 11 view .LVU258
 949 004c 87EEA67A 		vdiv.f32	s14, s15, s13
 950              	.LVL75:
 285:Core/Src/main.c ****     if (norm > 1.0f) norm = 1.0f;
 951              		.loc 1 285 5 is_stmt 1 view .LVU259
 952              		.loc 1 285 8 is_stmt 0 view .LVU260
 953 0050 F7EE007A 		vmov.f32	s15, #1.0e+0
 954 0054 B4EEE77A 		vcmpe.f32	s14, s15
 955 0058 F1EE10FA 		vmrs	APSR_nzcv, FPSCR
 956 005c 01DD     		ble	.L65
 957              		.loc 1 285 27 discriminator 1 view .LVU261
 958 005e B0EE677A 		vmov.f32	s14, s15
 959              	.LVL76:
 960              	.L65:
 286:Core/Src/main.c ****     
 287:Core/Src/main.c ****     float pos = norm * TRAVEL_DISTANCE_MM;
 961              		.loc 1 287 5 is_stmt 1 view .LVU262
ARM GAS  C:\Users\naoki\AppData\Local\Temp\ccZXKLPf.s 			page 25


 962              		.loc 1 287 11 is_stmt 0 view .LVU263
 963 0062 DFED4F7A 		vldr.32	s15, .L94+4
 964 0066 67EE277A 		vmul.f32	s15, s14, s15
 965              	.LVL77:
 288:Core/Src/main.c **** 
 289:Core/Src/main.c ****     if (pos < k->top_deadzone) pos = 0.0f;
 966              		.loc 1 289 5 is_stmt 1 view .LVU264
 967              		.loc 1 289 16 is_stmt 0 view .LVU265
 968 006a 00EBC002 		add	r2, r0, r0, lsl #3
 969 006e 4B4B     		ldr	r3, .L94
 970              	.LVL78:
 971              		.loc 1 289 16 view .LVU266
 972 0070 03EB8203 		add	r3, r3, r2, lsl #2
 973              	.LVL79:
 974              		.loc 1 289 16 view .LVU267
 975 0074 93ED077A 		vldr.32	s14, [r3, #28]
 976              	.LVL80:
 977              		.loc 1 289 8 view .LVU268
 978 0078 B4EEE77A 		vcmpe.f32	s14, s15
 979 007c F1EE10FA 		vmrs	APSR_nzcv, FPSCR
 980 0080 01DD     		ble	.L66
 981              		.loc 1 289 36 discriminator 1 view .LVU269
 982 0082 DFED487A 		vldr.32	s15, .L94+8
 983              	.LVL81:
 984              	.L66:
 290:Core/Src/main.c ****     k->current_mm = pos;
 985              		.loc 1 290 5 is_stmt 1 view .LVU270
 986              		.loc 1 290 19 is_stmt 0 view .LVU271
 987 0086 00EBC002 		add	r2, r0, r0, lsl #3
 988 008a 444B     		ldr	r3, .L94
 989              	.LVL82:
 990              		.loc 1 290 19 view .LVU272
 991 008c 03EB8203 		add	r3, r3, r2, lsl #2
 992              	.LVL83:
 993              		.loc 1 290 19 view .LVU273
 994 0090 C3ED017A 		vstr.32	s15, [r3, #4]
 291:Core/Src/main.c **** 
 292:Core/Src/main.c ****     bool in_bottom_zone = (pos > (TRAVEL_DISTANCE_MM - k->bottom_deadzone));
 995              		.loc 1 292 5 is_stmt 1 view .LVU274
 996              		.loc 1 292 57 is_stmt 0 view .LVU275
 997 0094 D3ED086A 		vldr.32	s13, [r3, #32]
 998              		.loc 1 292 54 view .LVU276
 999 0098 9FED417A 		vldr.32	s14, .L94+4
 1000 009c 37EE667A 		vsub.f32	s14, s14, s13
 1001              	.LVL84:
 293:Core/Src/main.c **** 
 294:Core/Src/main.c ****     // 1. AP以下の処理 (絶対優先)
 295:Core/Src/main.c ****     if (pos < k->actuation_point) {
 1002              		.loc 1 295 5 is_stmt 1 view .LVU277
 1003              		.loc 1 295 16 is_stmt 0 view .LVU278
 1004 00a0 D3ED046A 		vldr.32	s13, [r3, #16]
 1005              		.loc 1 295 8 view .LVU279
 1006 00a4 F4EEE76A 		vcmpe.f32	s13, s15
 1007 00a8 F1EE10FA 		vmrs	APSR_nzcv, FPSCR
 1008 00ac 17DC     		bgt	.L93
 296:Core/Src/main.c ****         k->is_pressed = false;
 297:Core/Src/main.c ****         // AP以下にいる間は、アンカー(最下点)を常に現在位置に更新する
ARM GAS  C:\Users\naoki\AppData\Local\Temp\ccZXKLPf.s 			page 26


 298:Core/Src/main.c ****         // これにより、次にAPを超えた瞬間に「アンカー < AP」の条件を満た
 299:Core/Src/main.c ****         k->anchor_mm = pos;
 300:Core/Src/main.c ****         return;
 301:Core/Src/main.c ****     }
 302:Core/Src/main.c **** 
 303:Core/Src/main.c ****     // 2. AP以上の処理
 304:Core/Src/main.c ****     if (k->is_pressed) {
 1009              		.loc 1 304 5 is_stmt 1 view .LVU280
 1010              		.loc 1 304 10 is_stmt 0 view .LVU281
 1011 00ae 00EBC002 		add	r2, r0, r0, lsl #3
 1012 00b2 3A4B     		ldr	r3, .L94
 1013              	.LVL85:
 1014              		.loc 1 304 10 view .LVU282
 1015 00b4 03EB8203 		add	r3, r3, r2, lsl #2
 1016              	.LVL86:
 1017              		.loc 1 304 10 view .LVU283
 1018 00b8 1B7B     		ldrb	r3, [r3, #12]	@ zero_extendqisi2
 1019              		.loc 1 304 8 view .LVU284
 1020 00ba 002B     		cmp	r3, #0
 1021 00bc 3AD0     		beq	.L70
 305:Core/Src/main.c ****         // 現在ONの場合: リリース判定
 306:Core/Src/main.c ****         
 307:Core/Src/main.c ****         // より深く押し込んだ場合、アンカー(最深点)を更新
 308:Core/Src/main.c ****         if (pos > k->anchor_mm) {
 1022              		.loc 1 308 9 is_stmt 1 view .LVU285
 1023              		.loc 1 308 20 is_stmt 0 view .LVU286
 1024 00be 374B     		ldr	r3, .L94
 1025              	.LVL87:
 1026              		.loc 1 308 20 view .LVU287
 1027 00c0 03EB8203 		add	r3, r3, r2, lsl #2
 1028              	.LVL88:
 1029              		.loc 1 308 20 view .LVU288
 1030 00c4 D3ED026A 		vldr.32	s13, [r3, #8]
 1031              		.loc 1 308 12 view .LVU289
 1032 00c8 F4EEE76A 		vcmpe.f32	s13, s15
 1033 00cc F1EE10FA 		vmrs	APSR_nzcv, FPSCR
 1034 00d0 0DD5     		bpl	.L90
 309:Core/Src/main.c ****             k->anchor_mm = pos;
 1035              		.loc 1 309 13 is_stmt 1 view .LVU290
 1036              		.loc 1 309 26 is_stmt 0 view .LVU291
 1037 00d2 324B     		ldr	r3, .L94
 1038              	.LVL89:
 1039              		.loc 1 309 26 view .LVU292
 1040 00d4 03EB8200 		add	r0, r3, r2, lsl #2
 1041              	.LVL90:
 1042              		.loc 1 309 26 view .LVU293
 1043 00d8 C0ED027A 		vstr.32	s15, [r0, #8]
 1044 00dc 7047     		bx	lr
 1045              	.LVL91:
 1046              	.L93:
 296:Core/Src/main.c ****         k->is_pressed = false;
 1047              		.loc 1 296 9 is_stmt 1 view .LVU294
 296:Core/Src/main.c ****         k->is_pressed = false;
 1048              		.loc 1 296 23 is_stmt 0 view .LVU295
 1049 00de 2F4B     		ldr	r3, .L94
 1050              	.LVL92:
 296:Core/Src/main.c ****         k->is_pressed = false;
ARM GAS  C:\Users\naoki\AppData\Local\Temp\ccZXKLPf.s 			page 27


 1051              		.loc 1 296 23 view .LVU296
 1052 00e0 03EB8202 		add	r2, r3, r2, lsl #2
 1053 00e4 0021     		movs	r1, #0
 1054 00e6 1173     		strb	r1, [r2, #12]
 299:Core/Src/main.c ****         return;
 1055              		.loc 1 299 9 is_stmt 1 view .LVU297
 299:Core/Src/main.c ****         return;
 1056              		.loc 1 299 22 is_stmt 0 view .LVU298
 1057 00e8 C2ED027A 		vstr.32	s15, [r2, #8]
 300:Core/Src/main.c ****     }
 1058              		.loc 1 300 9 is_stmt 1 view .LVU299
 1059 00ec 7047     		bx	lr
 1060              	.LVL93:
 1061              	.L90:
 310:Core/Src/main.c ****         }
 311:Core/Src/main.c ****         // RTリリース判定 (底打ちゾーン以外)
 312:Core/Src/main.c ****         else if (pos < (k->anchor_mm - k->rt_release)) {
 1062              		.loc 1 312 14 view .LVU300
 1063              		.loc 1 312 41 is_stmt 0 view .LVU301
 1064 00ee 00EBC002 		add	r2, r0, r0, lsl #3
 1065 00f2 2A4B     		ldr	r3, .L94
 1066              	.LVL94:
 1067              		.loc 1 312 41 view .LVU302
 1068 00f4 03EB8203 		add	r3, r3, r2, lsl #2
 1069              	.LVL95:
 1070              		.loc 1 312 41 view .LVU303
 1071 00f8 93ED066A 		vldr.32	s12, [r3, #24]
 1072              		.loc 1 312 38 view .LVU304
 1073 00fc 76EEC66A 		vsub.f32	s13, s13, s12
 1074              		.loc 1 312 17 view .LVU305
 1075 0100 F4EEE76A 		vcmpe.f32	s13, s15
 1076 0104 F1EE10FA 		vmrs	APSR_nzcv, FPSCR
 1077 0108 47DD     		ble	.L63
 313:Core/Src/main.c ****             if (!in_bottom_zone) {
 1078              		.loc 1 313 13 is_stmt 1 view .LVU306
 1079              		.loc 1 313 16 is_stmt 0 view .LVU307
 1080 010a B4EEE77A 		vcmpe.f32	s14, s15
 1081 010e F1EE10FA 		vmrs	APSR_nzcv, FPSCR
 1082 0112 07D4     		bmi	.L74
 314:Core/Src/main.c ****                 k->is_pressed = false;
 1083              		.loc 1 314 17 is_stmt 1 view .LVU308
 1084              		.loc 1 314 31 is_stmt 0 view .LVU309
 1085 0114 214B     		ldr	r3, .L94
 1086              	.LVL96:
 1087              		.loc 1 314 31 view .LVU310
 1088 0116 03EB8202 		add	r2, r3, r2, lsl #2
 1089 011a 0021     		movs	r1, #0
 1090 011c 1173     		strb	r1, [r2, #12]
 315:Core/Src/main.c ****                 k->anchor_mm = pos; // リリース地点を新たなアンカー(最浅点)とす
 1091              		.loc 1 315 17 is_stmt 1 view .LVU311
 1092              		.loc 1 315 30 is_stmt 0 view .LVU312
 1093 011e C2ED027A 		vstr.32	s15, [r2, #8]
 1094 0122 7047     		bx	lr
 1095              	.LVL97:
 1096              	.L74:
 316:Core/Src/main.c ****             } else {
 317:Core/Src/main.c ****                 // 底打ちゾーンではアンカーだけ更新してOFFにしない(デッド
ARM GAS  C:\Users\naoki\AppData\Local\Temp\ccZXKLPf.s 			page 28


 318:Core/Src/main.c ****                 k->anchor_mm = pos;
 1097              		.loc 1 318 17 is_stmt 1 view .LVU313
 1098              		.loc 1 318 30 is_stmt 0 view .LVU314
 1099 0124 00EBC000 		add	r0, r0, r0, lsl #3
 1100              	.LVL98:
 1101              		.loc 1 318 30 view .LVU315
 1102 0128 1C4B     		ldr	r3, .L94
 1103              	.LVL99:
 1104              		.loc 1 318 30 view .LVU316
 1105 012a 03EB8003 		add	r3, r3, r0, lsl #2
 1106              	.LVL100:
 1107              		.loc 1 318 30 view .LVU317
 1108 012e C3ED027A 		vstr.32	s15, [r3, #8]
 1109 0132 7047     		bx	lr
 1110              	.LVL101:
 1111              	.L70:
 319:Core/Src/main.c ****             }
 320:Core/Src/main.c ****         }
 321:Core/Src/main.c ****     } 
 322:Core/Src/main.c ****     else {
 323:Core/Src/main.c ****         // 現在OFFの場合: プレス判定
 324:Core/Src/main.c ****         
 325:Core/Src/main.c ****         // ケースA: ラピッドトリガー再点火 (APより上で浮かせた状態からの
 326:Core/Src/main.c ****         if (pos > (k->anchor_mm + k->rt_press)) {
 1112              		.loc 1 326 9 is_stmt 1 view .LVU318
 1113              		.loc 1 326 21 is_stmt 0 view .LVU319
 1114 0134 00EBC002 		add	r2, r0, r0, lsl #3
 1115 0138 184B     		ldr	r3, .L94
 1116              	.LVL102:
 1117              		.loc 1 326 21 view .LVU320
 1118 013a 03EB8203 		add	r3, r3, r2, lsl #2
 1119              	.LVL103:
 1120              		.loc 1 326 21 view .LVU321
 1121 013e 93ED026A 		vldr.32	s12, [r3, #8]
 1122              		.loc 1 326 36 view .LVU322
 1123 0142 93ED057A 		vldr.32	s14, [r3, #20]
 1124              	.LVL104:
 1125              		.loc 1 326 33 view .LVU323
 1126 0146 36EE077A 		vadd.f32	s14, s12, s14
 1127              		.loc 1 326 12 view .LVU324
 1128 014a B4EEE77A 		vcmpe.f32	s14, s15
 1129 014e F1EE10FA 		vmrs	APSR_nzcv, FPSCR
 1130 0152 07D5     		bpl	.L91
 327:Core/Src/main.c ****             k->is_pressed = true;
 1131              		.loc 1 327 13 is_stmt 1 view .LVU325
 1132              		.loc 1 327 27 is_stmt 0 view .LVU326
 1133 0154 114B     		ldr	r3, .L94
 1134              	.LVL105:
 1135              		.loc 1 327 27 view .LVU327
 1136 0156 03EB8202 		add	r2, r3, r2, lsl #2
 1137 015a 0121     		movs	r1, #1
 1138 015c 1173     		strb	r1, [r2, #12]
 328:Core/Src/main.c ****             k->anchor_mm = pos;
 1139              		.loc 1 328 13 is_stmt 1 view .LVU328
 1140              		.loc 1 328 26 is_stmt 0 view .LVU329
 1141 015e C2ED027A 		vstr.32	s15, [r2, #8]
 1142 0162 7047     		bx	lr
ARM GAS  C:\Users\naoki\AppData\Local\Temp\ccZXKLPf.s 			page 29


 1143              	.LVL106:
 1144              	.L91:
 329:Core/Src/main.c ****         }
 330:Core/Src/main.c ****         // ケースB: 初回入力 (AP越え判定)
 331:Core/Src/main.c ****         // アンカー(直前の最下点)がAPより下にある状態で、現在位置がAPを
 332:Core/Src/main.c ****         // RT感度に関係なく即座にONにする
 333:Core/Src/main.c ****         else if (k->anchor_mm < k->actuation_point) {
 1145              		.loc 1 333 14 is_stmt 1 view .LVU330
 1146              		.loc 1 333 17 is_stmt 0 view .LVU331
 1147 0164 F4EEC66A 		vcmpe.f32	s13, s12
 1148 0168 F1EE10FA 		vmrs	APSR_nzcv, FPSCR
 1149 016c 09DD     		ble	.L92
 334:Core/Src/main.c ****             k->is_pressed = true;
 1150              		.loc 1 334 13 is_stmt 1 view .LVU332
 1151              		.loc 1 334 27 is_stmt 0 view .LVU333
 1152 016e 0B4B     		ldr	r3, .L94
 1153              	.LVL107:
 1154              		.loc 1 334 27 view .LVU334
 1155 0170 00EBC002 		add	r2, r0, r0, lsl #3
 1156 0174 03EB8202 		add	r2, r3, r2, lsl #2
 1157 0178 0121     		movs	r1, #1
 1158 017a 1173     		strb	r1, [r2, #12]
 335:Core/Src/main.c ****             k->anchor_mm = pos;
 1159              		.loc 1 335 13 is_stmt 1 view .LVU335
 1160              		.loc 1 335 26 is_stmt 0 view .LVU336
 1161 017c C2ED027A 		vstr.32	s15, [r2, #8]
 1162 0180 7047     		bx	lr
 1163              	.LVL108:
 1164              	.L92:
 336:Core/Src/main.c ****         }
 337:Core/Src/main.c ****         // まだONにならない場合、アンカー(最浅点)を更新して追従させる
 338:Core/Src/main.c ****         else if (pos < k->anchor_mm) {
 1165              		.loc 1 338 14 is_stmt 1 view .LVU337
 1166              		.loc 1 338 17 is_stmt 0 view .LVU338
 1167 0182 B4EEE76A 		vcmpe.f32	s12, s15
 1168 0186 F1EE10FA 		vmrs	APSR_nzcv, FPSCR
 1169 018a 06DD     		ble	.L63
 339:Core/Src/main.c ****             k->anchor_mm = pos;
 1170              		.loc 1 339 13 is_stmt 1 view .LVU339
 1171              		.loc 1 339 26 is_stmt 0 view .LVU340
 1172 018c 00EBC000 		add	r0, r0, r0, lsl #3
 1173              	.LVL109:
 1174              		.loc 1 339 26 view .LVU341
 1175 0190 024B     		ldr	r3, .L94
 1176              	.LVL110:
 1177              		.loc 1 339 26 view .LVU342
 1178 0192 03EB8003 		add	r3, r3, r0, lsl #2
 1179              	.LVL111:
 1180              		.loc 1 339 26 view .LVU343
 1181 0196 C3ED027A 		vstr.32	s15, [r3, #8]
 1182              	.L63:
 340:Core/Src/main.c ****         }
 341:Core/Src/main.c ****     }
 342:Core/Src/main.c **** }
 1183              		.loc 1 342 1 view .LVU344
 1184 019a 7047     		bx	lr
 1185              	.L95:
ARM GAS  C:\Users\naoki\AppData\Local\Temp\ccZXKLPf.s 			page 30


 1186              		.align	2
 1187              	.L94:
 1188 019c 00000000 		.word	key_states
 1189 01a0 CDCC4C40 		.word	1078774989
 1190 01a4 00000000 		.word	0
 1191              		.cfi_endproc
 1192              	.LFE140:
 1194              		.section	.text.Send_Reports,"ax",%progbits
 1195              		.align	1
 1196              		.global	Send_Reports
 1197              		.syntax unified
 1198              		.thumb
 1199              		.thumb_func
 1201              	Send_Reports:
 1202              	.LFB141:
 343:Core/Src/main.c **** 
 344:Core/Src/main.c **** // --- レポート送信 ---
 345:Core/Src/main.c **** void Send_Reports(void) {
 1203              		.loc 1 345 25 is_stmt 1 view -0
 1204              		.cfi_startproc
 1205              		@ args = 0, pretend = 0, frame = 24
 1206              		@ frame_needed = 0, uses_anonymous_args = 0
 1207 0000 2DE9F043 		push	{r4, r5, r6, r7, r8, r9, lr}
 1208              	.LCFI10:
 1209              		.cfi_def_cfa_offset 28
 1210              		.cfi_offset 4, -28
 1211              		.cfi_offset 5, -24
 1212              		.cfi_offset 6, -20
 1213              		.cfi_offset 7, -16
 1214              		.cfi_offset 8, -12
 1215              		.cfi_offset 9, -8
 1216              		.cfi_offset 14, -4
 1217 0004 87B0     		sub	sp, sp, #28
 1218              	.LCFI11:
 1219              		.cfi_def_cfa_offset 56
 346:Core/Src/main.c ****     static XInputReport_t prev_report = {0};
 1220              		.loc 1 346 5 view .LVU346
 347:Core/Src/main.c ****     XInputReport_t report = {0};
 1221              		.loc 1 347 5 view .LVU347
 1222              		.loc 1 347 20 is_stmt 0 view .LVU348
 1223 0006 0023     		movs	r3, #0
 1224 0008 0193     		str	r3, [sp, #4]
 1225 000a 0293     		str	r3, [sp, #8]
 1226 000c 0393     		str	r3, [sp, #12]
 1227 000e 0493     		str	r3, [sp, #16]
 1228 0010 0593     		str	r3, [sp, #20]
 348:Core/Src/main.c ****     report.msg_type = 0x00;
 1229              		.loc 1 348 5 is_stmt 1 view .LVU349
 349:Core/Src/main.c ****     report.pkt_size = 0x14;
 1230              		.loc 1 349 5 view .LVU350
 1231              		.loc 1 349 21 is_stmt 0 view .LVU351
 1232 0012 1423     		movs	r3, #20
 1233 0014 8DF80530 		strb	r3, [sp, #5]
 350:Core/Src/main.c **** 
 351:Core/Src/main.c ****     if (!g_input_enabled) {
 1234              		.loc 1 351 5 is_stmt 1 view .LVU352
 1235              		.loc 1 351 9 is_stmt 0 view .LVU353
ARM GAS  C:\Users\naoki\AppData\Local\Temp\ccZXKLPf.s 			page 31


 1236 0018 874B     		ldr	r3, .L159
 1237 001a 1B78     		ldrb	r3, [r3]	@ zero_extendqisi2
 1238              		.loc 1 351 8 view .LVU354
 1239 001c 43B1     		cbz	r3, .L151
 1240              	.LBB16:
 352:Core/Src/main.c ****         if (memcmp(&report, &prev_report, sizeof(XInputReport_t)) != 0) {
 353:Core/Src/main.c ****             if (USBD_HID_SendReport(&hUsbDeviceFS, (uint8_t*)&report, sizeof(report)) == USBD_OK) {
 354:Core/Src/main.c ****                 prev_report = report;
 355:Core/Src/main.c ****             }
 356:Core/Src/main.c ****         }
 357:Core/Src/main.c ****         return;
 358:Core/Src/main.c ****     }
 359:Core/Src/main.c **** 
 360:Core/Src/main.c ****     uint16_t btns_mask = 0;
 361:Core/Src/main.c ****     uint8_t trigger_l = 0;
 362:Core/Src/main.c ****     uint8_t trigger_r = 0;
 363:Core/Src/main.c ****     bool up=false, down=false, left=false, right=false;
 364:Core/Src/main.c **** 
 365:Core/Src/main.c ****     for(int i = 0; i < KEY_COUNT; i++) {
 1241              		.loc 1 365 13 view .LVU355
 1242 001e 0023     		movs	r3, #0
 1243              	.LBE16:
 363:Core/Src/main.c **** 
 1244              		.loc 1 363 44 view .LVU356
 1245 0020 9C46     		mov	ip, r3
 363:Core/Src/main.c **** 
 1246              		.loc 1 363 32 view .LVU357
 1247 0022 9846     		mov	r8, r3
 363:Core/Src/main.c **** 
 1248              		.loc 1 363 20 view .LVU358
 1249 0024 1E46     		mov	r6, r3
 363:Core/Src/main.c **** 
 1250              		.loc 1 363 10 view .LVU359
 1251 0026 1F46     		mov	r7, r3
 362:Core/Src/main.c ****     bool up=false, down=false, left=false, right=false;
 1252              		.loc 1 362 13 view .LVU360
 1253 0028 9E46     		mov	lr, r3
 361:Core/Src/main.c ****     uint8_t trigger_r = 0;
 1254              		.loc 1 361 13 view .LVU361
 1255 002a 9946     		mov	r9, r3
 360:Core/Src/main.c ****     uint8_t trigger_l = 0;
 1256              		.loc 1 360 14 view .LVU362
 1257 002c 1846     		mov	r0, r3
 1258 002e 3AE0     		b	.L97
 1259              	.L151:
 352:Core/Src/main.c ****             if (USBD_HID_SendReport(&hUsbDeviceFS, (uint8_t*)&report, sizeof(report)) == USBD_OK) {
 1260              		.loc 1 352 9 is_stmt 1 view .LVU363
 352:Core/Src/main.c ****             if (USBD_HID_SendReport(&hUsbDeviceFS, (uint8_t*)&report, sizeof(report)) == USBD_OK) {
 1261              		.loc 1 352 13 is_stmt 0 view .LVU364
 1262 0030 1422     		movs	r2, #20
 1263 0032 8249     		ldr	r1, .L159+4
 1264 0034 01A8     		add	r0, sp, #4
 1265 0036 FFF7FEFF 		bl	memcmp
 1266              	.LVL112:
 352:Core/Src/main.c ****             if (USBD_HID_SendReport(&hUsbDeviceFS, (uint8_t*)&report, sizeof(report)) == USBD_OK) {
 1267              		.loc 1 352 12 discriminator 1 view .LVU365
 1268 003a 0028     		cmp	r0, #0
ARM GAS  C:\Users\naoki\AppData\Local\Temp\ccZXKLPf.s 			page 32


 1269 003c 00F02781 		beq	.L96
 353:Core/Src/main.c ****                 prev_report = report;
 1270              		.loc 1 353 13 is_stmt 1 view .LVU366
 353:Core/Src/main.c ****                 prev_report = report;
 1271              		.loc 1 353 17 is_stmt 0 view .LVU367
 1272 0040 1422     		movs	r2, #20
 1273 0042 01A9     		add	r1, sp, #4
 1274 0044 7E48     		ldr	r0, .L159+8
 1275 0046 FFF7FEFF 		bl	USBD_HID_SendReport
 1276              	.LVL113:
 353:Core/Src/main.c ****                 prev_report = report;
 1277              		.loc 1 353 16 discriminator 1 view .LVU368
 1278 004a 0028     		cmp	r0, #0
 1279 004c 40F01F81 		bne	.L96
 354:Core/Src/main.c ****             }
 1280              		.loc 1 354 17 is_stmt 1 view .LVU369
 354:Core/Src/main.c ****             }
 1281              		.loc 1 354 29 is_stmt 0 view .LVU370
 1282 0050 7A4C     		ldr	r4, .L159+4
 1283 0052 01AD     		add	r5, sp, #4
 1284 0054 0FCD     		ldmia	r5!, {r0, r1, r2, r3}
 1285 0056 0FC4     		stmia	r4!, {r0, r1, r2, r3}
 1286 0058 2B68     		ldr	r3, [r5]
 1287 005a 2360     		str	r3, [r4]
 357:Core/Src/main.c ****     }
 1288              		.loc 1 357 9 is_stmt 1 view .LVU371
 1289 005c 17E1     		b	.L96
 1290              	.LVL114:
 1291              	.L153:
 1292              	.LBB20:
 1293              	.LBB17:
 1294              	.LBB18:
 366:Core/Src/main.c ****         if (key_states[i].is_pressed) {
 367:Core/Src/main.c ****             uint8_t id = key_map[i];
 368:Core/Src/main.c ****             
 369:Core/Src/main.c ****             if (id >= BTN_COMBO_1 && id <= BTN_COMBO_4) {
 370:Core/Src/main.c ****                 int combo_idx = id - BTN_COMBO_1;
 1295              		.loc 1 370 17 view .LVU372
 1296              		.loc 1 370 21 is_stmt 0 view .LVU373
 1297 005e 643A     		subs	r2, r2, #100
 1298              	.LVL115:
 371:Core/Src/main.c ****                 if (combo_idx < COMBO_COUNT) {
 1299              		.loc 1 371 17 is_stmt 1 view .LVU374
 372:Core/Src/main.c ****                     btns_mask |= g_combos[combo_idx].mask;
 1300              		.loc 1 372 21 view .LVU375
 1301              		.loc 1 372 53 is_stmt 0 view .LVU376
 1302 0060 784D     		ldr	r5, .L159+12
 1303 0062 35F82240 		ldrh	r4, [r5, r2, lsl #2]
 1304              		.loc 1 372 31 view .LVU377
 1305 0066 2043     		orrs	r0, r0, r4
 1306              	.LVL116:
 373:Core/Src/main.c ****                     if (g_combos[combo_idx].lt) trigger_l = 255;
 1307              		.loc 1 373 21 is_stmt 1 view .LVU378
 1308              		.loc 1 373 44 is_stmt 0 view .LVU379
 1309 0068 05EB8205 		add	r5, r5, r2, lsl #2
 1310 006c AD78     		ldrb	r5, [r5, #2]	@ zero_extendqisi2
 1311              		.loc 1 373 24 view .LVU380
ARM GAS  C:\Users\naoki\AppData\Local\Temp\ccZXKLPf.s 			page 33


 1312 006e 0DB1     		cbz	r5, .L102
 1313              		.loc 1 373 59 discriminator 1 view .LVU381
 1314 0070 FF25     		movs	r5, #255
 1315 0072 A946     		mov	r9, r5
 1316              	.LVL117:
 1317              	.L102:
 374:Core/Src/main.c ****                     if (g_combos[combo_idx].rt) trigger_r = 255;
 1318              		.loc 1 374 21 is_stmt 1 view .LVU382
 1319              		.loc 1 374 44 is_stmt 0 view .LVU383
 1320 0074 734D     		ldr	r5, .L159+12
 1321 0076 05EB8202 		add	r2, r5, r2, lsl #2
 1322              	.LVL118:
 1323              		.loc 1 374 44 view .LVU384
 1324 007a D278     		ldrb	r2, [r2, #3]	@ zero_extendqisi2
 1325              		.loc 1 374 24 view .LVU385
 1326 007c 0AB1     		cbz	r2, .L103
 1327              		.loc 1 374 59 discriminator 1 view .LVU386
 1328 007e 4FF0FF0E 		mov	lr, #255
 1329              	.LVL119:
 1330              	.L103:
 375:Core/Src/main.c ****                     if (g_combos[combo_idx].mask & XINPUT_DPAD_UP) up = true;
 1331              		.loc 1 375 21 is_stmt 1 view .LVU387
 1332              		.loc 1 375 24 is_stmt 0 view .LVU388
 1333 0082 14F0010F 		tst	r4, #1
 1334 0086 00D0     		beq	.L104
 1335              		.loc 1 375 71 discriminator 1 view .LVU389
 1336 0088 0F46     		mov	r7, r1
 1337              	.LVL120:
 1338              	.L104:
 376:Core/Src/main.c ****                     if (g_combos[combo_idx].mask & XINPUT_DPAD_DOWN) down = true;
 1339              		.loc 1 376 21 is_stmt 1 view .LVU390
 1340              		.loc 1 376 24 is_stmt 0 view .LVU391
 1341 008a 14F0020F 		tst	r4, #2
 1342 008e 00D0     		beq	.L105
 1343              		.loc 1 376 75 discriminator 1 view .LVU392
 1344 0090 0E46     		mov	r6, r1
 1345              	.LVL121:
 1346              	.L105:
 377:Core/Src/main.c ****                     if (g_combos[combo_idx].mask & XINPUT_DPAD_LEFT) left = true;
 1347              		.loc 1 377 21 is_stmt 1 view .LVU393
 1348              		.loc 1 377 24 is_stmt 0 view .LVU394
 1349 0092 14F0040F 		tst	r4, #4
 1350 0096 00D0     		beq	.L106
 1351              		.loc 1 377 75 discriminator 1 view .LVU395
 1352 0098 8846     		mov	r8, r1
 1353              	.LVL122:
 1354              	.L106:
 378:Core/Src/main.c ****                     if (g_combos[combo_idx].mask & XINPUT_DPAD_RIGHT) right = true;
 1355              		.loc 1 378 21 is_stmt 1 view .LVU396
 1356              		.loc 1 378 24 is_stmt 0 view .LVU397
 1357 009a 14F0080F 		tst	r4, #8
 1358 009e 00D1     		bne	.L107
 1359 00a0 6146     		mov	r1, ip
 1360              	.L107:
 1361              	.LVL123:
 379:Core/Src/main.c ****                 }
 380:Core/Src/main.c ****                 continue;
ARM GAS  C:\Users\naoki\AppData\Local\Temp\ccZXKLPf.s 			page 34


 1362              		.loc 1 380 17 is_stmt 1 view .LVU398
 1363 00a2 8C46     		mov	ip, r1
 1364              	.LVL124:
 1365              	.L100:
 1366              		.loc 1 380 17 is_stmt 0 view .LVU399
 1367              	.LBE18:
 1368              	.LBE17:
 365:Core/Src/main.c ****         if (key_states[i].is_pressed) {
 1369              		.loc 1 365 36 is_stmt 1 discriminator 2 view .LVU400
 1370 00a4 0133     		adds	r3, r3, #1
 1371              	.LVL125:
 1372              	.L97:
 365:Core/Src/main.c ****         if (key_states[i].is_pressed) {
 1373              		.loc 1 365 22 discriminator 1 view .LVU401
 1374 00a6 132B     		cmp	r3, #19
 1375 00a8 64DC     		bgt	.L152
 366:Core/Src/main.c ****             uint8_t id = key_map[i];
 1376              		.loc 1 366 9 view .LVU402
 366:Core/Src/main.c ****             uint8_t id = key_map[i];
 1377              		.loc 1 366 26 is_stmt 0 view .LVU403
 1378 00aa 03EBC301 		add	r1, r3, r3, lsl #3
 1379 00ae 664A     		ldr	r2, .L159+16
 1380 00b0 02EB8102 		add	r2, r2, r1, lsl #2
 1381 00b4 117B     		ldrb	r1, [r2, #12]	@ zero_extendqisi2
 366:Core/Src/main.c ****             uint8_t id = key_map[i];
 1382              		.loc 1 366 12 view .LVU404
 1383 00b6 0029     		cmp	r1, #0
 1384 00b8 F4D0     		beq	.L100
 1385              	.LBB19:
 367:Core/Src/main.c ****             
 1386              		.loc 1 367 13 is_stmt 1 view .LVU405
 367:Core/Src/main.c ****             
 1387              		.loc 1 367 21 is_stmt 0 view .LVU406
 1388 00ba 644A     		ldr	r2, .L159+20
 1389 00bc D25C     		ldrb	r2, [r2, r3]	@ zero_extendqisi2
 1390              	.LVL126:
 369:Core/Src/main.c ****                 int combo_idx = id - BTN_COMBO_1;
 1391              		.loc 1 369 13 is_stmt 1 view .LVU407
 369:Core/Src/main.c ****                 int combo_idx = id - BTN_COMBO_1;
 1392              		.loc 1 369 35 is_stmt 0 view .LVU408
 1393 00be A2F16404 		sub	r4, r2, #100
 1394 00c2 E4B2     		uxtb	r4, r4
 369:Core/Src/main.c ****                 int combo_idx = id - BTN_COMBO_1;
 1395              		.loc 1 369 16 view .LVU409
 1396 00c4 032C     		cmp	r4, #3
 1397 00c6 CAD9     		bls	.L153
 381:Core/Src/main.c ****             }
 382:Core/Src/main.c **** 
 383:Core/Src/main.c ****             switch(id) {
 1398              		.loc 1 383 13 is_stmt 1 view .LVU410
 1399 00c8 092A     		cmp	r2, #9
 1400 00ca 3DD0     		beq	.L108
 1401 00cc 18D8     		bhi	.L109
 1402 00ce 052A     		cmp	r2, #5
 1403 00d0 31D0     		beq	.L110
 1404 00d2 0CD8     		bhi	.L111
 1405 00d4 032A     		cmp	r2, #3
ARM GAS  C:\Users\naoki\AppData\Local\Temp\ccZXKLPf.s 			page 35


 1406 00d6 43D0     		beq	.L146
 1407 00d8 05D8     		bhi	.L112
 1408 00da 012A     		cmp	r2, #1
 1409 00dc 42D0     		beq	.L147
 1410 00de 022A     		cmp	r2, #2
 1411 00e0 E0D1     		bne	.L100
 384:Core/Src/main.c ****                 case BTN_UP:    up=true; break;
 385:Core/Src/main.c ****                 case BTN_DOWN:  down=true; break;
 1412              		.loc 1 385 37 is_stmt 0 view .LVU411
 1413 00e2 0E46     		mov	r6, r1
 1414              	.LVL127:
 1415              		.loc 1 385 37 view .LVU412
 1416 00e4 DEE7     		b	.L100
 1417              	.LVL128:
 1418              	.L112:
 383:Core/Src/main.c ****                 case BTN_UP:    up=true; break;
 1419              		.loc 1 383 13 view .LVU413
 1420 00e6 042A     		cmp	r2, #4
 1421 00e8 DCD1     		bne	.L100
 386:Core/Src/main.c ****                 case BTN_LEFT:  left=true; break;
 387:Core/Src/main.c ****                 case BTN_RIGHT: right=true; break;
 1422              		.loc 1 387 38 view .LVU414
 1423 00ea 8C46     		mov	ip, r1
 1424              	.LVL129:
 1425              		.loc 1 387 38 view .LVU415
 1426 00ec DAE7     		b	.L100
 1427              	.LVL130:
 1428              	.L111:
 383:Core/Src/main.c ****                 case BTN_UP:    up=true; break;
 1429              		.loc 1 383 13 view .LVU416
 1430 00ee 072A     		cmp	r2, #7
 1431 00f0 24D0     		beq	.L113
 1432 00f2 082A     		cmp	r2, #8
 1433 00f4 25D0     		beq	.L114
 1434 00f6 062A     		cmp	r2, #6
 1435 00f8 D4D1     		bne	.L100
 388:Core/Src/main.c ****                 case BTN_START: btns_mask |= XINPUT_START; break;
 389:Core/Src/main.c ****                 case BTN_BACK:  btns_mask |= XINPUT_BACK; break;
 1436              		.loc 1 389 33 is_stmt 1 view .LVU417
 1437              		.loc 1 389 43 is_stmt 0 view .LVU418
 1438 00fa 40F02000 		orr	r0, r0, #32
 1439              	.LVL131:
 1440              		.loc 1 389 59 is_stmt 1 view .LVU419
 1441 00fe D1E7     		b	.L100
 1442              	.L109:
 383:Core/Src/main.c ****                 case BTN_UP:    up=true; break;
 1443              		.loc 1 383 13 is_stmt 0 view .LVU420
 1444 0100 0E2A     		cmp	r2, #14
 1445 0102 2AD0     		beq	.L116
 1446 0104 0ED8     		bhi	.L117
 1447 0106 0C2A     		cmp	r2, #12
 1448 0108 24D0     		beq	.L118
 1449 010a 06D8     		bhi	.L119
 1450 010c 0A2A     		cmp	r2, #10
 1451 010e 1ED0     		beq	.L120
 1452 0110 0B2A     		cmp	r2, #11
 1453 0112 C7D1     		bne	.L100
ARM GAS  C:\Users\naoki\AppData\Local\Temp\ccZXKLPf.s 			page 36


 390:Core/Src/main.c ****                 case BTN_L3:    btns_mask |= XINPUT_THUMB_L; break;
 391:Core/Src/main.c ****                 case BTN_R3:    btns_mask |= XINPUT_THUMB_R; break;
 392:Core/Src/main.c ****                 case BTN_LB:    btns_mask |= XINPUT_LB; break;
 393:Core/Src/main.c ****                 case BTN_RB:    btns_mask |= XINPUT_RB; break;
 394:Core/Src/main.c ****                 case BTN_GUIDE: btns_mask |= XINPUT_GUIDE; break;
 1454              		.loc 1 394 33 is_stmt 1 view .LVU421
 1455              		.loc 1 394 43 is_stmt 0 view .LVU422
 1456 0114 40F48060 		orr	r0, r0, #1024
 1457              	.LVL132:
 1458              		.loc 1 394 60 is_stmt 1 view .LVU423
 1459 0118 C4E7     		b	.L100
 1460              	.L119:
 383:Core/Src/main.c ****                 case BTN_UP:    up=true; break;
 1461              		.loc 1 383 13 is_stmt 0 view .LVU424
 1462 011a 0D2A     		cmp	r2, #13
 1463 011c C2D1     		bne	.L100
 395:Core/Src/main.c ****                 case BTN_A:     btns_mask |= XINPUT_BTN_A; break;
 396:Core/Src/main.c ****                 case BTN_B:     btns_mask |= XINPUT_BTN_B; break;
 1464              		.loc 1 396 33 is_stmt 1 view .LVU425
 1465              		.loc 1 396 43 is_stmt 0 view .LVU426
 1466 011e 40F40050 		orr	r0, r0, #8192
 1467              	.LVL133:
 1468              		.loc 1 396 60 is_stmt 1 view .LVU427
 1469 0122 BFE7     		b	.L100
 1470              	.L117:
 383:Core/Src/main.c ****                 case BTN_UP:    up=true; break;
 1471              		.loc 1 383 13 is_stmt 0 view .LVU428
 1472 0124 102A     		cmp	r2, #16
 1473 0126 1FD0     		beq	.L148
 1474 0128 112A     		cmp	r2, #17
 1475 012a 20D0     		beq	.L149
 1476 012c 0F2A     		cmp	r2, #15
 1477 012e B9D1     		bne	.L100
 397:Core/Src/main.c ****                 case BTN_X:     btns_mask |= XINPUT_BTN_X; break;
 398:Core/Src/main.c ****                 case BTN_Y:     btns_mask |= XINPUT_BTN_Y; break;
 1478              		.loc 1 398 33 is_stmt 1 view .LVU429
 1479              		.loc 1 398 43 is_stmt 0 view .LVU430
 1480 0130 40F40040 		orr	r0, r0, #32768
 1481              	.LVL134:
 1482              		.loc 1 398 60 is_stmt 1 view .LVU431
 1483 0134 B6E7     		b	.L100
 1484              	.L110:
 388:Core/Src/main.c ****                 case BTN_BACK:  btns_mask |= XINPUT_BACK; break;
 1485              		.loc 1 388 33 view .LVU432
 388:Core/Src/main.c ****                 case BTN_BACK:  btns_mask |= XINPUT_BACK; break;
 1486              		.loc 1 388 43 is_stmt 0 view .LVU433
 1487 0136 40F01000 		orr	r0, r0, #16
 1488              	.LVL135:
 388:Core/Src/main.c ****                 case BTN_BACK:  btns_mask |= XINPUT_BACK; break;
 1489              		.loc 1 388 60 is_stmt 1 view .LVU434
 1490 013a B3E7     		b	.L100
 1491              	.L113:
 390:Core/Src/main.c ****                 case BTN_R3:    btns_mask |= XINPUT_THUMB_R; break;
 1492              		.loc 1 390 33 view .LVU435
 390:Core/Src/main.c ****                 case BTN_R3:    btns_mask |= XINPUT_THUMB_R; break;
 1493              		.loc 1 390 43 is_stmt 0 view .LVU436
 1494 013c 40F04000 		orr	r0, r0, #64
ARM GAS  C:\Users\naoki\AppData\Local\Temp\ccZXKLPf.s 			page 37


 1495              	.LVL136:
 390:Core/Src/main.c ****                 case BTN_R3:    btns_mask |= XINPUT_THUMB_R; break;
 1496              		.loc 1 390 62 is_stmt 1 view .LVU437
 1497 0140 B0E7     		b	.L100
 1498              	.L114:
 391:Core/Src/main.c ****                 case BTN_LB:    btns_mask |= XINPUT_LB; break;
 1499              		.loc 1 391 33 view .LVU438
 391:Core/Src/main.c ****                 case BTN_LB:    btns_mask |= XINPUT_LB; break;
 1500              		.loc 1 391 43 is_stmt 0 view .LVU439
 1501 0142 40F08000 		orr	r0, r0, #128
 1502              	.LVL137:
 391:Core/Src/main.c ****                 case BTN_LB:    btns_mask |= XINPUT_LB; break;
 1503              		.loc 1 391 62 is_stmt 1 view .LVU440
 1504 0146 ADE7     		b	.L100
 1505              	.L108:
 392:Core/Src/main.c ****                 case BTN_RB:    btns_mask |= XINPUT_RB; break;
 1506              		.loc 1 392 33 view .LVU441
 392:Core/Src/main.c ****                 case BTN_RB:    btns_mask |= XINPUT_RB; break;
 1507              		.loc 1 392 43 is_stmt 0 view .LVU442
 1508 0148 40F48070 		orr	r0, r0, #256
 1509              	.LVL138:
 392:Core/Src/main.c ****                 case BTN_RB:    btns_mask |= XINPUT_RB; break;
 1510              		.loc 1 392 57 is_stmt 1 view .LVU443
 1511 014c AAE7     		b	.L100
 1512              	.L120:
 393:Core/Src/main.c ****                 case BTN_GUIDE: btns_mask |= XINPUT_GUIDE; break;
 1513              		.loc 1 393 33 view .LVU444
 393:Core/Src/main.c ****                 case BTN_GUIDE: btns_mask |= XINPUT_GUIDE; break;
 1514              		.loc 1 393 43 is_stmt 0 view .LVU445
 1515 014e 40F40070 		orr	r0, r0, #512
 1516              	.LVL139:
 393:Core/Src/main.c ****                 case BTN_GUIDE: btns_mask |= XINPUT_GUIDE; break;
 1517              		.loc 1 393 57 is_stmt 1 view .LVU446
 1518 0152 A7E7     		b	.L100
 1519              	.L118:
 395:Core/Src/main.c ****                 case BTN_B:     btns_mask |= XINPUT_BTN_B; break;
 1520              		.loc 1 395 33 view .LVU447
 395:Core/Src/main.c ****                 case BTN_B:     btns_mask |= XINPUT_BTN_B; break;
 1521              		.loc 1 395 43 is_stmt 0 view .LVU448
 1522 0154 40F48050 		orr	r0, r0, #4096
 1523              	.LVL140:
 395:Core/Src/main.c ****                 case BTN_B:     btns_mask |= XINPUT_BTN_B; break;
 1524              		.loc 1 395 60 is_stmt 1 view .LVU449
 1525 0158 A4E7     		b	.L100
 1526              	.L116:
 397:Core/Src/main.c ****                 case BTN_Y:     btns_mask |= XINPUT_BTN_Y; break;
 1527              		.loc 1 397 33 view .LVU450
 397:Core/Src/main.c ****                 case BTN_Y:     btns_mask |= XINPUT_BTN_Y; break;
 1528              		.loc 1 397 43 is_stmt 0 view .LVU451
 1529 015a 40F48040 		orr	r0, r0, #16384
 1530              	.LVL141:
 397:Core/Src/main.c ****                 case BTN_Y:     btns_mask |= XINPUT_BTN_Y; break;
 1531              		.loc 1 397 60 is_stmt 1 view .LVU452
 1532 015e A1E7     		b	.L100
 1533              	.L146:
 386:Core/Src/main.c ****                 case BTN_RIGHT: right=true; break;
 1534              		.loc 1 386 37 is_stmt 0 view .LVU453
ARM GAS  C:\Users\naoki\AppData\Local\Temp\ccZXKLPf.s 			page 38


 1535 0160 8846     		mov	r8, r1
 1536              	.LVL142:
 386:Core/Src/main.c ****                 case BTN_RIGHT: right=true; break;
 1537              		.loc 1 386 37 view .LVU454
 1538 0162 9FE7     		b	.L100
 1539              	.LVL143:
 1540              	.L147:
 384:Core/Src/main.c ****                 case BTN_DOWN:  down=true; break;
 1541              		.loc 1 384 35 view .LVU455
 1542 0164 0F46     		mov	r7, r1
 1543              	.LVL144:
 384:Core/Src/main.c ****                 case BTN_DOWN:  down=true; break;
 1544              		.loc 1 384 35 view .LVU456
 1545 0166 9DE7     		b	.L100
 1546              	.LVL145:
 1547              	.L148:
 399:Core/Src/main.c ****                 case BTN_LT:    trigger_l = 255; break;
 1548              		.loc 1 399 43 view .LVU457
 1549 0168 FF22     		movs	r2, #255
 1550              	.LVL146:
 1551              		.loc 1 399 43 view .LVU458
 1552 016a 9146     		mov	r9, r2
 1553              	.LVL147:
 1554              		.loc 1 399 43 view .LVU459
 1555 016c 9AE7     		b	.L100
 1556              	.LVL148:
 1557              	.L149:
 400:Core/Src/main.c ****                 case BTN_RT:    trigger_r = 255; break;
 1558              		.loc 1 400 43 view .LVU460
 1559 016e 4FF0FF0E 		mov	lr, #255
 1560              	.LVL149:
 1561              		.loc 1 400 43 view .LVU461
 1562 0172 97E7     		b	.L100
 1563              	.LVL150:
 1564              	.L152:
 1565              		.loc 1 400 43 view .LVU462
 1566              	.LBE19:
 1567              	.LBE20:
 401:Core/Src/main.c ****                 default: break;
 402:Core/Src/main.c ****             }
 403:Core/Src/main.c ****         }
 404:Core/Src/main.c ****     }
 405:Core/Src/main.c **** 
 406:Core/Src/main.c ****     if (g_socd_mode == 2) {
 1568              		.loc 1 406 5 is_stmt 1 view .LVU463
 1569              		.loc 1 406 21 is_stmt 0 view .LVU464
 1570 0174 364B     		ldr	r3, .L159+24
 1571              	.LVL151:
 1572              		.loc 1 406 21 view .LVU465
 1573 0176 1B78     		ldrb	r3, [r3]	@ zero_extendqisi2
 1574              		.loc 1 406 8 view .LVU466
 1575 0178 022B     		cmp	r3, #2
 1576 017a 13D0     		beq	.L154
 1577              	.L125:
 407:Core/Src/main.c ****         if (left && !last_left_state) last_lr_winner = -1;
 408:Core/Src/main.c ****         if (right && !last_right_state) last_lr_winner = 1;
 409:Core/Src/main.c ****         if (up && !last_up_state) last_ud_winner = 1;
ARM GAS  C:\Users\naoki\AppData\Local\Temp\ccZXKLPf.s 			page 39


 410:Core/Src/main.c ****         if (down && !last_down_state) last_ud_winner = -1;
 411:Core/Src/main.c ****         last_left_state = left; last_right_state = right;
 412:Core/Src/main.c ****         last_up_state = up; last_down_state = down;
 413:Core/Src/main.c ****     }
 414:Core/Src/main.c **** 
 415:Core/Src/main.c ****     if (left && right) {
 1578              		.loc 1 415 5 is_stmt 1 view .LVU467
 1579              		.loc 1 415 8 is_stmt 0 view .LVU468
 1580 017c 4246     		mov	r2, r8
 1581 017e 002A     		cmp	r2, #0
 1582 0180 41D0     		beq	.L130
 1583              		.loc 1 415 14 discriminator 1 view .LVU469
 1584 0182 BCF1000F 		cmp	ip, #0
 1585 0186 3CD0     		beq	.L131
 416:Core/Src/main.c ****         if (g_socd_mode == 0) { }
 1586              		.loc 1 416 9 is_stmt 1 view .LVU470
 1587              		.loc 1 416 12 is_stmt 0 view .LVU471
 1588 0188 002B     		cmp	r3, #0
 1589 018a 41D0     		beq	.L132
 417:Core/Src/main.c ****         else if (g_socd_mode == 1) { }
 1590              		.loc 1 417 14 is_stmt 1 view .LVU472
 1591              		.loc 1 417 17 is_stmt 0 view .LVU473
 1592 018c 012B     		cmp	r3, #1
 1593 018e 3FD0     		beq	.L132
 418:Core/Src/main.c ****         else if (g_socd_mode == 2) { 
 1594              		.loc 1 418 14 is_stmt 1 view .LVU474
 1595              		.loc 1 418 17 is_stmt 0 view .LVU475
 1596 0190 022B     		cmp	r3, #2
 1597 0192 3DD1     		bne	.L132
 419:Core/Src/main.c ****             if (last_lr_winner == -1) btns_mask |= XINPUT_DPAD_LEFT;
 1598              		.loc 1 419 13 is_stmt 1 view .LVU476
 1599              		.loc 1 419 32 is_stmt 0 view .LVU477
 1600 0194 2F4A     		ldr	r2, .L159+28
 1601 0196 1268     		ldr	r2, [r2]
 1602              		.loc 1 419 16 view .LVU478
 1603 0198 B2F1FF3F 		cmp	r2, #-1
 1604 019c 2ED0     		beq	.L155
 420:Core/Src/main.c ****             else btns_mask |= XINPUT_DPAD_RIGHT;
 1605              		.loc 1 420 18 is_stmt 1 view .LVU479
 1606              		.loc 1 420 28 is_stmt 0 view .LVU480
 1607 019e 40F00800 		orr	r0, r0, #8
 1608              	.LVL152:
 1609              		.loc 1 420 28 view .LVU481
 1610 01a2 35E0     		b	.L132
 1611              	.L154:
 407:Core/Src/main.c ****         if (right && !last_right_state) last_lr_winner = 1;
 1612              		.loc 1 407 9 is_stmt 1 view .LVU482
 407:Core/Src/main.c ****         if (right && !last_right_state) last_lr_winner = 1;
 1613              		.loc 1 407 12 is_stmt 0 view .LVU483
 1614 01a4 4246     		mov	r2, r8
 1615 01a6 32B1     		cbz	r2, .L126
 407:Core/Src/main.c ****         if (right && !last_right_state) last_lr_winner = 1;
 1616              		.loc 1 407 21 discriminator 1 view .LVU484
 1617 01a8 2B4A     		ldr	r2, .L159+32
 1618 01aa 1278     		ldrb	r2, [r2]	@ zero_extendqisi2
 407:Core/Src/main.c ****         if (right && !last_right_state) last_lr_winner = 1;
 1619              		.loc 1 407 18 discriminator 1 view .LVU485
ARM GAS  C:\Users\naoki\AppData\Local\Temp\ccZXKLPf.s 			page 40


 1620 01ac 1AB9     		cbnz	r2, .L126
 407:Core/Src/main.c ****         if (right && !last_right_state) last_lr_winner = 1;
 1621              		.loc 1 407 39 is_stmt 1 discriminator 2 view .LVU486
 407:Core/Src/main.c ****         if (right && !last_right_state) last_lr_winner = 1;
 1622              		.loc 1 407 54 is_stmt 0 discriminator 2 view .LVU487
 1623 01ae 294A     		ldr	r2, .L159+28
 1624 01b0 4FF0FF31 		mov	r1, #-1
 1625 01b4 1160     		str	r1, [r2]
 1626              	.L126:
 408:Core/Src/main.c ****         if (up && !last_up_state) last_ud_winner = 1;
 1627              		.loc 1 408 9 is_stmt 1 view .LVU488
 408:Core/Src/main.c ****         if (up && !last_up_state) last_ud_winner = 1;
 1628              		.loc 1 408 12 is_stmt 0 view .LVU489
 1629 01b6 BCF1000F 		cmp	ip, #0
 1630 01ba 05D0     		beq	.L127
 408:Core/Src/main.c ****         if (up && !last_up_state) last_ud_winner = 1;
 1631              		.loc 1 408 22 discriminator 1 view .LVU490
 1632 01bc 274A     		ldr	r2, .L159+36
 1633 01be 1278     		ldrb	r2, [r2]	@ zero_extendqisi2
 408:Core/Src/main.c ****         if (up && !last_up_state) last_ud_winner = 1;
 1634              		.loc 1 408 19 discriminator 1 view .LVU491
 1635 01c0 12B9     		cbnz	r2, .L127
 408:Core/Src/main.c ****         if (up && !last_up_state) last_ud_winner = 1;
 1636              		.loc 1 408 41 is_stmt 1 discriminator 2 view .LVU492
 408:Core/Src/main.c ****         if (up && !last_up_state) last_ud_winner = 1;
 1637              		.loc 1 408 56 is_stmt 0 discriminator 2 view .LVU493
 1638 01c2 244A     		ldr	r2, .L159+28
 1639 01c4 0121     		movs	r1, #1
 1640 01c6 1160     		str	r1, [r2]
 1641              	.L127:
 409:Core/Src/main.c ****         if (down && !last_down_state) last_ud_winner = -1;
 1642              		.loc 1 409 9 is_stmt 1 view .LVU494
 409:Core/Src/main.c ****         if (down && !last_down_state) last_ud_winner = -1;
 1643              		.loc 1 409 12 is_stmt 0 view .LVU495
 1644 01c8 2FB1     		cbz	r7, .L128
 409:Core/Src/main.c ****         if (down && !last_down_state) last_ud_winner = -1;
 1645              		.loc 1 409 19 discriminator 1 view .LVU496
 1646 01ca 254A     		ldr	r2, .L159+40
 1647 01cc 1278     		ldrb	r2, [r2]	@ zero_extendqisi2
 409:Core/Src/main.c ****         if (down && !last_down_state) last_ud_winner = -1;
 1648              		.loc 1 409 16 discriminator 1 view .LVU497
 1649 01ce 12B9     		cbnz	r2, .L128
 409:Core/Src/main.c ****         if (down && !last_down_state) last_ud_winner = -1;
 1650              		.loc 1 409 35 is_stmt 1 discriminator 2 view .LVU498
 409:Core/Src/main.c ****         if (down && !last_down_state) last_ud_winner = -1;
 1651              		.loc 1 409 50 is_stmt 0 discriminator 2 view .LVU499
 1652 01d0 244A     		ldr	r2, .L159+44
 1653 01d2 0121     		movs	r1, #1
 1654 01d4 1160     		str	r1, [r2]
 1655              	.L128:
 410:Core/Src/main.c ****         last_left_state = left; last_right_state = right;
 1656              		.loc 1 410 9 is_stmt 1 view .LVU500
 410:Core/Src/main.c ****         last_left_state = left; last_right_state = right;
 1657              		.loc 1 410 12 is_stmt 0 view .LVU501
 1658 01d6 36B1     		cbz	r6, .L129
 410:Core/Src/main.c ****         last_left_state = left; last_right_state = right;
 1659              		.loc 1 410 21 discriminator 1 view .LVU502
ARM GAS  C:\Users\naoki\AppData\Local\Temp\ccZXKLPf.s 			page 41


 1660 01d8 234A     		ldr	r2, .L159+48
 1661 01da 1278     		ldrb	r2, [r2]	@ zero_extendqisi2
 410:Core/Src/main.c ****         last_left_state = left; last_right_state = right;
 1662              		.loc 1 410 18 discriminator 1 view .LVU503
 1663 01dc 1AB9     		cbnz	r2, .L129
 410:Core/Src/main.c ****         last_left_state = left; last_right_state = right;
 1664              		.loc 1 410 39 is_stmt 1 discriminator 2 view .LVU504
 410:Core/Src/main.c ****         last_left_state = left; last_right_state = right;
 1665              		.loc 1 410 54 is_stmt 0 discriminator 2 view .LVU505
 1666 01de 214A     		ldr	r2, .L159+44
 1667 01e0 4FF0FF31 		mov	r1, #-1
 1668 01e4 1160     		str	r1, [r2]
 1669              	.L129:
 411:Core/Src/main.c ****         last_up_state = up; last_down_state = down;
 1670              		.loc 1 411 9 is_stmt 1 view .LVU506
 411:Core/Src/main.c ****         last_up_state = up; last_down_state = down;
 1671              		.loc 1 411 25 is_stmt 0 view .LVU507
 1672 01e6 1C4A     		ldr	r2, .L159+32
 1673 01e8 82F80080 		strb	r8, [r2]
 411:Core/Src/main.c ****         last_up_state = up; last_down_state = down;
 1674              		.loc 1 411 33 is_stmt 1 view .LVU508
 411:Core/Src/main.c ****         last_up_state = up; last_down_state = down;
 1675              		.loc 1 411 50 is_stmt 0 view .LVU509
 1676 01ec 1B4A     		ldr	r2, .L159+36
 1677 01ee 82F800C0 		strb	ip, [r2]
 412:Core/Src/main.c ****     }
 1678              		.loc 1 412 9 is_stmt 1 view .LVU510
 412:Core/Src/main.c ****     }
 1679              		.loc 1 412 23 is_stmt 0 view .LVU511
 1680 01f2 1B4A     		ldr	r2, .L159+40
 1681 01f4 1770     		strb	r7, [r2]
 412:Core/Src/main.c ****     }
 1682              		.loc 1 412 29 is_stmt 1 view .LVU512
 412:Core/Src/main.c ****     }
 1683              		.loc 1 412 45 is_stmt 0 view .LVU513
 1684 01f6 1C4A     		ldr	r2, .L159+48
 1685 01f8 1670     		strb	r6, [r2]
 1686 01fa BFE7     		b	.L125
 1687              	.L155:
 419:Core/Src/main.c ****             else btns_mask |= XINPUT_DPAD_RIGHT;
 1688              		.loc 1 419 39 is_stmt 1 discriminator 1 view .LVU514
 419:Core/Src/main.c ****             else btns_mask |= XINPUT_DPAD_RIGHT;
 1689              		.loc 1 419 49 is_stmt 0 discriminator 1 view .LVU515
 1690 01fc 40F00400 		orr	r0, r0, #4
 1691              	.LVL153:
 419:Core/Src/main.c ****             else btns_mask |= XINPUT_DPAD_RIGHT;
 1692              		.loc 1 419 49 discriminator 1 view .LVU516
 1693 0200 06E0     		b	.L132
 1694              	.L131:
 421:Core/Src/main.c ****         }
 422:Core/Src/main.c ****     } else {
 423:Core/Src/main.c ****         if (left) btns_mask |= XINPUT_DPAD_LEFT;
 1695              		.loc 1 423 9 is_stmt 1 view .LVU517
 1696              		.loc 1 423 19 discriminator 1 view .LVU518
 1697              		.loc 1 423 29 is_stmt 0 discriminator 1 view .LVU519
 1698 0202 40F00400 		orr	r0, r0, #4
 1699              	.LVL154:
ARM GAS  C:\Users\naoki\AppData\Local\Temp\ccZXKLPf.s 			page 42


 1700              	.L130:
 424:Core/Src/main.c ****         if (right) btns_mask |= XINPUT_DPAD_RIGHT;
 1701              		.loc 1 424 9 is_stmt 1 view .LVU520
 1702              		.loc 1 424 12 is_stmt 0 view .LVU521
 1703 0206 BCF1000F 		cmp	ip, #0
 1704 020a 01D0     		beq	.L132
 1705              		.loc 1 424 20 is_stmt 1 discriminator 1 view .LVU522
 1706              		.loc 1 424 30 is_stmt 0 discriminator 1 view .LVU523
 1707 020c 40F00800 		orr	r0, r0, #8
 1708              	.LVL155:
 1709              	.L132:
 425:Core/Src/main.c ****     }
 426:Core/Src/main.c ****     
 427:Core/Src/main.c ****     if (up && down) { 
 1710              		.loc 1 427 5 is_stmt 1 view .LVU524
 1711              		.loc 1 427 8 is_stmt 0 view .LVU525
 1712 0210 77B3     		cbz	r7, .L134
 1713              		.loc 1 427 12 discriminator 1 view .LVU526
 1714 0212 5EB3     		cbz	r6, .L135
 428:Core/Src/main.c ****         if (g_socd_mode == 0) { }
 1715              		.loc 1 428 9 is_stmt 1 view .LVU527
 1716              		.loc 1 428 12 is_stmt 0 view .LVU528
 1717 0214 7BB3     		cbz	r3, .L136
 429:Core/Src/main.c ****         else if (g_socd_mode == 1) { btns_mask |= XINPUT_DPAD_UP; } 
 1718              		.loc 1 429 14 is_stmt 1 view .LVU529
 1719              		.loc 1 429 17 is_stmt 0 view .LVU530
 1720 0216 012B     		cmp	r3, #1
 1721 0218 08D0     		beq	.L156
 430:Core/Src/main.c ****         else if (g_socd_mode == 2) { 
 1722              		.loc 1 430 14 is_stmt 1 view .LVU531
 1723              		.loc 1 430 17 is_stmt 0 view .LVU532
 1724 021a 022B     		cmp	r3, #2
 1725 021c 2BD1     		bne	.L136
 431:Core/Src/main.c ****             if (last_ud_winner == 1) btns_mask |= XINPUT_DPAD_UP;
 1726              		.loc 1 431 13 is_stmt 1 view .LVU533
 1727              		.loc 1 431 32 is_stmt 0 view .LVU534
 1728 021e 114B     		ldr	r3, .L159+44
 1729 0220 1B68     		ldr	r3, [r3]
 1730              		.loc 1 431 16 view .LVU535
 1731 0222 012B     		cmp	r3, #1
 1732 0224 05D0     		beq	.L157
 432:Core/Src/main.c ****             else btns_mask |= XINPUT_DPAD_DOWN;
 1733              		.loc 1 432 18 is_stmt 1 view .LVU536
 1734              		.loc 1 432 28 is_stmt 0 view .LVU537
 1735 0226 40F00200 		orr	r0, r0, #2
 1736              	.LVL156:
 1737              		.loc 1 432 28 view .LVU538
 1738 022a 24E0     		b	.L136
 1739              	.L156:
 429:Core/Src/main.c ****         else if (g_socd_mode == 2) { 
 1740              		.loc 1 429 38 is_stmt 1 discriminator 1 view .LVU539
 429:Core/Src/main.c ****         else if (g_socd_mode == 2) { 
 1741              		.loc 1 429 48 is_stmt 0 discriminator 1 view .LVU540
 1742 022c 40F00100 		orr	r0, r0, #1
 1743              	.LVL157:
 429:Core/Src/main.c ****         else if (g_socd_mode == 2) { 
 1744              		.loc 1 429 48 discriminator 1 view .LVU541
ARM GAS  C:\Users\naoki\AppData\Local\Temp\ccZXKLPf.s 			page 43


 1745 0230 21E0     		b	.L136
 1746              	.L157:
 431:Core/Src/main.c ****             if (last_ud_winner == 1) btns_mask |= XINPUT_DPAD_UP;
 1747              		.loc 1 431 38 is_stmt 1 discriminator 1 view .LVU542
 431:Core/Src/main.c ****             if (last_ud_winner == 1) btns_mask |= XINPUT_DPAD_UP;
 1748              		.loc 1 431 48 is_stmt 0 discriminator 1 view .LVU543
 1749 0232 40F00100 		orr	r0, r0, #1
 1750              	.LVL158:
 431:Core/Src/main.c ****             if (last_ud_winner == 1) btns_mask |= XINPUT_DPAD_UP;
 1751              		.loc 1 431 48 discriminator 1 view .LVU544
 1752 0236 1EE0     		b	.L136
 1753              	.L160:
 1754              		.align	2
 1755              	.L159:
 1756 0238 00000000 		.word	g_input_enabled
 1757 023c 00000000 		.word	prev_report.3
 1758 0240 00000000 		.word	hUsbDeviceFS
 1759 0244 00000000 		.word	g_combos
 1760 0248 00000000 		.word	key_states
 1761 024c 00000000 		.word	key_map
 1762 0250 00000000 		.word	g_socd_mode
 1763 0254 00000000 		.word	last_lr_winner
 1764 0258 00000000 		.word	last_left_state
 1765 025c 00000000 		.word	last_right_state
 1766 0260 00000000 		.word	last_up_state
 1767 0264 00000000 		.word	last_ud_winner
 1768 0268 00000000 		.word	last_down_state
 1769              	.L135:
 433:Core/Src/main.c ****         }
 434:Core/Src/main.c ****     } else {
 435:Core/Src/main.c ****         if (up) btns_mask |= XINPUT_DPAD_UP;
 1770              		.loc 1 435 9 is_stmt 1 view .LVU545
 1771              		.loc 1 435 17 discriminator 1 view .LVU546
 1772              		.loc 1 435 27 is_stmt 0 discriminator 1 view .LVU547
 1773 026c 40F00100 		orr	r0, r0, #1
 1774              	.LVL159:
 1775              	.L134:
 436:Core/Src/main.c ****         if (down) btns_mask |= XINPUT_DPAD_DOWN;
 1776              		.loc 1 436 9 is_stmt 1 view .LVU548
 1777              		.loc 1 436 12 is_stmt 0 view .LVU549
 1778 0270 0EB1     		cbz	r6, .L136
 1779              		.loc 1 436 19 is_stmt 1 discriminator 1 view .LVU550
 1780              		.loc 1 436 29 is_stmt 0 discriminator 1 view .LVU551
 1781 0272 40F00200 		orr	r0, r0, #2
 1782              	.LVL160:
 1783              	.L136:
 437:Core/Src/main.c ****     }
 438:Core/Src/main.c **** 
 439:Core/Src/main.c ****     report.buttons = btns_mask;
 1784              		.loc 1 439 5 is_stmt 1 view .LVU552
 1785              		.loc 1 439 20 is_stmt 0 view .LVU553
 1786 0276 ADF80600 		strh	r0, [sp, #6]	@ movhi
 440:Core/Src/main.c ****     report.lt = trigger_l;
 1787              		.loc 1 440 5 is_stmt 1 view .LVU554
 1788              		.loc 1 440 15 is_stmt 0 view .LVU555
 1789 027a 8DF80890 		strb	r9, [sp, #8]
 441:Core/Src/main.c ****     report.rt = trigger_r;
ARM GAS  C:\Users\naoki\AppData\Local\Temp\ccZXKLPf.s 			page 44


 1790              		.loc 1 441 5 is_stmt 1 view .LVU556
 1791              		.loc 1 441 15 is_stmt 0 view .LVU557
 1792 027e 8DF809E0 		strb	lr, [sp, #9]
 442:Core/Src/main.c **** 
 443:Core/Src/main.c ****     if (memcmp(&report, &prev_report, sizeof(XInputReport_t)) != 0) {
 1793              		.loc 1 443 5 is_stmt 1 view .LVU558
 1794              		.loc 1 443 9 is_stmt 0 view .LVU559
 1795 0282 1422     		movs	r2, #20
 1796 0284 0A49     		ldr	r1, .L161
 1797 0286 01A8     		add	r0, sp, #4
 1798              	.LVL161:
 1799              		.loc 1 443 9 view .LVU560
 1800 0288 FFF7FEFF 		bl	memcmp
 1801              	.LVL162:
 1802              		.loc 1 443 8 discriminator 1 view .LVU561
 1803 028c 10B9     		cbnz	r0, .L158
 1804              	.LVL163:
 1805              	.L96:
 444:Core/Src/main.c ****         if (USBD_HID_SendReport(&hUsbDeviceFS, (uint8_t*)&report, sizeof(report)) == USBD_OK) {
 445:Core/Src/main.c ****             prev_report = report;
 446:Core/Src/main.c ****         }
 447:Core/Src/main.c ****     }
 448:Core/Src/main.c **** }
 1806              		.loc 1 448 1 view .LVU562
 1807 028e 07B0     		add	sp, sp, #28
 1808              	.LCFI12:
 1809              		.cfi_remember_state
 1810              		.cfi_def_cfa_offset 28
 1811              		@ sp needed
 1812 0290 BDE8F083 		pop	{r4, r5, r6, r7, r8, r9, pc}
 1813              	.LVL164:
 1814              	.L158:
 1815              	.LCFI13:
 1816              		.cfi_restore_state
 444:Core/Src/main.c ****         if (USBD_HID_SendReport(&hUsbDeviceFS, (uint8_t*)&report, sizeof(report)) == USBD_OK) {
 1817              		.loc 1 444 9 is_stmt 1 view .LVU563
 444:Core/Src/main.c ****         if (USBD_HID_SendReport(&hUsbDeviceFS, (uint8_t*)&report, sizeof(report)) == USBD_OK) {
 1818              		.loc 1 444 13 is_stmt 0 view .LVU564
 1819 0294 1422     		movs	r2, #20
 1820 0296 01A9     		add	r1, sp, #4
 1821 0298 0648     		ldr	r0, .L161+4
 1822 029a FFF7FEFF 		bl	USBD_HID_SendReport
 1823              	.LVL165:
 444:Core/Src/main.c ****         if (USBD_HID_SendReport(&hUsbDeviceFS, (uint8_t*)&report, sizeof(report)) == USBD_OK) {
 1824              		.loc 1 444 12 discriminator 1 view .LVU565
 1825 029e 0028     		cmp	r0, #0
 1826 02a0 F5D1     		bne	.L96
 445:Core/Src/main.c ****         }
 1827              		.loc 1 445 13 is_stmt 1 view .LVU566
 445:Core/Src/main.c ****         }
 1828              		.loc 1 445 25 is_stmt 0 view .LVU567
 1829 02a2 034C     		ldr	r4, .L161
 1830 02a4 01AD     		add	r5, sp, #4
 1831 02a6 0FCD     		ldmia	r5!, {r0, r1, r2, r3}
 1832 02a8 0FC4     		stmia	r4!, {r0, r1, r2, r3}
 1833 02aa 2B68     		ldr	r3, [r5]
 1834 02ac 2360     		str	r3, [r4]
ARM GAS  C:\Users\naoki\AppData\Local\Temp\ccZXKLPf.s 			page 45


 1835 02ae EEE7     		b	.L96
 1836              	.L162:
 1837              		.align	2
 1838              	.L161:
 1839 02b0 00000000 		.word	prev_report.3
 1840 02b4 00000000 		.word	hUsbDeviceFS
 1841              		.cfi_endproc
 1842              	.LFE141:
 1844              		.section	.text.WebHID_DataReceived_Callback,"ax",%progbits
 1845              		.align	1
 1846              		.global	WebHID_DataReceived_Callback
 1847              		.syntax unified
 1848              		.thumb
 1849              		.thumb_func
 1851              	WebHID_DataReceived_Callback:
 1852              	.LVL166:
 1853              	.LFB142:
 449:Core/Src/main.c **** 
 450:Core/Src/main.c **** // --- WebHID コールバック ---
 451:Core/Src/main.c **** void WebHID_DataReceived_Callback(uint8_t* data, uint32_t len) {
 1854              		.loc 1 451 64 is_stmt 1 view -0
 1855              		.cfi_startproc
 1856              		@ args = 0, pretend = 0, frame = 0
 1857              		@ frame_needed = 0, uses_anonymous_args = 0
 1858              		.loc 1 451 64 is_stmt 0 view .LVU569
 1859 0000 08B5     		push	{r3, lr}
 1860              	.LCFI14:
 1861              		.cfi_def_cfa_offset 8
 1862              		.cfi_offset 3, -8
 1863              		.cfi_offset 14, -4
 452:Core/Src/main.c ****     uint8_t cmd = data[0]; 
 1864              		.loc 1 452 5 is_stmt 1 view .LVU570
 1865              		.loc 1 452 13 is_stmt 0 view .LVU571
 1866 0002 0378     		ldrb	r3, [r0]	@ zero_extendqisi2
 1867              	.LVL167:
 453:Core/Src/main.c ****     
 454:Core/Src/main.c ****     if (cmd == CMD_READ_SENSORS) {
 1868              		.loc 1 454 5 is_stmt 1 view .LVU572
 1869              		.loc 1 454 8 is_stmt 0 view .LVU573
 1870 0004 302B     		cmp	r3, #48
 1871 0006 2CD0     		beq	.L201
 455:Core/Src/main.c ****         static uint8_t tx[64];
 456:Core/Src/main.c ****         memset(tx, 0, 64);
 457:Core/Src/main.c ****         tx[0] = CMD_READ_SENSORS;
 458:Core/Src/main.c ****         for(int i=0; i<KEY_COUNT; i++) {
 459:Core/Src/main.c ****             float val = key_states[i].current_mm / TRAVEL_DISTANCE_MM;
 460:Core/Src/main.c ****             if (val > 1.0f) val = 1.0f; else if (val < 0.0f) val = 0.0f;
 461:Core/Src/main.c ****             tx[i+1] = (uint8_t)(val * 255.0f);
 462:Core/Src/main.c ****         }
 463:Core/Src/main.c ****         for(int i=0; i<KEY_COUNT; i++) tx[i+21] = key_states[i].is_pressed ? 1 : 0;
 464:Core/Src/main.c ****         for(int i=0; i<KEY_COUNT; i++) {
 465:Core/Src/main.c ****             float val = key_states[i].anchor_mm / TRAVEL_DISTANCE_MM;
 466:Core/Src/main.c ****             if (val > 1.0f) val = 1.0f; else if (val < 0.0f) val = 0.0f;
 467:Core/Src/main.c ****             tx[i+41] = (uint8_t)(val * 255.0f);
 468:Core/Src/main.c ****         }
 469:Core/Src/main.c ****         USBD_WebHID_SendReport(&hUsbDeviceFS, tx, 64);
 470:Core/Src/main.c ****     }
ARM GAS  C:\Users\naoki\AppData\Local\Temp\ccZXKLPf.s 			page 46


 471:Core/Src/main.c ****     else if (cmd == CMD_GET_CONFIG) { 
 1872              		.loc 1 471 10 is_stmt 1 view .LVU574
 1873              		.loc 1 471 13 is_stmt 0 view .LVU575
 1874 0008 102B     		cmp	r3, #16
 1875 000a 00F0A180 		beq	.L202
 472:Core/Src/main.c ****         static uint8_t tx[64];
 473:Core/Src/main.c ****         memset(tx, 0, 64);
 474:Core/Src/main.c ****         tx[0] = CMD_GET_CONFIG;
 475:Core/Src/main.c ****         tx[1] = g_socd_mode;
 476:Core/Src/main.c ****         for(int i=0; i<KEY_COUNT; i++) tx[i+2] = (uint8_t)(key_states[i].actuation_point * 10.0f);
 477:Core/Src/main.c ****         for(int i=0; i<KEY_COUNT; i++) tx[i+22] = (uint8_t)(key_states[i].rt_press * 10.0f);
 478:Core/Src/main.c ****         for(int i=0; i<KEY_COUNT; i++) tx[i+42] = key_map[i];
 479:Core/Src/main.c ****         USBD_WebHID_SendReport(&hUsbDeviceFS, tx, 64);
 480:Core/Src/main.c ****     }
 481:Core/Src/main.c ****     else if (cmd == CMD_GET_COMBOS) {
 1876              		.loc 1 481 10 is_stmt 1 view .LVU576
 1877              		.loc 1 481 13 is_stmt 0 view .LVU577
 1878 000e 112B     		cmp	r3, #17
 1879 0010 00F0E980 		beq	.L203
 482:Core/Src/main.c ****         static uint8_t tx[64];
 483:Core/Src/main.c ****         memset(tx, 0, 64);
 484:Core/Src/main.c ****         tx[0] = CMD_GET_COMBOS;
 485:Core/Src/main.c ****         for(int i=0; i<COMBO_COUNT; i++) {
 486:Core/Src/main.c ****             int offset = 1 + (i * 4);
 487:Core/Src/main.c ****             tx[offset] = g_combos[i].mask & 0xFF;
 488:Core/Src/main.c ****             tx[offset+1] = (g_combos[i].mask >> 8) & 0xFF;
 489:Core/Src/main.c ****             tx[offset+2] = g_combos[i].lt;
 490:Core/Src/main.c ****             tx[offset+3] = g_combos[i].rt;
 491:Core/Src/main.c ****         }
 492:Core/Src/main.c ****         USBD_WebHID_SendReport(&hUsbDeviceFS, tx, 64);
 493:Core/Src/main.c ****     }
 494:Core/Src/main.c ****     else if (cmd == CMD_SET_CONFIG) {
 1880              		.loc 1 494 10 is_stmt 1 view .LVU578
 1881              		.loc 1 494 13 is_stmt 0 view .LVU579
 1882 0014 202B     		cmp	r3, #32
 1883 0016 00F01281 		beq	.L204
 495:Core/Src/main.c ****         uint8_t id = data[1];
 496:Core/Src/main.c ****         if (id < KEY_COUNT) {
 497:Core/Src/main.c ****             float ap = (float)data[2] / 10.0f;
 498:Core/Src/main.c ****             if (ap < 0.1f) ap = 0.1f; 
 499:Core/Src/main.c ****             if (ap > 3.0f) ap = 3.0f;
 500:Core/Src/main.c ****             key_states[id].actuation_point = ap;
 501:Core/Src/main.c **** 
 502:Core/Src/main.c ****             float rt = (float)data[3] / 10.0f;
 503:Core/Src/main.c ****             if (rt < 0.1f) rt = 0.1f; 
 504:Core/Src/main.c ****             if (rt > 3.0f) rt = 3.0f;
 505:Core/Src/main.c ****             key_states[id].rt_press = rt; key_states[id].rt_release = rt;
 506:Core/Src/main.c ****             
 507:Core/Src/main.c ****             float top = (float)data[4] / 100.0f;
 508:Core/Src/main.c ****             float btm = (float)data[5] / 100.0f;
 509:Core/Src/main.c ****             key_states[id].top_deadzone = top;
 510:Core/Src/main.c ****             key_states[id].bottom_deadzone = btm;
 511:Core/Src/main.c ****         }
 512:Core/Src/main.c ****     }
 513:Core/Src/main.c ****     else if (cmd == CMD_SET_SOCD) { g_socd_mode = data[1]; }
 1884              		.loc 1 513 10 is_stmt 1 view .LVU580
 1885              		.loc 1 513 13 is_stmt 0 view .LVU581
ARM GAS  C:\Users\naoki\AppData\Local\Temp\ccZXKLPf.s 			page 47


 1886 001a 602B     		cmp	r3, #96
 1887 001c 00F07081 		beq	.L205
 514:Core/Src/main.c ****     else if (cmd == CMD_SET_MAPPING) { 
 1888              		.loc 1 514 10 is_stmt 1 view .LVU582
 1889              		.loc 1 514 13 is_stmt 0 view .LVU583
 1890 0020 702B     		cmp	r3, #112
 1891 0022 00F07181 		beq	.L206
 515:Core/Src/main.c ****         uint8_t id = data[1];
 516:Core/Src/main.c ****         uint8_t btn = data[2];
 517:Core/Src/main.c ****         if (id < KEY_COUNT) key_map[id] = btn;
 518:Core/Src/main.c ****     }
 519:Core/Src/main.c ****     else if (cmd == CMD_CALIBRATE) { g_req_calibrate = true; }
 1892              		.loc 1 519 10 is_stmt 1 view .LVU584
 1893              		.loc 1 519 13 is_stmt 0 view .LVU585
 1894 0026 402B     		cmp	r3, #64
 1895 0028 00F07681 		beq	.L207
 520:Core/Src/main.c ****     else if (cmd == CMD_SAVE_SETTINGS) { g_req_save = true; }
 1896              		.loc 1 520 10 is_stmt 1 view .LVU586
 1897              		.loc 1 520 13 is_stmt 0 view .LVU587
 1898 002c 502B     		cmp	r3, #80
 1899 002e 00F07781 		beq	.L208
 521:Core/Src/main.c ****     else if (cmd == CMD_STOP_INPUT) { g_input_enabled = (data[1] == 1); }
 1900              		.loc 1 521 10 is_stmt 1 view .LVU588
 1901              		.loc 1 521 13 is_stmt 0 view .LVU589
 1902 0032 802B     		cmp	r3, #128
 1903 0034 00F07881 		beq	.L209
 522:Core/Src/main.c ****     else if (cmd == CMD_SET_COMBO) {
 1904              		.loc 1 522 10 is_stmt 1 view .LVU590
 1905              		.loc 1 522 13 is_stmt 0 view .LVU591
 1906 0038 812B     		cmp	r3, #129
 1907 003a 40F08880 		bne	.L163
 1908              	.LBB21:
 523:Core/Src/main.c ****         uint8_t idx = data[1];
 1909              		.loc 1 523 9 is_stmt 1 view .LVU592
 1910              		.loc 1 523 17 is_stmt 0 view .LVU593
 1911 003e 4378     		ldrb	r3, [r0, #1]	@ zero_extendqisi2
 1912              	.LVL168:
 524:Core/Src/main.c ****         if (idx < COMBO_COUNT) {
 1913              		.loc 1 524 9 is_stmt 1 view .LVU594
 1914              		.loc 1 524 12 is_stmt 0 view .LVU595
 1915 0040 032B     		cmp	r3, #3
 1916 0042 00F28480 		bhi	.L163
 525:Core/Src/main.c ****             g_combos[idx].mask = (data[3] << 8) | data[2];
 1917              		.loc 1 525 13 is_stmt 1 view .LVU596
 1918              		.loc 1 525 39 is_stmt 0 view .LVU597
 1919 0046 C278     		ldrb	r2, [r0, #3]	@ zero_extendqisi2
 1920              		.loc 1 525 55 view .LVU598
 1921 0048 8178     		ldrb	r1, [r0, #2]	@ zero_extendqisi2
 1922              	.LVL169:
 1923              		.loc 1 525 49 view .LVU599
 1924 004a 41EA0221 		orr	r1, r1, r2, lsl #8
 1925              		.loc 1 525 32 view .LVU600
 1926 004e BA4A     		ldr	r2, .L219
 1927 0050 22F82310 		strh	r1, [r2, r3, lsl #2]	@ movhi
 1928              	.LVL170:
 526:Core/Src/main.c ****             g_combos[idx].lt = data[4];
 1929              		.loc 1 526 13 is_stmt 1 view .LVU601
ARM GAS  C:\Users\naoki\AppData\Local\Temp\ccZXKLPf.s 			page 48


 1930              		.loc 1 526 30 is_stmt 0 view .LVU602
 1931 0054 0179     		ldrb	r1, [r0, #4]	@ zero_extendqisi2
 1932 0056 02EB8303 		add	r3, r2, r3, lsl #2
 1933              	.LVL171:
 1934              		.loc 1 526 30 view .LVU603
 1935 005a 9970     		strb	r1, [r3, #2]
 527:Core/Src/main.c ****             g_combos[idx].rt = data[5];
 1936              		.loc 1 527 13 is_stmt 1 view .LVU604
 1937              		.loc 1 527 30 is_stmt 0 view .LVU605
 1938 005c 4279     		ldrb	r2, [r0, #5]	@ zero_extendqisi2
 1939 005e DA70     		strb	r2, [r3, #3]
 1940              	.LBE21:
 528:Core/Src/main.c ****         }
 529:Core/Src/main.c ****     }
 530:Core/Src/main.c **** }
 1941              		.loc 1 530 1 view .LVU606
 1942 0060 75E0     		b	.L163
 1943              	.LVL172:
 1944              	.L201:
 1945              	.LBB22:
 455:Core/Src/main.c ****         memset(tx, 0, 64);
 1946              		.loc 1 455 9 is_stmt 1 view .LVU607
 456:Core/Src/main.c ****         tx[0] = CMD_READ_SENSORS;
 1947              		.loc 1 456 9 view .LVU608
 1948 0062 4022     		movs	r2, #64
 1949 0064 0021     		movs	r1, #0
 1950              	.LVL173:
 456:Core/Src/main.c ****         tx[0] = CMD_READ_SENSORS;
 1951              		.loc 1 456 9 is_stmt 0 view .LVU609
 1952 0066 B548     		ldr	r0, .L219+4
 1953              	.LVL174:
 456:Core/Src/main.c ****         tx[0] = CMD_READ_SENSORS;
 1954              		.loc 1 456 9 view .LVU610
 1955 0068 FFF7FEFF 		bl	memset
 1956              	.LVL175:
 457:Core/Src/main.c ****         for(int i=0; i<KEY_COUNT; i++) {
 1957              		.loc 1 457 9 is_stmt 1 view .LVU611
 457:Core/Src/main.c ****         for(int i=0; i<KEY_COUNT; i++) {
 1958              		.loc 1 457 15 is_stmt 0 view .LVU612
 1959 006c 3023     		movs	r3, #48
 1960 006e B34A     		ldr	r2, .L219+4
 1961 0070 1370     		strb	r3, [r2]
 458:Core/Src/main.c ****             float val = key_states[i].current_mm / TRAVEL_DISTANCE_MM;
 1962              		.loc 1 458 9 is_stmt 1 view .LVU613
 1963              	.LBB23:
 458:Core/Src/main.c ****             float val = key_states[i].current_mm / TRAVEL_DISTANCE_MM;
 1964              		.loc 1 458 13 view .LVU614
 1965              	.LVL176:
 458:Core/Src/main.c ****             float val = key_states[i].current_mm / TRAVEL_DISTANCE_MM;
 1966              		.loc 1 458 17 is_stmt 0 view .LVU615
 1967 0072 0022     		movs	r2, #0
 458:Core/Src/main.c ****             float val = key_states[i].current_mm / TRAVEL_DISTANCE_MM;
 1968              		.loc 1 458 9 view .LVU616
 1969 0074 0FE0     		b	.L165
 1970              	.LVL177:
 1971              	.L212:
 1972              	.LBB24:
ARM GAS  C:\Users\naoki\AppData\Local\Temp\ccZXKLPf.s 			page 49


 460:Core/Src/main.c ****             tx[i+1] = (uint8_t)(val * 255.0f);
 1973              		.loc 1 460 46 is_stmt 1 discriminator 2 view .LVU617
 460:Core/Src/main.c ****             tx[i+1] = (uint8_t)(val * 255.0f);
 1974              		.loc 1 460 49 is_stmt 0 discriminator 2 view .LVU618
 1975 0076 F5EEC07A 		vcmpe.f32	s15, #0
 1976 007a F1EE10FA 		vmrs	APSR_nzcv, FPSCR
 1977 007e 21D4     		bmi	.L210
 1978              	.LVL178:
 1979              	.L166:
 461:Core/Src/main.c ****         }
 1980              		.loc 1 461 13 is_stmt 1 view .LVU619
 461:Core/Src/main.c ****         }
 1981              		.loc 1 461 37 is_stmt 0 view .LVU620
 1982 0080 9FEDAF7A 		vldr.32	s14, .L219+8
 1983 0084 67EE877A 		vmul.f32	s15, s15, s14
 1984              	.LVL179:
 461:Core/Src/main.c ****         }
 1985              		.loc 1 461 17 view .LVU621
 1986 0088 0132     		adds	r2, r2, #1
 1987              	.LVL180:
 461:Core/Src/main.c ****         }
 1988              		.loc 1 461 23 view .LVU622
 1989 008a FCEEE77A 		vcvt.u32.f32	s15, s15
 1990 008e 17EE903A 		vmov	r3, s15	@ int
 461:Core/Src/main.c ****         }
 1991              		.loc 1 461 21 view .LVU623
 1992 0092 AA49     		ldr	r1, .L219+4
 1993 0094 8B54     		strb	r3, [r1, r2]
 1994              	.LBE24:
 458:Core/Src/main.c ****             float val = key_states[i].current_mm / TRAVEL_DISTANCE_MM;
 1995              		.loc 1 458 36 is_stmt 1 discriminator 2 view .LVU624
 1996              	.LVL181:
 1997              	.L165:
 458:Core/Src/main.c ****             float val = key_states[i].current_mm / TRAVEL_DISTANCE_MM;
 1998              		.loc 1 458 23 discriminator 1 view .LVU625
 1999 0096 132A     		cmp	r2, #19
 2000 0098 17DC     		bgt	.L211
 2001              	.LBB25:
 459:Core/Src/main.c ****             if (val > 1.0f) val = 1.0f; else if (val < 0.0f) val = 0.0f;
 2002              		.loc 1 459 13 view .LVU626
 459:Core/Src/main.c ****             if (val > 1.0f) val = 1.0f; else if (val < 0.0f) val = 0.0f;
 2003              		.loc 1 459 38 is_stmt 0 view .LVU627
 2004 009a 02EBC201 		add	r1, r2, r2, lsl #3
 2005 009e A94B     		ldr	r3, .L219+12
 2006 00a0 03EB8103 		add	r3, r3, r1, lsl #2
 2007 00a4 D3ED016A 		vldr.32	s13, [r3, #4]
 459:Core/Src/main.c ****             if (val > 1.0f) val = 1.0f; else if (val < 0.0f) val = 0.0f;
 2008              		.loc 1 459 19 view .LVU628
 2009 00a8 9FEDA77A 		vldr.32	s14, .L219+16
 2010 00ac C6EE877A 		vdiv.f32	s15, s13, s14
 2011              	.LVL182:
 460:Core/Src/main.c ****             tx[i+1] = (uint8_t)(val * 255.0f);
 2012              		.loc 1 460 13 is_stmt 1 view .LVU629
 460:Core/Src/main.c ****             tx[i+1] = (uint8_t)(val * 255.0f);
 2013              		.loc 1 460 16 is_stmt 0 view .LVU630
 2014 00b0 B7EE007A 		vmov.f32	s14, #1.0e+0
 2015 00b4 F4EEC77A 		vcmpe.f32	s15, s14
ARM GAS  C:\Users\naoki\AppData\Local\Temp\ccZXKLPf.s 			page 50


 2016 00b8 F1EE10FA 		vmrs	APSR_nzcv, FPSCR
 2017 00bc DBDD     		ble	.L212
 460:Core/Src/main.c ****             tx[i+1] = (uint8_t)(val * 255.0f);
 2018              		.loc 1 460 33 discriminator 1 view .LVU631
 2019 00be F7EE007A 		vmov.f32	s15, #1.0e+0
 2020              	.LVL183:
 460:Core/Src/main.c ****             tx[i+1] = (uint8_t)(val * 255.0f);
 2021              		.loc 1 460 33 discriminator 1 view .LVU632
 2022 00c2 DDE7     		b	.L166
 2023              	.LVL184:
 2024              	.L210:
 460:Core/Src/main.c ****             tx[i+1] = (uint8_t)(val * 255.0f);
 2025              		.loc 1 460 66 discriminator 3 view .LVU633
 2026 00c4 DFEDA17A 		vldr.32	s15, .L219+20
 2027              	.LVL185:
 460:Core/Src/main.c ****             tx[i+1] = (uint8_t)(val * 255.0f);
 2028              		.loc 1 460 66 discriminator 3 view .LVU634
 2029 00c8 DAE7     		b	.L166
 2030              	.LVL186:
 2031              	.L211:
 460:Core/Src/main.c ****             tx[i+1] = (uint8_t)(val * 255.0f);
 2032              		.loc 1 460 66 discriminator 3 view .LVU635
 2033              	.LBE25:
 2034              	.LBE23:
 2035              	.LBB26:
 463:Core/Src/main.c ****         for(int i=0; i<KEY_COUNT; i++) {
 2036              		.loc 1 463 17 view .LVU636
 2037 00ca 0023     		movs	r3, #0
 2038 00cc 0AE0     		b	.L168
 2039              	.LVL187:
 2040              	.L169:
 463:Core/Src/main.c ****         for(int i=0; i<KEY_COUNT; i++) {
 2041              		.loc 1 463 40 is_stmt 1 discriminator 3 view .LVU637
 463:Core/Src/main.c ****         for(int i=0; i<KEY_COUNT; i++) {
 2042              		.loc 1 463 64 is_stmt 0 discriminator 3 view .LVU638
 2043 00ce 03EBC301 		add	r1, r3, r3, lsl #3
 2044 00d2 9C4A     		ldr	r2, .L219+12
 2045 00d4 02EB8102 		add	r2, r2, r1, lsl #2
 2046 00d8 107B     		ldrb	r0, [r2, #12]	@ zero_extendqisi2
 463:Core/Src/main.c ****         for(int i=0; i<KEY_COUNT; i++) {
 2047              		.loc 1 463 44 discriminator 3 view .LVU639
 2048 00da 03F11502 		add	r2, r3, #21
 463:Core/Src/main.c ****         for(int i=0; i<KEY_COUNT; i++) {
 2049              		.loc 1 463 49 discriminator 3 view .LVU640
 2050 00de 9749     		ldr	r1, .L219+4
 2051 00e0 8854     		strb	r0, [r1, r2]
 463:Core/Src/main.c ****         for(int i=0; i<KEY_COUNT; i++) {
 2052              		.loc 1 463 36 is_stmt 1 discriminator 3 view .LVU641
 2053 00e2 0133     		adds	r3, r3, #1
 2054              	.LVL188:
 2055              	.L168:
 463:Core/Src/main.c ****         for(int i=0; i<KEY_COUNT; i++) {
 2056              		.loc 1 463 23 discriminator 1 view .LVU642
 2057 00e4 132B     		cmp	r3, #19
 2058 00e6 F2DD     		ble	.L169
 2059              	.LBE26:
 2060              	.LBB27:
ARM GAS  C:\Users\naoki\AppData\Local\Temp\ccZXKLPf.s 			page 51


 464:Core/Src/main.c ****             float val = key_states[i].anchor_mm / TRAVEL_DISTANCE_MM;
 2061              		.loc 1 464 17 is_stmt 0 view .LVU643
 2062 00e8 0022     		movs	r2, #0
 2063 00ea 11E0     		b	.L170
 2064              	.LVL189:
 2065              	.L215:
 2066              	.LBB28:
 466:Core/Src/main.c ****             tx[i+41] = (uint8_t)(val * 255.0f);
 2067              		.loc 1 466 46 is_stmt 1 discriminator 2 view .LVU644
 466:Core/Src/main.c ****             tx[i+41] = (uint8_t)(val * 255.0f);
 2068              		.loc 1 466 49 is_stmt 0 discriminator 2 view .LVU645
 2069 00ec F5EEC07A 		vcmpe.f32	s15, #0
 2070 00f0 F1EE10FA 		vmrs	APSR_nzcv, FPSCR
 2071 00f4 23D4     		bmi	.L213
 2072              	.LVL190:
 2073              	.L171:
 467:Core/Src/main.c ****         }
 2074              		.loc 1 467 13 is_stmt 1 view .LVU646
 467:Core/Src/main.c ****         }
 2075              		.loc 1 467 38 is_stmt 0 view .LVU647
 2076 00f6 9FED927A 		vldr.32	s14, .L219+8
 2077 00fa 67EE877A 		vmul.f32	s15, s15, s14
 2078              	.LVL191:
 467:Core/Src/main.c ****         }
 2079              		.loc 1 467 17 view .LVU648
 2080 00fe 02F12901 		add	r1, r2, #41
 467:Core/Src/main.c ****         }
 2081              		.loc 1 467 24 view .LVU649
 2082 0102 FCEEE77A 		vcvt.u32.f32	s15, s15
 2083 0106 17EE903A 		vmov	r3, s15	@ int
 467:Core/Src/main.c ****         }
 2084              		.loc 1 467 22 view .LVU650
 2085 010a 8C48     		ldr	r0, .L219+4
 2086 010c 4354     		strb	r3, [r0, r1]
 2087              	.LBE28:
 464:Core/Src/main.c ****             float val = key_states[i].anchor_mm / TRAVEL_DISTANCE_MM;
 2088              		.loc 1 464 36 is_stmt 1 discriminator 2 view .LVU651
 2089 010e 0132     		adds	r2, r2, #1
 2090              	.LVL192:
 2091              	.L170:
 464:Core/Src/main.c ****             float val = key_states[i].anchor_mm / TRAVEL_DISTANCE_MM;
 2092              		.loc 1 464 23 discriminator 1 view .LVU652
 2093 0110 132A     		cmp	r2, #19
 2094 0112 17DC     		bgt	.L214
 2095              	.LBB29:
 465:Core/Src/main.c ****             if (val > 1.0f) val = 1.0f; else if (val < 0.0f) val = 0.0f;
 2096              		.loc 1 465 13 view .LVU653
 465:Core/Src/main.c ****             if (val > 1.0f) val = 1.0f; else if (val < 0.0f) val = 0.0f;
 2097              		.loc 1 465 38 is_stmt 0 view .LVU654
 2098 0114 02EBC201 		add	r1, r2, r2, lsl #3
 2099 0118 8A4B     		ldr	r3, .L219+12
 2100 011a 03EB8103 		add	r3, r3, r1, lsl #2
 2101 011e D3ED026A 		vldr.32	s13, [r3, #8]
 465:Core/Src/main.c ****             if (val > 1.0f) val = 1.0f; else if (val < 0.0f) val = 0.0f;
 2102              		.loc 1 465 19 view .LVU655
 2103 0122 9FED897A 		vldr.32	s14, .L219+16
 2104 0126 C6EE877A 		vdiv.f32	s15, s13, s14
ARM GAS  C:\Users\naoki\AppData\Local\Temp\ccZXKLPf.s 			page 52


 2105              	.LVL193:
 466:Core/Src/main.c ****             tx[i+41] = (uint8_t)(val * 255.0f);
 2106              		.loc 1 466 13 is_stmt 1 view .LVU656
 466:Core/Src/main.c ****             tx[i+41] = (uint8_t)(val * 255.0f);
 2107              		.loc 1 466 16 is_stmt 0 view .LVU657
 2108 012a B7EE007A 		vmov.f32	s14, #1.0e+0
 2109 012e F4EEC77A 		vcmpe.f32	s15, s14
 2110 0132 F1EE10FA 		vmrs	APSR_nzcv, FPSCR
 2111 0136 D9DD     		ble	.L215
 466:Core/Src/main.c ****             tx[i+41] = (uint8_t)(val * 255.0f);
 2112              		.loc 1 466 33 discriminator 1 view .LVU658
 2113 0138 F7EE007A 		vmov.f32	s15, #1.0e+0
 2114              	.LVL194:
 466:Core/Src/main.c ****             tx[i+41] = (uint8_t)(val * 255.0f);
 2115              		.loc 1 466 33 discriminator 1 view .LVU659
 2116 013c DBE7     		b	.L171
 2117              	.LVL195:
 2118              	.L213:
 466:Core/Src/main.c ****             tx[i+41] = (uint8_t)(val * 255.0f);
 2119              		.loc 1 466 66 discriminator 3 view .LVU660
 2120 013e DFED837A 		vldr.32	s15, .L219+20
 2121              	.LVL196:
 466:Core/Src/main.c ****             tx[i+41] = (uint8_t)(val * 255.0f);
 2122              		.loc 1 466 66 discriminator 3 view .LVU661
 2123 0142 D8E7     		b	.L171
 2124              	.LVL197:
 2125              	.L214:
 466:Core/Src/main.c ****             tx[i+41] = (uint8_t)(val * 255.0f);
 2126              		.loc 1 466 66 discriminator 3 view .LVU662
 2127              	.LBE29:
 2128              	.LBE27:
 469:Core/Src/main.c ****     }
 2129              		.loc 1 469 9 is_stmt 1 view .LVU663
 2130 0144 4022     		movs	r2, #64
 2131              	.LVL198:
 469:Core/Src/main.c ****     }
 2132              		.loc 1 469 9 is_stmt 0 view .LVU664
 2133 0146 7D49     		ldr	r1, .L219+4
 2134 0148 8148     		ldr	r0, .L219+24
 2135 014a FFF7FEFF 		bl	USBD_WebHID_SendReport
 2136              	.LVL199:
 2137              	.L163:
 469:Core/Src/main.c ****     }
 2138              		.loc 1 469 9 view .LVU665
 2139              	.LBE22:
 2140              		.loc 1 530 1 view .LVU666
 2141 014e 08BD     		pop	{r3, pc}
 2142              	.LVL200:
 2143              	.L202:
 2144              	.LBB30:
 472:Core/Src/main.c ****         memset(tx, 0, 64);
 2145              		.loc 1 472 9 is_stmt 1 view .LVU667
 473:Core/Src/main.c ****         tx[0] = CMD_GET_CONFIG;
 2146              		.loc 1 473 9 view .LVU668
 2147 0150 4022     		movs	r2, #64
 2148 0152 0021     		movs	r1, #0
 2149              	.LVL201:
ARM GAS  C:\Users\naoki\AppData\Local\Temp\ccZXKLPf.s 			page 53


 473:Core/Src/main.c ****         tx[0] = CMD_GET_CONFIG;
 2150              		.loc 1 473 9 is_stmt 0 view .LVU669
 2151 0154 7F48     		ldr	r0, .L219+28
 2152              	.LVL202:
 473:Core/Src/main.c ****         tx[0] = CMD_GET_CONFIG;
 2153              		.loc 1 473 9 view .LVU670
 2154 0156 FFF7FEFF 		bl	memset
 2155              	.LVL203:
 474:Core/Src/main.c ****         tx[1] = g_socd_mode;
 2156              		.loc 1 474 9 is_stmt 1 view .LVU671
 474:Core/Src/main.c ****         tx[1] = g_socd_mode;
 2157              		.loc 1 474 15 is_stmt 0 view .LVU672
 2158 015a 1023     		movs	r3, #16
 2159 015c 7D4A     		ldr	r2, .L219+28
 2160 015e 1370     		strb	r3, [r2]
 475:Core/Src/main.c ****         for(int i=0; i<KEY_COUNT; i++) tx[i+2] = (uint8_t)(key_states[i].actuation_point * 10.0f);
 2161              		.loc 1 475 9 is_stmt 1 view .LVU673
 475:Core/Src/main.c ****         for(int i=0; i<KEY_COUNT; i++) tx[i+2] = (uint8_t)(key_states[i].actuation_point * 10.0f);
 2162              		.loc 1 475 15 is_stmt 0 view .LVU674
 2163 0160 7D4B     		ldr	r3, .L219+32
 2164 0162 1B78     		ldrb	r3, [r3]	@ zero_extendqisi2
 2165 0164 5370     		strb	r3, [r2, #1]
 476:Core/Src/main.c ****         for(int i=0; i<KEY_COUNT; i++) tx[i+22] = (uint8_t)(key_states[i].rt_press * 10.0f);
 2166              		.loc 1 476 9 is_stmt 1 view .LVU675
 2167              	.LBB31:
 476:Core/Src/main.c ****         for(int i=0; i<KEY_COUNT; i++) tx[i+22] = (uint8_t)(key_states[i].rt_press * 10.0f);
 2168              		.loc 1 476 13 view .LVU676
 2169              	.LVL204:
 476:Core/Src/main.c ****         for(int i=0; i<KEY_COUNT; i++) tx[i+22] = (uint8_t)(key_states[i].rt_press * 10.0f);
 2170              		.loc 1 476 17 is_stmt 0 view .LVU677
 2171 0166 0023     		movs	r3, #0
 2172              	.LVL205:
 2173              	.L175:
 476:Core/Src/main.c ****         for(int i=0; i<KEY_COUNT; i++) tx[i+22] = (uint8_t)(key_states[i].rt_press * 10.0f);
 2174              		.loc 1 476 23 is_stmt 1 discriminator 1 view .LVU678
 2175 0168 132B     		cmp	r3, #19
 2176 016a 13DC     		bgt	.L216
 476:Core/Src/main.c ****         for(int i=0; i<KEY_COUNT; i++) tx[i+22] = (uint8_t)(key_states[i].rt_press * 10.0f);
 2177              		.loc 1 476 40 discriminator 3 view .LVU679
 476:Core/Src/main.c ****         for(int i=0; i<KEY_COUNT; i++) tx[i+22] = (uint8_t)(key_states[i].rt_press * 10.0f);
 2178              		.loc 1 476 73 is_stmt 0 discriminator 3 view .LVU680
 2179 016c 03EBC301 		add	r1, r3, r3, lsl #3
 2180 0170 744A     		ldr	r2, .L219+12
 2181 0172 02EB8102 		add	r2, r2, r1, lsl #2
 2182 0176 D2ED047A 		vldr.32	s15, [r2, #16]
 476:Core/Src/main.c ****         for(int i=0; i<KEY_COUNT; i++) tx[i+22] = (uint8_t)(key_states[i].rt_press * 10.0f);
 2183              		.loc 1 476 90 discriminator 3 view .LVU681
 2184 017a B2EE047A 		vmov.f32	s14, #1.0e+1
 2185 017e 67EE877A 		vmul.f32	s15, s15, s14
 476:Core/Src/main.c ****         for(int i=0; i<KEY_COUNT; i++) tx[i+22] = (uint8_t)(key_states[i].rt_press * 10.0f);
 2186              		.loc 1 476 44 discriminator 3 view .LVU682
 2187 0182 991C     		adds	r1, r3, #2
 476:Core/Src/main.c ****         for(int i=0; i<KEY_COUNT; i++) tx[i+22] = (uint8_t)(key_states[i].rt_press * 10.0f);
 2188              		.loc 1 476 50 discriminator 3 view .LVU683
 2189 0184 FCEEE77A 		vcvt.u32.f32	s15, s15
 2190 0188 17EE902A 		vmov	r2, s15	@ int
 476:Core/Src/main.c ****         for(int i=0; i<KEY_COUNT; i++) tx[i+22] = (uint8_t)(key_states[i].rt_press * 10.0f);
ARM GAS  C:\Users\naoki\AppData\Local\Temp\ccZXKLPf.s 			page 54


 2191              		.loc 1 476 48 discriminator 3 view .LVU684
 2192 018c 7148     		ldr	r0, .L219+28
 2193 018e 4254     		strb	r2, [r0, r1]
 476:Core/Src/main.c ****         for(int i=0; i<KEY_COUNT; i++) tx[i+22] = (uint8_t)(key_states[i].rt_press * 10.0f);
 2194              		.loc 1 476 36 is_stmt 1 discriminator 3 view .LVU685
 2195 0190 0133     		adds	r3, r3, #1
 2196              	.LVL206:
 476:Core/Src/main.c ****         for(int i=0; i<KEY_COUNT; i++) tx[i+22] = (uint8_t)(key_states[i].rt_press * 10.0f);
 2197              		.loc 1 476 36 is_stmt 0 discriminator 3 view .LVU686
 2198 0192 E9E7     		b	.L175
 2199              	.LVL207:
 2200              	.L216:
 476:Core/Src/main.c ****         for(int i=0; i<KEY_COUNT; i++) tx[i+22] = (uint8_t)(key_states[i].rt_press * 10.0f);
 2201              		.loc 1 476 36 discriminator 3 view .LVU687
 2202              	.LBE31:
 2203              	.LBB32:
 477:Core/Src/main.c ****         for(int i=0; i<KEY_COUNT; i++) tx[i+42] = key_map[i];
 2204              		.loc 1 477 17 view .LVU688
 2205 0194 0023     		movs	r3, #0
 2206              	.LVL208:
 2207              	.L177:
 477:Core/Src/main.c ****         for(int i=0; i<KEY_COUNT; i++) tx[i+42] = key_map[i];
 2208              		.loc 1 477 23 is_stmt 1 discriminator 1 view .LVU689
 2209 0196 132B     		cmp	r3, #19
 2210 0198 14DC     		bgt	.L217
 477:Core/Src/main.c ****         for(int i=0; i<KEY_COUNT; i++) tx[i+42] = key_map[i];
 2211              		.loc 1 477 40 discriminator 3 view .LVU690
 477:Core/Src/main.c ****         for(int i=0; i<KEY_COUNT; i++) tx[i+42] = key_map[i];
 2212              		.loc 1 477 74 is_stmt 0 discriminator 3 view .LVU691
 2213 019a 03EBC301 		add	r1, r3, r3, lsl #3
 2214 019e 694A     		ldr	r2, .L219+12
 2215 01a0 02EB8102 		add	r2, r2, r1, lsl #2
 2216 01a4 D2ED057A 		vldr.32	s15, [r2, #20]
 477:Core/Src/main.c ****         for(int i=0; i<KEY_COUNT; i++) tx[i+42] = key_map[i];
 2217              		.loc 1 477 84 discriminator 3 view .LVU692
 2218 01a8 B2EE047A 		vmov.f32	s14, #1.0e+1
 2219 01ac 67EE877A 		vmul.f32	s15, s15, s14
 477:Core/Src/main.c ****         for(int i=0; i<KEY_COUNT; i++) tx[i+42] = key_map[i];
 2220              		.loc 1 477 44 discriminator 3 view .LVU693
 2221 01b0 03F11601 		add	r1, r3, #22
 477:Core/Src/main.c ****         for(int i=0; i<KEY_COUNT; i++) tx[i+42] = key_map[i];
 2222              		.loc 1 477 51 discriminator 3 view .LVU694
 2223 01b4 FCEEE77A 		vcvt.u32.f32	s15, s15
 2224 01b8 17EE902A 		vmov	r2, s15	@ int
 477:Core/Src/main.c ****         for(int i=0; i<KEY_COUNT; i++) tx[i+42] = key_map[i];
 2225              		.loc 1 477 49 discriminator 3 view .LVU695
 2226 01bc 6548     		ldr	r0, .L219+28
 2227 01be 4254     		strb	r2, [r0, r1]
 477:Core/Src/main.c ****         for(int i=0; i<KEY_COUNT; i++) tx[i+42] = key_map[i];
 2228              		.loc 1 477 36 is_stmt 1 discriminator 3 view .LVU696
 2229 01c0 0133     		adds	r3, r3, #1
 2230              	.LVL209:
 477:Core/Src/main.c ****         for(int i=0; i<KEY_COUNT; i++) tx[i+42] = key_map[i];
 2231              		.loc 1 477 36 is_stmt 0 discriminator 3 view .LVU697
 2232 01c2 E8E7     		b	.L177
 2233              	.LVL210:
 2234              	.L217:
ARM GAS  C:\Users\naoki\AppData\Local\Temp\ccZXKLPf.s 			page 55


 477:Core/Src/main.c ****         for(int i=0; i<KEY_COUNT; i++) tx[i+42] = key_map[i];
 2235              		.loc 1 477 36 discriminator 3 view .LVU698
 2236              	.LBE32:
 2237              	.LBB33:
 478:Core/Src/main.c ****         USBD_WebHID_SendReport(&hUsbDeviceFS, tx, 64);
 2238              		.loc 1 478 17 view .LVU699
 2239 01c4 0023     		movs	r3, #0
 2240              	.LVL211:
 2241              	.L179:
 478:Core/Src/main.c ****         USBD_WebHID_SendReport(&hUsbDeviceFS, tx, 64);
 2242              		.loc 1 478 23 is_stmt 1 discriminator 1 view .LVU700
 2243 01c6 132B     		cmp	r3, #19
 2244 01c8 07DC     		bgt	.L218
 478:Core/Src/main.c ****         USBD_WebHID_SendReport(&hUsbDeviceFS, tx, 64);
 2245              		.loc 1 478 40 discriminator 3 view .LVU701
 478:Core/Src/main.c ****         USBD_WebHID_SendReport(&hUsbDeviceFS, tx, 64);
 2246              		.loc 1 478 44 is_stmt 0 discriminator 3 view .LVU702
 2247 01ca 03F12A02 		add	r2, r3, #42
 478:Core/Src/main.c ****         USBD_WebHID_SendReport(&hUsbDeviceFS, tx, 64);
 2248              		.loc 1 478 58 discriminator 3 view .LVU703
 2249 01ce 6349     		ldr	r1, .L219+36
 2250 01d0 C85C     		ldrb	r0, [r1, r3]	@ zero_extendqisi2
 478:Core/Src/main.c ****         USBD_WebHID_SendReport(&hUsbDeviceFS, tx, 64);
 2251              		.loc 1 478 49 discriminator 3 view .LVU704
 2252 01d2 6049     		ldr	r1, .L219+28
 2253 01d4 8854     		strb	r0, [r1, r2]
 478:Core/Src/main.c ****         USBD_WebHID_SendReport(&hUsbDeviceFS, tx, 64);
 2254              		.loc 1 478 36 is_stmt 1 discriminator 3 view .LVU705
 2255 01d6 0133     		adds	r3, r3, #1
 2256              	.LVL212:
 478:Core/Src/main.c ****         USBD_WebHID_SendReport(&hUsbDeviceFS, tx, 64);
 2257              		.loc 1 478 36 is_stmt 0 discriminator 3 view .LVU706
 2258 01d8 F5E7     		b	.L179
 2259              	.LVL213:
 2260              	.L218:
 478:Core/Src/main.c ****         USBD_WebHID_SendReport(&hUsbDeviceFS, tx, 64);
 2261              		.loc 1 478 36 discriminator 3 view .LVU707
 2262              	.LBE33:
 479:Core/Src/main.c ****     }
 2263              		.loc 1 479 9 is_stmt 1 view .LVU708
 2264 01da 4022     		movs	r2, #64
 2265 01dc 5D49     		ldr	r1, .L219+28
 2266 01de 5C48     		ldr	r0, .L219+24
 2267 01e0 FFF7FEFF 		bl	USBD_WebHID_SendReport
 2268              	.LVL214:
 479:Core/Src/main.c ****     }
 2269              		.loc 1 479 9 is_stmt 0 view .LVU709
 2270              	.LBE30:
 2271 01e4 B3E7     		b	.L163
 2272              	.LVL215:
 2273              	.L203:
 2274              	.LBB34:
 482:Core/Src/main.c ****         memset(tx, 0, 64);
 2275              		.loc 1 482 9 is_stmt 1 view .LVU710
 483:Core/Src/main.c ****         tx[0] = CMD_GET_COMBOS;
 2276              		.loc 1 483 9 view .LVU711
 2277 01e6 4022     		movs	r2, #64
ARM GAS  C:\Users\naoki\AppData\Local\Temp\ccZXKLPf.s 			page 56


 2278 01e8 0021     		movs	r1, #0
 2279              	.LVL216:
 483:Core/Src/main.c ****         tx[0] = CMD_GET_COMBOS;
 2280              		.loc 1 483 9 is_stmt 0 view .LVU712
 2281 01ea 5D48     		ldr	r0, .L219+40
 2282              	.LVL217:
 483:Core/Src/main.c ****         tx[0] = CMD_GET_COMBOS;
 2283              		.loc 1 483 9 view .LVU713
 2284 01ec FFF7FEFF 		bl	memset
 2285              	.LVL218:
 484:Core/Src/main.c ****         for(int i=0; i<COMBO_COUNT; i++) {
 2286              		.loc 1 484 9 is_stmt 1 view .LVU714
 484:Core/Src/main.c ****         for(int i=0; i<COMBO_COUNT; i++) {
 2287              		.loc 1 484 15 is_stmt 0 view .LVU715
 2288 01f0 1123     		movs	r3, #17
 2289 01f2 5B4A     		ldr	r2, .L219+40
 2290 01f4 1370     		strb	r3, [r2]
 485:Core/Src/main.c ****             int offset = 1 + (i * 4);
 2291              		.loc 1 485 9 is_stmt 1 view .LVU716
 2292              	.LBB35:
 485:Core/Src/main.c ****             int offset = 1 + (i * 4);
 2293              		.loc 1 485 13 view .LVU717
 2294              	.LVL219:
 485:Core/Src/main.c ****             int offset = 1 + (i * 4);
 2295              		.loc 1 485 17 is_stmt 0 view .LVU718
 2296 01f6 0021     		movs	r1, #0
 485:Core/Src/main.c ****             int offset = 1 + (i * 4);
 2297              		.loc 1 485 9 view .LVU719
 2298 01f8 19E0     		b	.L182
 2299              	.LVL220:
 2300              	.L183:
 2301              	.LBB36:
 486:Core/Src/main.c ****             tx[offset] = g_combos[i].mask & 0xFF;
 2302              		.loc 1 486 13 is_stmt 1 view .LVU720
 486:Core/Src/main.c ****             tx[offset] = g_combos[i].mask & 0xFF;
 2303              		.loc 1 486 33 is_stmt 0 view .LVU721
 2304 01fa 8B00     		lsls	r3, r1, #2
 486:Core/Src/main.c ****             tx[offset] = g_combos[i].mask & 0xFF;
 2305              		.loc 1 486 17 view .LVU722
 2306 01fc 03F1010E 		add	lr, r3, #1
 2307              	.LVL221:
 487:Core/Src/main.c ****             tx[offset+1] = (g_combos[i].mask >> 8) & 0xFF;
 2308              		.loc 1 487 13 is_stmt 1 view .LVU723
 487:Core/Src/main.c ****             tx[offset+1] = (g_combos[i].mask >> 8) & 0xFF;
 2309              		.loc 1 487 37 is_stmt 0 view .LVU724
 2310 0200 4D4A     		ldr	r2, .L219
 2311 0202 32F821C0 		ldrh	ip, [r2, r1, lsl #2]
 487:Core/Src/main.c ****             tx[offset+1] = (g_combos[i].mask >> 8) & 0xFF;
 2312              		.loc 1 487 24 view .LVU725
 2313 0206 5648     		ldr	r0, .L219+40
 2314 0208 00F80EC0 		strb	ip, [r0, lr]
 488:Core/Src/main.c ****             tx[offset+2] = g_combos[i].lt;
 2315              		.loc 1 488 13 is_stmt 1 view .LVU726
 488:Core/Src/main.c ****             tx[offset+2] = g_combos[i].lt;
 2316              		.loc 1 488 22 is_stmt 0 view .LVU727
 2317 020c 03F1020E 		add	lr, r3, #2
 2318              	.LVL222:
ARM GAS  C:\Users\naoki\AppData\Local\Temp\ccZXKLPf.s 			page 57


 488:Core/Src/main.c ****             tx[offset+2] = g_combos[i].lt;
 2319              		.loc 1 488 26 view .LVU728
 2320 0210 4FEA1C2C 		lsr	ip, ip, #8
 2321 0214 00F80EC0 		strb	ip, [r0, lr]
 489:Core/Src/main.c ****             tx[offset+3] = g_combos[i].rt;
 2322              		.loc 1 489 13 is_stmt 1 view .LVU729
 489:Core/Src/main.c ****             tx[offset+3] = g_combos[i].rt;
 2323              		.loc 1 489 22 is_stmt 0 view .LVU730
 2324 0218 03F1030C 		add	ip, r3, #3
 489:Core/Src/main.c ****             tx[offset+3] = g_combos[i].rt;
 2325              		.loc 1 489 39 view .LVU731
 2326 021c 1A44     		add	r2, r2, r3
 2327 021e 92F802E0 		ldrb	lr, [r2, #2]	@ zero_extendqisi2
 489:Core/Src/main.c ****             tx[offset+3] = g_combos[i].rt;
 2328              		.loc 1 489 26 view .LVU732
 2329 0222 00F80CE0 		strb	lr, [r0, ip]
 490:Core/Src/main.c ****         }
 2330              		.loc 1 490 13 is_stmt 1 view .LVU733
 490:Core/Src/main.c ****         }
 2331              		.loc 1 490 22 is_stmt 0 view .LVU734
 2332 0226 0433     		adds	r3, r3, #4
 2333              	.LVL223:
 490:Core/Src/main.c ****         }
 2334              		.loc 1 490 39 view .LVU735
 2335 0228 D278     		ldrb	r2, [r2, #3]	@ zero_extendqisi2
 490:Core/Src/main.c ****         }
 2336              		.loc 1 490 26 view .LVU736
 2337 022a C254     		strb	r2, [r0, r3]
 2338              	.LBE36:
 485:Core/Src/main.c ****             int offset = 1 + (i * 4);
 2339              		.loc 1 485 38 is_stmt 1 discriminator 3 view .LVU737
 2340 022c 0131     		adds	r1, r1, #1
 2341              	.LVL224:
 2342              	.L182:
 485:Core/Src/main.c ****             int offset = 1 + (i * 4);
 2343              		.loc 1 485 23 discriminator 1 view .LVU738
 2344 022e 0329     		cmp	r1, #3
 2345 0230 E3DD     		ble	.L183
 2346              	.LBE35:
 492:Core/Src/main.c ****     }
 2347              		.loc 1 492 9 view .LVU739
 2348 0232 4022     		movs	r2, #64
 2349 0234 4A49     		ldr	r1, .L219+40
 2350              	.LVL225:
 492:Core/Src/main.c ****     }
 2351              		.loc 1 492 9 is_stmt 0 view .LVU740
 2352 0236 4648     		ldr	r0, .L219+24
 2353 0238 FFF7FEFF 		bl	USBD_WebHID_SendReport
 2354              	.LVL226:
 2355              	.LBE34:
 2356 023c 87E7     		b	.L163
 2357              	.LVL227:
 2358              	.L204:
 2359              	.LBB37:
 495:Core/Src/main.c ****         if (id < KEY_COUNT) {
 2360              		.loc 1 495 9 is_stmt 1 view .LVU741
 495:Core/Src/main.c ****         if (id < KEY_COUNT) {
ARM GAS  C:\Users\naoki\AppData\Local\Temp\ccZXKLPf.s 			page 58


 2361              		.loc 1 495 17 is_stmt 0 view .LVU742
 2362 023e 4378     		ldrb	r3, [r0, #1]	@ zero_extendqisi2
 2363              	.LVL228:
 496:Core/Src/main.c ****             float ap = (float)data[2] / 10.0f;
 2364              		.loc 1 496 9 is_stmt 1 view .LVU743
 496:Core/Src/main.c ****             float ap = (float)data[2] / 10.0f;
 2365              		.loc 1 496 12 is_stmt 0 view .LVU744
 2366 0240 132B     		cmp	r3, #19
 2367 0242 84D8     		bhi	.L163
 2368              	.LBB38:
 497:Core/Src/main.c ****             if (ap < 0.1f) ap = 0.1f; 
 2369              		.loc 1 497 13 is_stmt 1 view .LVU745
 497:Core/Src/main.c ****             if (ap < 0.1f) ap = 0.1f; 
 2370              		.loc 1 497 35 is_stmt 0 view .LVU746
 2371 0244 8278     		ldrb	r2, [r0, #2]	@ zero_extendqisi2
 2372 0246 07EE102A 		vmov	s14, r2	@ int
 497:Core/Src/main.c ****             if (ap < 0.1f) ap = 0.1f; 
 2373              		.loc 1 497 24 view .LVU747
 2374 024a B8EE477A 		vcvt.f32.u32	s14, s14
 497:Core/Src/main.c ****             if (ap < 0.1f) ap = 0.1f; 
 2375              		.loc 1 497 19 view .LVU748
 2376 024e F2EE046A 		vmov.f32	s13, #1.0e+1
 2377 0252 C7EE267A 		vdiv.f32	s15, s14, s13
 2378              	.LVL229:
 498:Core/Src/main.c ****             if (ap > 3.0f) ap = 3.0f;
 2379              		.loc 1 498 13 is_stmt 1 view .LVU749
 498:Core/Src/main.c ****             if (ap > 3.0f) ap = 3.0f;
 2380              		.loc 1 498 16 is_stmt 0 view .LVU750
 2381 0256 9FED437A 		vldr.32	s14, .L219+44
 2382 025a F4EEC77A 		vcmpe.f32	s15, s14
 2383 025e F1EE10FA 		vmrs	APSR_nzcv, FPSCR
 2384 0262 09D4     		bmi	.L196
 499:Core/Src/main.c ****             key_states[id].actuation_point = ap;
 2385              		.loc 1 499 13 is_stmt 1 view .LVU751
 499:Core/Src/main.c ****             key_states[id].actuation_point = ap;
 2386              		.loc 1 499 16 is_stmt 0 view .LVU752
 2387 0264 B0EE087A 		vmov.f32	s14, #3.0e+0
 2388 0268 F4EEC77A 		vcmpe.f32	s15, s14
 2389 026c F1EE10FA 		vmrs	APSR_nzcv, FPSCR
 2390 0270 04DD     		ble	.L185
 499:Core/Src/main.c ****             key_states[id].actuation_point = ap;
 2391              		.loc 1 499 31 discriminator 1 view .LVU753
 2392 0272 F0EE087A 		vmov.f32	s15, #3.0e+0
 2393              	.LVL230:
 499:Core/Src/main.c ****             key_states[id].actuation_point = ap;
 2394              		.loc 1 499 31 discriminator 1 view .LVU754
 2395 0276 01E0     		b	.L185
 2396              	.LVL231:
 2397              	.L196:
 498:Core/Src/main.c ****             if (ap > 3.0f) ap = 3.0f;
 2398              		.loc 1 498 31 discriminator 1 view .LVU755
 2399 0278 DFED3A7A 		vldr.32	s15, .L219+44
 2400              	.LVL232:
 2401              	.L185:
 500:Core/Src/main.c **** 
 2402              		.loc 1 500 13 is_stmt 1 view .LVU756
 500:Core/Src/main.c **** 
ARM GAS  C:\Users\naoki\AppData\Local\Temp\ccZXKLPf.s 			page 59


 2403              		.loc 1 500 44 is_stmt 0 view .LVU757
 2404 027c 03EBC301 		add	r1, r3, r3, lsl #3
 2405              	.LVL233:
 500:Core/Src/main.c **** 
 2406              		.loc 1 500 44 view .LVU758
 2407 0280 304A     		ldr	r2, .L219+12
 2408 0282 02EB8102 		add	r2, r2, r1, lsl #2
 2409 0286 C2ED047A 		vstr.32	s15, [r2, #16]
 2410              	.LVL234:
 502:Core/Src/main.c ****             if (rt < 0.1f) rt = 0.1f; 
 2411              		.loc 1 502 13 is_stmt 1 view .LVU759
 502:Core/Src/main.c ****             if (rt < 0.1f) rt = 0.1f; 
 2412              		.loc 1 502 35 is_stmt 0 view .LVU760
 2413 028a C278     		ldrb	r2, [r0, #3]	@ zero_extendqisi2
 2414 028c 07EE102A 		vmov	s14, r2	@ int
 502:Core/Src/main.c ****             if (rt < 0.1f) rt = 0.1f; 
 2415              		.loc 1 502 24 view .LVU761
 2416 0290 B8EE477A 		vcvt.f32.u32	s14, s14
 502:Core/Src/main.c ****             if (rt < 0.1f) rt = 0.1f; 
 2417              		.loc 1 502 19 view .LVU762
 2418 0294 F2EE046A 		vmov.f32	s13, #1.0e+1
 2419 0298 C7EE267A 		vdiv.f32	s15, s14, s13
 2420              	.LVL235:
 503:Core/Src/main.c ****             if (rt > 3.0f) rt = 3.0f;
 2421              		.loc 1 503 13 is_stmt 1 view .LVU763
 503:Core/Src/main.c ****             if (rt > 3.0f) rt = 3.0f;
 2422              		.loc 1 503 16 is_stmt 0 view .LVU764
 2423 029c 9FED317A 		vldr.32	s14, .L219+44
 2424 02a0 F4EEC77A 		vcmpe.f32	s15, s14
 2425 02a4 F1EE10FA 		vmrs	APSR_nzcv, FPSCR
 2426 02a8 09D4     		bmi	.L198
 504:Core/Src/main.c ****             key_states[id].rt_press = rt; key_states[id].rt_release = rt;
 2427              		.loc 1 504 13 is_stmt 1 view .LVU765
 504:Core/Src/main.c ****             key_states[id].rt_press = rt; key_states[id].rt_release = rt;
 2428              		.loc 1 504 16 is_stmt 0 view .LVU766
 2429 02aa B0EE087A 		vmov.f32	s14, #3.0e+0
 2430 02ae F4EEC77A 		vcmpe.f32	s15, s14
 2431 02b2 F1EE10FA 		vmrs	APSR_nzcv, FPSCR
 2432 02b6 04DD     		ble	.L186
 504:Core/Src/main.c ****             key_states[id].rt_press = rt; key_states[id].rt_release = rt;
 2433              		.loc 1 504 31 discriminator 1 view .LVU767
 2434 02b8 F0EE087A 		vmov.f32	s15, #3.0e+0
 2435              	.LVL236:
 504:Core/Src/main.c ****             key_states[id].rt_press = rt; key_states[id].rt_release = rt;
 2436              		.loc 1 504 31 discriminator 1 view .LVU768
 2437 02bc 01E0     		b	.L186
 2438              	.LVL237:
 2439              	.L198:
 503:Core/Src/main.c ****             if (rt > 3.0f) rt = 3.0f;
 2440              		.loc 1 503 31 discriminator 1 view .LVU769
 2441 02be DFED297A 		vldr.32	s15, .L219+44
 2442              	.LVL238:
 2443              	.L186:
 505:Core/Src/main.c ****             
 2444              		.loc 1 505 13 is_stmt 1 view .LVU770
 505:Core/Src/main.c ****             
 2445              		.loc 1 505 37 is_stmt 0 view .LVU771
ARM GAS  C:\Users\naoki\AppData\Local\Temp\ccZXKLPf.s 			page 60


 2446 02c2 2049     		ldr	r1, .L219+12
 2447              	.LVL239:
 505:Core/Src/main.c ****             
 2448              		.loc 1 505 37 view .LVU772
 2449 02c4 03EBC302 		add	r2, r3, r3, lsl #3
 2450 02c8 01EB8202 		add	r2, r1, r2, lsl #2
 2451 02cc C2ED057A 		vstr.32	s15, [r2, #20]
 505:Core/Src/main.c ****             
 2452              		.loc 1 505 43 is_stmt 1 view .LVU773
 505:Core/Src/main.c ****             
 2453              		.loc 1 505 69 is_stmt 0 view .LVU774
 2454 02d0 C2ED067A 		vstr.32	s15, [r2, #24]
 507:Core/Src/main.c ****             float btm = (float)data[5] / 100.0f;
 2455              		.loc 1 507 13 is_stmt 1 view .LVU775
 507:Core/Src/main.c ****             float btm = (float)data[5] / 100.0f;
 2456              		.loc 1 507 36 is_stmt 0 view .LVU776
 2457 02d4 90F804C0 		ldrb	ip, [r0, #4]	@ zero_extendqisi2
 2458 02d8 07EE90CA 		vmov	s15, ip	@ int
 2459              	.LVL240:
 507:Core/Src/main.c ****             float btm = (float)data[5] / 100.0f;
 2460              		.loc 1 507 25 view .LVU777
 2461 02dc F8EE677A 		vcvt.f32.u32	s15, s15
 507:Core/Src/main.c ****             float btm = (float)data[5] / 100.0f;
 2462              		.loc 1 507 19 view .LVU778
 2463 02e0 9FED217A 		vldr.32	s14, .L219+48
 2464 02e4 87EE876A 		vdiv.f32	s12, s15, s14
 2465              	.LVL241:
 508:Core/Src/main.c ****             key_states[id].top_deadzone = top;
 2466              		.loc 1 508 13 is_stmt 1 view .LVU779
 508:Core/Src/main.c ****             key_states[id].top_deadzone = top;
 2467              		.loc 1 508 36 is_stmt 0 view .LVU780
 2468 02e8 4079     		ldrb	r0, [r0, #5]	@ zero_extendqisi2
 2469              	.LVL242:
 508:Core/Src/main.c ****             key_states[id].top_deadzone = top;
 2470              		.loc 1 508 36 view .LVU781
 2471 02ea 07EE900A 		vmov	s15, r0	@ int
 508:Core/Src/main.c ****             key_states[id].top_deadzone = top;
 2472              		.loc 1 508 25 view .LVU782
 2473 02ee F8EE677A 		vcvt.f32.u32	s15, s15
 508:Core/Src/main.c ****             key_states[id].top_deadzone = top;
 2474              		.loc 1 508 19 view .LVU783
 2475 02f2 C7EE876A 		vdiv.f32	s13, s15, s14
 2476              	.LVL243:
 509:Core/Src/main.c ****             key_states[id].bottom_deadzone = btm;
 2477              		.loc 1 509 13 is_stmt 1 view .LVU784
 509:Core/Src/main.c ****             key_states[id].bottom_deadzone = btm;
 2478              		.loc 1 509 41 is_stmt 0 view .LVU785
 2479 02f6 82ED076A 		vstr.32	s12, [r2, #28]
 510:Core/Src/main.c ****         }
 2480              		.loc 1 510 13 is_stmt 1 view .LVU786
 510:Core/Src/main.c ****         }
 2481              		.loc 1 510 44 is_stmt 0 view .LVU787
 2482 02fa C2ED086A 		vstr.32	s13, [r2, #32]
 2483 02fe 26E7     		b	.L163
 2484              	.LVL244:
 2485              	.L205:
 510:Core/Src/main.c ****         }
ARM GAS  C:\Users\naoki\AppData\Local\Temp\ccZXKLPf.s 			page 61


 2486              		.loc 1 510 44 view .LVU788
 2487              	.LBE38:
 2488              	.LBE37:
 513:Core/Src/main.c ****     else if (cmd == CMD_SET_MAPPING) { 
 2489              		.loc 1 513 37 is_stmt 1 discriminator 1 view .LVU789
 513:Core/Src/main.c ****     else if (cmd == CMD_SET_MAPPING) { 
 2490              		.loc 1 513 49 is_stmt 0 discriminator 1 view .LVU790
 2491 0300 4278     		ldrb	r2, [r0, #1]	@ zero_extendqisi2
 2492 0302 154B     		ldr	r3, .L219+32
 2493              	.LVL245:
 513:Core/Src/main.c ****     else if (cmd == CMD_SET_MAPPING) { 
 2494              		.loc 1 513 49 discriminator 1 view .LVU791
 2495 0304 1A70     		strb	r2, [r3]
 2496              	.LVL246:
 513:Core/Src/main.c ****     else if (cmd == CMD_SET_MAPPING) { 
 2497              		.loc 1 513 49 discriminator 1 view .LVU792
 2498 0306 22E7     		b	.L163
 2499              	.LVL247:
 2500              	.L206:
 2501              	.LBB39:
 515:Core/Src/main.c ****         uint8_t btn = data[2];
 2502              		.loc 1 515 9 is_stmt 1 view .LVU793
 515:Core/Src/main.c ****         uint8_t btn = data[2];
 2503              		.loc 1 515 17 is_stmt 0 view .LVU794
 2504 0308 4378     		ldrb	r3, [r0, #1]	@ zero_extendqisi2
 2505              	.LVL248:
 516:Core/Src/main.c ****         if (id < KEY_COUNT) key_map[id] = btn;
 2506              		.loc 1 516 9 is_stmt 1 view .LVU795
 516:Core/Src/main.c ****         if (id < KEY_COUNT) key_map[id] = btn;
 2507              		.loc 1 516 17 is_stmt 0 view .LVU796
 2508 030a 8278     		ldrb	r2, [r0, #2]	@ zero_extendqisi2
 2509              	.LVL249:
 517:Core/Src/main.c ****     }
 2510              		.loc 1 517 9 is_stmt 1 view .LVU797
 517:Core/Src/main.c ****     }
 2511              		.loc 1 517 12 is_stmt 0 view .LVU798
 2512 030c 132B     		cmp	r3, #19
 2513 030e 3FF61EAF 		bhi	.L163
 517:Core/Src/main.c ****     }
 2514              		.loc 1 517 29 is_stmt 1 discriminator 1 view .LVU799
 517:Core/Src/main.c ****     }
 2515              		.loc 1 517 41 is_stmt 0 discriminator 1 view .LVU800
 2516 0312 1249     		ldr	r1, .L219+36
 2517              	.LVL250:
 517:Core/Src/main.c ****     }
 2518              		.loc 1 517 41 discriminator 1 view .LVU801
 2519 0314 CA54     		strb	r2, [r1, r3]
 2520              	.LVL251:
 517:Core/Src/main.c ****     }
 2521              		.loc 1 517 41 discriminator 1 view .LVU802
 2522 0316 1AE7     		b	.L163
 2523              	.LVL252:
 2524              	.L207:
 517:Core/Src/main.c ****     }
 2525              		.loc 1 517 41 discriminator 1 view .LVU803
 2526              	.LBE39:
 519:Core/Src/main.c ****     else if (cmd == CMD_SAVE_SETTINGS) { g_req_save = true; }
ARM GAS  C:\Users\naoki\AppData\Local\Temp\ccZXKLPf.s 			page 62


 2527              		.loc 1 519 38 is_stmt 1 discriminator 1 view .LVU804
 519:Core/Src/main.c ****     else if (cmd == CMD_SAVE_SETTINGS) { g_req_save = true; }
 2528              		.loc 1 519 54 is_stmt 0 discriminator 1 view .LVU805
 2529 0318 144B     		ldr	r3, .L219+52
 2530              	.LVL253:
 519:Core/Src/main.c ****     else if (cmd == CMD_SAVE_SETTINGS) { g_req_save = true; }
 2531              		.loc 1 519 54 discriminator 1 view .LVU806
 2532 031a 0122     		movs	r2, #1
 2533 031c 1A70     		strb	r2, [r3]
 2534              	.LVL254:
 519:Core/Src/main.c ****     else if (cmd == CMD_SAVE_SETTINGS) { g_req_save = true; }
 2535              		.loc 1 519 54 discriminator 1 view .LVU807
 2536 031e 16E7     		b	.L163
 2537              	.LVL255:
 2538              	.L208:
 520:Core/Src/main.c ****     else if (cmd == CMD_STOP_INPUT) { g_input_enabled = (data[1] == 1); }
 2539              		.loc 1 520 42 is_stmt 1 discriminator 1 view .LVU808
 520:Core/Src/main.c ****     else if (cmd == CMD_STOP_INPUT) { g_input_enabled = (data[1] == 1); }
 2540              		.loc 1 520 53 is_stmt 0 discriminator 1 view .LVU809
 2541 0320 134B     		ldr	r3, .L219+56
 2542              	.LVL256:
 520:Core/Src/main.c ****     else if (cmd == CMD_STOP_INPUT) { g_input_enabled = (data[1] == 1); }
 2543              		.loc 1 520 53 discriminator 1 view .LVU810
 2544 0322 0122     		movs	r2, #1
 2545 0324 1A70     		strb	r2, [r3]
 2546              	.LVL257:
 520:Core/Src/main.c ****     else if (cmd == CMD_STOP_INPUT) { g_input_enabled = (data[1] == 1); }
 2547              		.loc 1 520 53 discriminator 1 view .LVU811
 2548 0326 12E7     		b	.L163
 2549              	.LVL258:
 2550              	.L209:
 521:Core/Src/main.c ****     else if (cmd == CMD_SET_COMBO) {
 2551              		.loc 1 521 39 is_stmt 1 discriminator 1 view .LVU812
 521:Core/Src/main.c ****     else if (cmd == CMD_SET_COMBO) {
 2552              		.loc 1 521 62 is_stmt 0 discriminator 1 view .LVU813
 2553 0328 4378     		ldrb	r3, [r0, #1]	@ zero_extendqisi2
 2554              	.LVL259:
 521:Core/Src/main.c ****     else if (cmd == CMD_SET_COMBO) {
 2555              		.loc 1 521 5 discriminator 1 view .LVU814
 2556 032a 012B     		cmp	r3, #1
 2557 032c 14BF     		ite	ne
 2558 032e 0023     		movne	r3, #0
 2559 0330 0123     		moveq	r3, #1
 521:Core/Src/main.c ****     else if (cmd == CMD_SET_COMBO) {
 2560              		.loc 1 521 55 discriminator 1 view .LVU815
 2561 0332 104A     		ldr	r2, .L219+60
 2562 0334 1370     		strb	r3, [r2]
 2563              	.LVL260:
 521:Core/Src/main.c ****     else if (cmd == CMD_SET_COMBO) {
 2564              		.loc 1 521 55 discriminator 1 view .LVU816
 2565 0336 0AE7     		b	.L163
 2566              	.L220:
 2567              		.align	2
 2568              	.L219:
 2569 0338 00000000 		.word	g_combos
 2570 033c 00000000 		.word	tx.2
 2571 0340 00007F43 		.word	1132396544
ARM GAS  C:\Users\naoki\AppData\Local\Temp\ccZXKLPf.s 			page 63


 2572 0344 00000000 		.word	key_states
 2573 0348 CDCC4C40 		.word	1078774989
 2574 034c 00000000 		.word	0
 2575 0350 00000000 		.word	hUsbDeviceFS
 2576 0354 00000000 		.word	tx.1
 2577 0358 00000000 		.word	g_socd_mode
 2578 035c 00000000 		.word	key_map
 2579 0360 00000000 		.word	tx.0
 2580 0364 CDCCCC3D 		.word	1036831949
 2581 0368 0000C842 		.word	1120403456
 2582 036c 00000000 		.word	g_req_calibrate
 2583 0370 00000000 		.word	g_req_save
 2584 0374 00000000 		.word	g_input_enabled
 2585              		.cfi_endproc
 2586              	.LFE142:
 2588              		.section	.text.Error_Handler,"ax",%progbits
 2589              		.align	1
 2590              		.global	Error_Handler
 2591              		.syntax unified
 2592              		.thumb
 2593              		.thumb_func
 2595              	Error_Handler:
 2596              	.LFB145:
 531:Core/Src/main.c **** 
 532:Core/Src/main.c **** // --- Main ---
 533:Core/Src/main.c **** int main(void) {
 534:Core/Src/main.c ****     HAL_Init();
 535:Core/Src/main.c ****     SystemClock_Config();
 536:Core/Src/main.c ****     MX_GPIO_Init();
 537:Core/Src/main.c ****     MX_ADC2_Init();
 538:Core/Src/main.c ****     MX_ADC3_Init();
 539:Core/Src/main.c ****     MX_ADC4_Init();
 540:Core/Src/main.c ****     
 541:Core/Src/main.c ****     HAL_Delay(100);
 542:Core/Src/main.c ****     scan_all_keys_fast(adc_raw_values);
 543:Core/Src/main.c ****     
 544:Core/Src/main.c ****     int diff_up_down = abs((int)adc_raw_values[18] - (int)adc_raw_values[1]);
 545:Core/Src/main.c ****     
 546:Core/Src/main.c ****     if (diff_up_down > 500) { 
 547:Core/Src/main.c ****         g_boot_mode = 1; 
 548:Core/Src/main.c ****         
 549:Core/Src/main.c ****         uint32_t start_tick = HAL_GetTick();
 550:Core/Src/main.c ****         while ((HAL_GetTick() - start_tick) < 5000) { 
 551:Core/Src/main.c ****             scan_all_keys_fast(adc_raw_values);
 552:Core/Src/main.c ****             int current_diff = abs((int)adc_raw_values[18] - (int)adc_raw_values[1]);
 553:Core/Src/main.c ****             if (current_diff < 300) { 
 554:Core/Src/main.c ****                 break;
 555:Core/Src/main.c ****             }
 556:Core/Src/main.c ****             HAL_Delay(10);
 557:Core/Src/main.c ****         }
 558:Core/Src/main.c ****         HAL_Delay(500);
 559:Core/Src/main.c ****         
 560:Core/Src/main.c ****     } else { 
 561:Core/Src/main.c ****         g_boot_mode = 0; 
 562:Core/Src/main.c ****     }
 563:Core/Src/main.c **** 
 564:Core/Src/main.c ****     Setup_Keys(); 
ARM GAS  C:\Users\naoki\AppData\Local\Temp\ccZXKLPf.s 			page 64


 565:Core/Src/main.c ****     Load_Config();
 566:Core/Src/main.c **** 
 567:Core/Src/main.c ****     MX_USB_DEVICE_Init();
 568:Core/Src/main.c ****     
 569:Core/Src/main.c ****     while (1) {
 570:Core/Src/main.c ****         if (g_req_calibrate) { HAL_Delay(100); Setup_Keys(); g_req_calibrate = false; }
 571:Core/Src/main.c ****         if (g_req_save) { Save_Config(); g_req_save = false; }
 572:Core/Src/main.c **** 
 573:Core/Src/main.c ****         scan_all_keys_fast(adc_raw_values);
 574:Core/Src/main.c ****         for(int i=0; i<KEY_COUNT; i++) Process_Rapid_Trigger(i, adc_raw_values[i]);
 575:Core/Src/main.c **** 
 576:Core/Src/main.c ****         if (g_boot_mode == 0) Send_Reports();
 577:Core/Src/main.c ****     }
 578:Core/Src/main.c **** }
 579:Core/Src/main.c **** 
 580:Core/Src/main.c **** void SystemClock_Config(void) {
 581:Core/Src/main.c ****   RCC_OscInitTypeDef RCC_OscInitStruct = {0};
 582:Core/Src/main.c ****   RCC_ClkInitTypeDef RCC_ClkInitStruct = {0};
 583:Core/Src/main.c ****   RCC_PeriphCLKInitTypeDef PeriphClkInit = {0};
 584:Core/Src/main.c ****   RCC_OscInitStruct.OscillatorType = RCC_OSCILLATORTYPE_HSE;
 585:Core/Src/main.c ****   RCC_OscInitStruct.HSEState = RCC_HSE_ON;
 586:Core/Src/main.c ****   RCC_OscInitStruct.HSEPredivValue = RCC_HSE_PREDIV_DIV2; 
 587:Core/Src/main.c ****   RCC_OscInitStruct.HSIState = RCC_HSI_ON;
 588:Core/Src/main.c ****   RCC_OscInitStruct.PLL.PLLState = RCC_PLL_ON;
 589:Core/Src/main.c ****   RCC_OscInitStruct.PLL.PLLSource = RCC_PLLSOURCE_HSE;
 590:Core/Src/main.c ****   RCC_OscInitStruct.PLL.PLLMUL = RCC_PLL_MUL9; 
 591:Core/Src/main.c ****   if (HAL_RCC_OscConfig(&RCC_OscInitStruct) != HAL_OK) Error_Handler();
 592:Core/Src/main.c ****   RCC_ClkInitStruct.ClockType = RCC_CLOCKTYPE_HCLK|RCC_CLOCKTYPE_SYSCLK|RCC_CLOCKTYPE_PCLK1|RCC_CLO
 593:Core/Src/main.c ****   RCC_ClkInitStruct.SYSCLKSource = RCC_SYSCLKSOURCE_PLLCLK;
 594:Core/Src/main.c ****   RCC_ClkInitStruct.AHBCLKDivider = RCC_SYSCLK_DIV1;
 595:Core/Src/main.c ****   RCC_ClkInitStruct.APB1CLKDivider = RCC_HCLK_DIV2;
 596:Core/Src/main.c ****   RCC_ClkInitStruct.APB2CLKDivider = RCC_HCLK_DIV1;
 597:Core/Src/main.c ****   if (HAL_RCC_ClockConfig(&RCC_ClkInitStruct, FLASH_LATENCY_2) != HAL_OK) Error_Handler();
 598:Core/Src/main.c ****   PeriphClkInit.PeriphClockSelection = RCC_PERIPHCLK_USB|RCC_PERIPHCLK_ADC12|RCC_PERIPHCLK_ADC34;
 599:Core/Src/main.c ****   PeriphClkInit.Adc12ClockSelection = RCC_ADC12PLLCLK_DIV1;
 600:Core/Src/main.c ****   PeriphClkInit.Adc34ClockSelection = RCC_ADC34PLLCLK_DIV1;
 601:Core/Src/main.c ****   PeriphClkInit.USBClockSelection = RCC_USBCLKSOURCE_PLL_DIV1_5; 
 602:Core/Src/main.c ****   if (HAL_RCCEx_PeriphCLKConfig(&PeriphClkInit) != HAL_OK) Error_Handler();
 603:Core/Src/main.c **** }
 604:Core/Src/main.c **** void Error_Handler(void) { __disable_irq(); while (1) { } }...
 2597              		.loc 1 604 26 is_stmt 1 view -0
 2598              		.cfi_startproc
 2599              		@ Volatile: function does not return.
 2600              		@ args = 0, pretend = 0, frame = 0
 2601              		@ frame_needed = 0, uses_anonymous_args = 0
 2602              		@ link register save eliminated.
 2603              		.loc 1 604 28 view .LVU818
 2604              	.LBB40:
 2605              	.LBI40:
 2606              		.file 2 "Drivers/CMSIS/Include/cmsis_gcc.h"
   1:Drivers/CMSIS/Include/cmsis_gcc.h **** /**************************************************************************//**
   2:Drivers/CMSIS/Include/cmsis_gcc.h ****  * @file     cmsis_gcc.h
   3:Drivers/CMSIS/Include/cmsis_gcc.h ****  * @brief    CMSIS compiler GCC header file
   4:Drivers/CMSIS/Include/cmsis_gcc.h ****  * @version  V5.0.4
   5:Drivers/CMSIS/Include/cmsis_gcc.h ****  * @date     09. April 2018
   6:Drivers/CMSIS/Include/cmsis_gcc.h ****  ******************************************************************************/
   7:Drivers/CMSIS/Include/cmsis_gcc.h **** /*
ARM GAS  C:\Users\naoki\AppData\Local\Temp\ccZXKLPf.s 			page 65


   8:Drivers/CMSIS/Include/cmsis_gcc.h ****  * Copyright (c) 2009-2018 Arm Limited. All rights reserved.
   9:Drivers/CMSIS/Include/cmsis_gcc.h ****  *
  10:Drivers/CMSIS/Include/cmsis_gcc.h ****  * SPDX-License-Identifier: Apache-2.0
  11:Drivers/CMSIS/Include/cmsis_gcc.h ****  *
  12:Drivers/CMSIS/Include/cmsis_gcc.h ****  * Licensed under the Apache License, Version 2.0 (the License); you may
  13:Drivers/CMSIS/Include/cmsis_gcc.h ****  * not use this file except in compliance with the License.
  14:Drivers/CMSIS/Include/cmsis_gcc.h ****  * You may obtain a copy of the License at
  15:Drivers/CMSIS/Include/cmsis_gcc.h ****  *
  16:Drivers/CMSIS/Include/cmsis_gcc.h ****  * www.apache.org/licenses/LICENSE-2.0
  17:Drivers/CMSIS/Include/cmsis_gcc.h ****  *
  18:Drivers/CMSIS/Include/cmsis_gcc.h ****  * Unless required by applicable law or agreed to in writing, software
  19:Drivers/CMSIS/Include/cmsis_gcc.h ****  * distributed under the License is distributed on an AS IS BASIS, WITHOUT
  20:Drivers/CMSIS/Include/cmsis_gcc.h ****  * WARRANTIES OR CONDITIONS OF ANY KIND, either express or implied.
  21:Drivers/CMSIS/Include/cmsis_gcc.h ****  * See the License for the specific language governing permissions and
  22:Drivers/CMSIS/Include/cmsis_gcc.h ****  * limitations under the License.
  23:Drivers/CMSIS/Include/cmsis_gcc.h ****  */
  24:Drivers/CMSIS/Include/cmsis_gcc.h **** 
  25:Drivers/CMSIS/Include/cmsis_gcc.h **** #ifndef __CMSIS_GCC_H
  26:Drivers/CMSIS/Include/cmsis_gcc.h **** #define __CMSIS_GCC_H
  27:Drivers/CMSIS/Include/cmsis_gcc.h **** 
  28:Drivers/CMSIS/Include/cmsis_gcc.h **** /* ignore some GCC warnings */
  29:Drivers/CMSIS/Include/cmsis_gcc.h **** #pragma GCC diagnostic push
  30:Drivers/CMSIS/Include/cmsis_gcc.h **** #pragma GCC diagnostic ignored "-Wsign-conversion"
  31:Drivers/CMSIS/Include/cmsis_gcc.h **** #pragma GCC diagnostic ignored "-Wconversion"
  32:Drivers/CMSIS/Include/cmsis_gcc.h **** #pragma GCC diagnostic ignored "-Wunused-parameter"
  33:Drivers/CMSIS/Include/cmsis_gcc.h **** 
  34:Drivers/CMSIS/Include/cmsis_gcc.h **** /* Fallback for __has_builtin */
  35:Drivers/CMSIS/Include/cmsis_gcc.h **** #ifndef __has_builtin
  36:Drivers/CMSIS/Include/cmsis_gcc.h ****   #define __has_builtin(x) (0)
  37:Drivers/CMSIS/Include/cmsis_gcc.h **** #endif
  38:Drivers/CMSIS/Include/cmsis_gcc.h **** 
  39:Drivers/CMSIS/Include/cmsis_gcc.h **** /* CMSIS compiler specific defines */
  40:Drivers/CMSIS/Include/cmsis_gcc.h **** #ifndef   __ASM
  41:Drivers/CMSIS/Include/cmsis_gcc.h ****   #define __ASM                                  __asm
  42:Drivers/CMSIS/Include/cmsis_gcc.h **** #endif
  43:Drivers/CMSIS/Include/cmsis_gcc.h **** #ifndef   __INLINE
  44:Drivers/CMSIS/Include/cmsis_gcc.h ****   #define __INLINE                               inline
  45:Drivers/CMSIS/Include/cmsis_gcc.h **** #endif
  46:Drivers/CMSIS/Include/cmsis_gcc.h **** #ifndef   __STATIC_INLINE
  47:Drivers/CMSIS/Include/cmsis_gcc.h ****   #define __STATIC_INLINE                        static inline
  48:Drivers/CMSIS/Include/cmsis_gcc.h **** #endif
  49:Drivers/CMSIS/Include/cmsis_gcc.h **** #ifndef   __STATIC_FORCEINLINE                 
  50:Drivers/CMSIS/Include/cmsis_gcc.h ****   #define __STATIC_FORCEINLINE                   __attribute__((always_inline)) static inline
  51:Drivers/CMSIS/Include/cmsis_gcc.h **** #endif                                           
  52:Drivers/CMSIS/Include/cmsis_gcc.h **** #ifndef   __NO_RETURN
  53:Drivers/CMSIS/Include/cmsis_gcc.h ****   #define __NO_RETURN                            __attribute__((__noreturn__))
  54:Drivers/CMSIS/Include/cmsis_gcc.h **** #endif
  55:Drivers/CMSIS/Include/cmsis_gcc.h **** #ifndef   __USED
  56:Drivers/CMSIS/Include/cmsis_gcc.h ****   #define __USED                                 __attribute__((used))
  57:Drivers/CMSIS/Include/cmsis_gcc.h **** #endif
  58:Drivers/CMSIS/Include/cmsis_gcc.h **** #ifndef   __WEAK
  59:Drivers/CMSIS/Include/cmsis_gcc.h ****   #define __WEAK                                 __attribute__((weak))
  60:Drivers/CMSIS/Include/cmsis_gcc.h **** #endif
  61:Drivers/CMSIS/Include/cmsis_gcc.h **** #ifndef   __PACKED
  62:Drivers/CMSIS/Include/cmsis_gcc.h ****   #define __PACKED                               __attribute__((packed, aligned(1)))
  63:Drivers/CMSIS/Include/cmsis_gcc.h **** #endif
  64:Drivers/CMSIS/Include/cmsis_gcc.h **** #ifndef   __PACKED_STRUCT
ARM GAS  C:\Users\naoki\AppData\Local\Temp\ccZXKLPf.s 			page 66


  65:Drivers/CMSIS/Include/cmsis_gcc.h ****   #define __PACKED_STRUCT                        struct __attribute__((packed, aligned(1)))
  66:Drivers/CMSIS/Include/cmsis_gcc.h **** #endif
  67:Drivers/CMSIS/Include/cmsis_gcc.h **** #ifndef   __PACKED_UNION
  68:Drivers/CMSIS/Include/cmsis_gcc.h ****   #define __PACKED_UNION                         union __attribute__((packed, aligned(1)))
  69:Drivers/CMSIS/Include/cmsis_gcc.h **** #endif
  70:Drivers/CMSIS/Include/cmsis_gcc.h **** #ifndef   __UNALIGNED_UINT32        /* deprecated */
  71:Drivers/CMSIS/Include/cmsis_gcc.h ****   #pragma GCC diagnostic push
  72:Drivers/CMSIS/Include/cmsis_gcc.h ****   #pragma GCC diagnostic ignored "-Wpacked"
  73:Drivers/CMSIS/Include/cmsis_gcc.h ****   #pragma GCC diagnostic ignored "-Wattributes"
  74:Drivers/CMSIS/Include/cmsis_gcc.h ****   struct __attribute__((packed)) T_UINT32 { uint32_t v; };
  75:Drivers/CMSIS/Include/cmsis_gcc.h ****   #pragma GCC diagnostic pop
  76:Drivers/CMSIS/Include/cmsis_gcc.h ****   #define __UNALIGNED_UINT32(x)                  (((struct T_UINT32 *)(x))->v)
  77:Drivers/CMSIS/Include/cmsis_gcc.h **** #endif
  78:Drivers/CMSIS/Include/cmsis_gcc.h **** #ifndef   __UNALIGNED_UINT16_WRITE
  79:Drivers/CMSIS/Include/cmsis_gcc.h ****   #pragma GCC diagnostic push
  80:Drivers/CMSIS/Include/cmsis_gcc.h ****   #pragma GCC diagnostic ignored "-Wpacked"
  81:Drivers/CMSIS/Include/cmsis_gcc.h ****   #pragma GCC diagnostic ignored "-Wattributes"
  82:Drivers/CMSIS/Include/cmsis_gcc.h ****   __PACKED_STRUCT T_UINT16_WRITE { uint16_t v; };
  83:Drivers/CMSIS/Include/cmsis_gcc.h ****   #pragma GCC diagnostic pop
  84:Drivers/CMSIS/Include/cmsis_gcc.h ****   #define __UNALIGNED_UINT16_WRITE(addr, val)    (void)((((struct T_UINT16_WRITE *)(void *)(addr))-
  85:Drivers/CMSIS/Include/cmsis_gcc.h **** #endif
  86:Drivers/CMSIS/Include/cmsis_gcc.h **** #ifndef   __UNALIGNED_UINT16_READ
  87:Drivers/CMSIS/Include/cmsis_gcc.h ****   #pragma GCC diagnostic push
  88:Drivers/CMSIS/Include/cmsis_gcc.h ****   #pragma GCC diagnostic ignored "-Wpacked"
  89:Drivers/CMSIS/Include/cmsis_gcc.h ****   #pragma GCC diagnostic ignored "-Wattributes"
  90:Drivers/CMSIS/Include/cmsis_gcc.h ****   __PACKED_STRUCT T_UINT16_READ { uint16_t v; };
  91:Drivers/CMSIS/Include/cmsis_gcc.h ****   #pragma GCC diagnostic pop
  92:Drivers/CMSIS/Include/cmsis_gcc.h ****   #define __UNALIGNED_UINT16_READ(addr)          (((const struct T_UINT16_READ *)(const void *)(add
  93:Drivers/CMSIS/Include/cmsis_gcc.h **** #endif
  94:Drivers/CMSIS/Include/cmsis_gcc.h **** #ifndef   __UNALIGNED_UINT32_WRITE
  95:Drivers/CMSIS/Include/cmsis_gcc.h ****   #pragma GCC diagnostic push
  96:Drivers/CMSIS/Include/cmsis_gcc.h ****   #pragma GCC diagnostic ignored "-Wpacked"
  97:Drivers/CMSIS/Include/cmsis_gcc.h ****   #pragma GCC diagnostic ignored "-Wattributes"
  98:Drivers/CMSIS/Include/cmsis_gcc.h ****   __PACKED_STRUCT T_UINT32_WRITE { uint32_t v; };
  99:Drivers/CMSIS/Include/cmsis_gcc.h ****   #pragma GCC diagnostic pop
 100:Drivers/CMSIS/Include/cmsis_gcc.h ****   #define __UNALIGNED_UINT32_WRITE(addr, val)    (void)((((struct T_UINT32_WRITE *)(void *)(addr))-
 101:Drivers/CMSIS/Include/cmsis_gcc.h **** #endif
 102:Drivers/CMSIS/Include/cmsis_gcc.h **** #ifndef   __UNALIGNED_UINT32_READ
 103:Drivers/CMSIS/Include/cmsis_gcc.h ****   #pragma GCC diagnostic push
 104:Drivers/CMSIS/Include/cmsis_gcc.h ****   #pragma GCC diagnostic ignored "-Wpacked"
 105:Drivers/CMSIS/Include/cmsis_gcc.h ****   #pragma GCC diagnostic ignored "-Wattributes"
 106:Drivers/CMSIS/Include/cmsis_gcc.h ****   __PACKED_STRUCT T_UINT32_READ { uint32_t v; };
 107:Drivers/CMSIS/Include/cmsis_gcc.h ****   #pragma GCC diagnostic pop
 108:Drivers/CMSIS/Include/cmsis_gcc.h ****   #define __UNALIGNED_UINT32_READ(addr)          (((const struct T_UINT32_READ *)(const void *)(add
 109:Drivers/CMSIS/Include/cmsis_gcc.h **** #endif
 110:Drivers/CMSIS/Include/cmsis_gcc.h **** #ifndef   __ALIGNED
 111:Drivers/CMSIS/Include/cmsis_gcc.h ****   #define __ALIGNED(x)                           __attribute__((aligned(x)))
 112:Drivers/CMSIS/Include/cmsis_gcc.h **** #endif
 113:Drivers/CMSIS/Include/cmsis_gcc.h **** #ifndef   __RESTRICT
 114:Drivers/CMSIS/Include/cmsis_gcc.h ****   #define __RESTRICT                             __restrict
 115:Drivers/CMSIS/Include/cmsis_gcc.h **** #endif
 116:Drivers/CMSIS/Include/cmsis_gcc.h **** 
 117:Drivers/CMSIS/Include/cmsis_gcc.h **** 
 118:Drivers/CMSIS/Include/cmsis_gcc.h **** /* ###########################  Core Function Access  ########################### */
 119:Drivers/CMSIS/Include/cmsis_gcc.h **** /** \ingroup  CMSIS_Core_FunctionInterface
 120:Drivers/CMSIS/Include/cmsis_gcc.h ****     \defgroup CMSIS_Core_RegAccFunctions CMSIS Core Register Access Functions
 121:Drivers/CMSIS/Include/cmsis_gcc.h ****   @{
ARM GAS  C:\Users\naoki\AppData\Local\Temp\ccZXKLPf.s 			page 67


 122:Drivers/CMSIS/Include/cmsis_gcc.h ****  */
 123:Drivers/CMSIS/Include/cmsis_gcc.h **** 
 124:Drivers/CMSIS/Include/cmsis_gcc.h **** /**
 125:Drivers/CMSIS/Include/cmsis_gcc.h ****   \brief   Enable IRQ Interrupts
 126:Drivers/CMSIS/Include/cmsis_gcc.h ****   \details Enables IRQ interrupts by clearing the I-bit in the CPSR.
 127:Drivers/CMSIS/Include/cmsis_gcc.h ****            Can only be executed in Privileged modes.
 128:Drivers/CMSIS/Include/cmsis_gcc.h ****  */
 129:Drivers/CMSIS/Include/cmsis_gcc.h **** __STATIC_FORCEINLINE void __enable_irq(void)
 130:Drivers/CMSIS/Include/cmsis_gcc.h **** {
 131:Drivers/CMSIS/Include/cmsis_gcc.h ****   __ASM volatile ("cpsie i" : : : "memory");
 132:Drivers/CMSIS/Include/cmsis_gcc.h **** }
 133:Drivers/CMSIS/Include/cmsis_gcc.h **** 
 134:Drivers/CMSIS/Include/cmsis_gcc.h **** 
 135:Drivers/CMSIS/Include/cmsis_gcc.h **** /**
 136:Drivers/CMSIS/Include/cmsis_gcc.h ****   \brief   Disable IRQ Interrupts
 137:Drivers/CMSIS/Include/cmsis_gcc.h ****   \details Disables IRQ interrupts by setting the I-bit in the CPSR.
 138:Drivers/CMSIS/Include/cmsis_gcc.h ****            Can only be executed in Privileged modes.
 139:Drivers/CMSIS/Include/cmsis_gcc.h ****  */
 140:Drivers/CMSIS/Include/cmsis_gcc.h **** __STATIC_FORCEINLINE void __disable_irq(void)
 2607              		.loc 2 140 27 view .LVU819
 2608              	.LBB41:
 141:Drivers/CMSIS/Include/cmsis_gcc.h **** {
 142:Drivers/CMSIS/Include/cmsis_gcc.h ****   __ASM volatile ("cpsid i" : : : "memory");
 2609              		.loc 2 142 3 view .LVU820
 2610              		.syntax unified
 2611              	@ 142 "Drivers/CMSIS/Include/cmsis_gcc.h" 1
 2612 0000 72B6     		cpsid i
 2613              	@ 0 "" 2
 2614              		.thumb
 2615              		.syntax unified
 2616              	.L222:
 2617              	.LBE41:
 2618              	.LBE40:
 2619              		.loc 1 604 45 view .LVU821
 2620              		.loc 1 604 57 view .LVU822
 2621              		.loc 1 604 51 view .LVU823
 2622 0002 FEE7     		b	.L222
 2623              		.cfi_endproc
 2624              	.LFE145:
 2626              		.section	.text.SystemClock_Config,"ax",%progbits
 2627              		.align	1
 2628              		.global	SystemClock_Config
 2629              		.syntax unified
 2630              		.thumb
 2631              		.thumb_func
 2633              	SystemClock_Config:
 2634              	.LFB144:
 580:Core/Src/main.c **** void SystemClock_Config(void) {
 2635              		.loc 1 580 31 view -0
 2636              		.cfi_startproc
 2637              		@ args = 0, pretend = 0, frame = 120
 2638              		@ frame_needed = 0, uses_anonymous_args = 0
 2639 0000 10B5     		push	{r4, lr}
 2640              	.LCFI15:
 2641              		.cfi_def_cfa_offset 8
 2642              		.cfi_offset 4, -8
 2643              		.cfi_offset 14, -4
ARM GAS  C:\Users\naoki\AppData\Local\Temp\ccZXKLPf.s 			page 68


 2644 0002 9EB0     		sub	sp, sp, #120
 2645              	.LCFI16:
 2646              		.cfi_def_cfa_offset 128
 581:Core/Src/main.c ****   RCC_OscInitTypeDef RCC_OscInitStruct = {0};
 2647              		.loc 1 581 3 view .LVU825
 581:Core/Src/main.c ****   RCC_OscInitTypeDef RCC_OscInitStruct = {0};
 2648              		.loc 1 581 22 is_stmt 0 view .LVU826
 2649 0004 14AC     		add	r4, sp, #80
 2650 0006 2822     		movs	r2, #40
 2651 0008 0021     		movs	r1, #0
 2652 000a 2046     		mov	r0, r4
 2653 000c FFF7FEFF 		bl	memset
 2654              	.LVL261:
 582:Core/Src/main.c ****   RCC_ClkInitTypeDef RCC_ClkInitStruct = {0};
 2655              		.loc 1 582 3 is_stmt 1 view .LVU827
 582:Core/Src/main.c ****   RCC_ClkInitTypeDef RCC_ClkInitStruct = {0};
 2656              		.loc 1 582 22 is_stmt 0 view .LVU828
 2657 0010 0021     		movs	r1, #0
 2658 0012 0F91     		str	r1, [sp, #60]
 2659 0014 1091     		str	r1, [sp, #64]
 2660 0016 1191     		str	r1, [sp, #68]
 2661 0018 1291     		str	r1, [sp, #72]
 2662 001a 1391     		str	r1, [sp, #76]
 583:Core/Src/main.c ****   RCC_PeriphCLKInitTypeDef PeriphClkInit = {0};
 2663              		.loc 1 583 3 is_stmt 1 view .LVU829
 583:Core/Src/main.c ****   RCC_PeriphCLKInitTypeDef PeriphClkInit = {0};
 2664              		.loc 1 583 28 is_stmt 0 view .LVU830
 2665 001c 3C22     		movs	r2, #60
 2666 001e 6846     		mov	r0, sp
 2667 0020 FFF7FEFF 		bl	memset
 2668              	.LVL262:
 584:Core/Src/main.c ****   RCC_OscInitStruct.OscillatorType = RCC_OSCILLATORTYPE_HSE;
 2669              		.loc 1 584 3 is_stmt 1 view .LVU831
 584:Core/Src/main.c ****   RCC_OscInitStruct.OscillatorType = RCC_OSCILLATORTYPE_HSE;
 2670              		.loc 1 584 36 is_stmt 0 view .LVU832
 2671 0024 0123     		movs	r3, #1
 2672 0026 1493     		str	r3, [sp, #80]
 585:Core/Src/main.c ****   RCC_OscInitStruct.HSEState = RCC_HSE_ON;
 2673              		.loc 1 585 3 is_stmt 1 view .LVU833
 585:Core/Src/main.c ****   RCC_OscInitStruct.HSEState = RCC_HSE_ON;
 2674              		.loc 1 585 30 is_stmt 0 view .LVU834
 2675 0028 4FF48032 		mov	r2, #65536
 2676 002c 1592     		str	r2, [sp, #84]
 586:Core/Src/main.c ****   RCC_OscInitStruct.HSEPredivValue = RCC_HSE_PREDIV_DIV2; 
 2677              		.loc 1 586 3 is_stmt 1 view .LVU835
 586:Core/Src/main.c ****   RCC_OscInitStruct.HSEPredivValue = RCC_HSE_PREDIV_DIV2; 
 2678              		.loc 1 586 36 is_stmt 0 view .LVU836
 2679 002e 1693     		str	r3, [sp, #88]
 587:Core/Src/main.c ****   RCC_OscInitStruct.HSIState = RCC_HSI_ON;
 2680              		.loc 1 587 3 is_stmt 1 view .LVU837
 587:Core/Src/main.c ****   RCC_OscInitStruct.HSIState = RCC_HSI_ON;
 2681              		.loc 1 587 30 is_stmt 0 view .LVU838
 2682 0030 1893     		str	r3, [sp, #96]
 588:Core/Src/main.c ****   RCC_OscInitStruct.PLL.PLLState = RCC_PLL_ON;
 2683              		.loc 1 588 3 is_stmt 1 view .LVU839
 588:Core/Src/main.c ****   RCC_OscInitStruct.PLL.PLLState = RCC_PLL_ON;
 2684              		.loc 1 588 34 is_stmt 0 view .LVU840
ARM GAS  C:\Users\naoki\AppData\Local\Temp\ccZXKLPf.s 			page 69


 2685 0032 0223     		movs	r3, #2
 2686 0034 1B93     		str	r3, [sp, #108]
 589:Core/Src/main.c ****   RCC_OscInitStruct.PLL.PLLSource = RCC_PLLSOURCE_HSE;
 2687              		.loc 1 589 3 is_stmt 1 view .LVU841
 589:Core/Src/main.c ****   RCC_OscInitStruct.PLL.PLLSource = RCC_PLLSOURCE_HSE;
 2688              		.loc 1 589 35 is_stmt 0 view .LVU842
 2689 0036 1C92     		str	r2, [sp, #112]
 590:Core/Src/main.c ****   RCC_OscInitStruct.PLL.PLLMUL = RCC_PLL_MUL9; 
 2690              		.loc 1 590 3 is_stmt 1 view .LVU843
 590:Core/Src/main.c ****   RCC_OscInitStruct.PLL.PLLMUL = RCC_PLL_MUL9; 
 2691              		.loc 1 590 32 is_stmt 0 view .LVU844
 2692 0038 4FF4E013 		mov	r3, #1835008
 2693 003c 1D93     		str	r3, [sp, #116]
 591:Core/Src/main.c ****   if (HAL_RCC_OscConfig(&RCC_OscInitStruct) != HAL_OK) Error_Handler();
 2694              		.loc 1 591 3 is_stmt 1 view .LVU845
 591:Core/Src/main.c ****   if (HAL_RCC_OscConfig(&RCC_OscInitStruct) != HAL_OK) Error_Handler();
 2695              		.loc 1 591 7 is_stmt 0 view .LVU846
 2696 003e 2046     		mov	r0, r4
 2697 0040 FFF7FEFF 		bl	HAL_RCC_OscConfig
 2698              	.LVL263:
 591:Core/Src/main.c ****   if (HAL_RCC_OscConfig(&RCC_OscInitStruct) != HAL_OK) Error_Handler();
 2699              		.loc 1 591 6 discriminator 1 view .LVU847
 2700 0044 D8B9     		cbnz	r0, .L228
 592:Core/Src/main.c ****   RCC_ClkInitStruct.ClockType = RCC_CLOCKTYPE_HCLK|RCC_CLOCKTYPE_SYSCLK|RCC_CLOCKTYPE_PCLK1|RCC_CLO
 2701              		.loc 1 592 3 is_stmt 1 view .LVU848
 592:Core/Src/main.c ****   RCC_ClkInitStruct.ClockType = RCC_CLOCKTYPE_HCLK|RCC_CLOCKTYPE_SYSCLK|RCC_CLOCKTYPE_PCLK1|RCC_CLO
 2702              		.loc 1 592 31 is_stmt 0 view .LVU849
 2703 0046 0F23     		movs	r3, #15
 2704 0048 0F93     		str	r3, [sp, #60]
 593:Core/Src/main.c ****   RCC_ClkInitStruct.SYSCLKSource = RCC_SYSCLKSOURCE_PLLCLK;
 2705              		.loc 1 593 3 is_stmt 1 view .LVU850
 593:Core/Src/main.c ****   RCC_ClkInitStruct.SYSCLKSource = RCC_SYSCLKSOURCE_PLLCLK;
 2706              		.loc 1 593 34 is_stmt 0 view .LVU851
 2707 004a 0221     		movs	r1, #2
 2708 004c 1091     		str	r1, [sp, #64]
 594:Core/Src/main.c ****   RCC_ClkInitStruct.AHBCLKDivider = RCC_SYSCLK_DIV1;
 2709              		.loc 1 594 3 is_stmt 1 view .LVU852
 594:Core/Src/main.c ****   RCC_ClkInitStruct.AHBCLKDivider = RCC_SYSCLK_DIV1;
 2710              		.loc 1 594 35 is_stmt 0 view .LVU853
 2711 004e 1190     		str	r0, [sp, #68]
 595:Core/Src/main.c ****   RCC_ClkInitStruct.APB1CLKDivider = RCC_HCLK_DIV2;
 2712              		.loc 1 595 3 is_stmt 1 view .LVU854
 595:Core/Src/main.c ****   RCC_ClkInitStruct.APB1CLKDivider = RCC_HCLK_DIV2;
 2713              		.loc 1 595 36 is_stmt 0 view .LVU855
 2714 0050 4FF48062 		mov	r2, #1024
 2715 0054 1292     		str	r2, [sp, #72]
 596:Core/Src/main.c ****   RCC_ClkInitStruct.APB2CLKDivider = RCC_HCLK_DIV1;
 2716              		.loc 1 596 3 is_stmt 1 view .LVU856
 596:Core/Src/main.c ****   RCC_ClkInitStruct.APB2CLKDivider = RCC_HCLK_DIV1;
 2717              		.loc 1 596 36 is_stmt 0 view .LVU857
 2718 0056 1390     		str	r0, [sp, #76]
 597:Core/Src/main.c ****   if (HAL_RCC_ClockConfig(&RCC_ClkInitStruct, FLASH_LATENCY_2) != HAL_OK) Error_Handler();
 2719              		.loc 1 597 3 is_stmt 1 view .LVU858
 597:Core/Src/main.c ****   if (HAL_RCC_ClockConfig(&RCC_ClkInitStruct, FLASH_LATENCY_2) != HAL_OK) Error_Handler();
 2720              		.loc 1 597 7 is_stmt 0 view .LVU859
 2721 0058 0FA8     		add	r0, sp, #60
 2722 005a FFF7FEFF 		bl	HAL_RCC_ClockConfig
ARM GAS  C:\Users\naoki\AppData\Local\Temp\ccZXKLPf.s 			page 70


 2723              	.LVL264:
 597:Core/Src/main.c ****   if (HAL_RCC_ClockConfig(&RCC_ClkInitStruct, FLASH_LATENCY_2) != HAL_OK) Error_Handler();
 2724              		.loc 1 597 6 discriminator 1 view .LVU860
 2725 005e 80B9     		cbnz	r0, .L229
 598:Core/Src/main.c ****   PeriphClkInit.PeriphClockSelection = RCC_PERIPHCLK_USB|RCC_PERIPHCLK_ADC12|RCC_PERIPHCLK_ADC34;
 2726              		.loc 1 598 3 is_stmt 1 view .LVU861
 598:Core/Src/main.c ****   PeriphClkInit.PeriphClockSelection = RCC_PERIPHCLK_USB|RCC_PERIPHCLK_ADC12|RCC_PERIPHCLK_ADC34;
 2727              		.loc 1 598 38 is_stmt 0 view .LVU862
 2728 0060 0A4B     		ldr	r3, .L231
 2729 0062 0093     		str	r3, [sp]
 599:Core/Src/main.c ****   PeriphClkInit.Adc12ClockSelection = RCC_ADC12PLLCLK_DIV1;
 2730              		.loc 1 599 3 is_stmt 1 view .LVU863
 599:Core/Src/main.c ****   PeriphClkInit.Adc12ClockSelection = RCC_ADC12PLLCLK_DIV1;
 2731              		.loc 1 599 37 is_stmt 0 view .LVU864
 2732 0064 4FF48073 		mov	r3, #256
 2733 0068 0993     		str	r3, [sp, #36]
 600:Core/Src/main.c ****   PeriphClkInit.Adc34ClockSelection = RCC_ADC34PLLCLK_DIV1;
 2734              		.loc 1 600 3 is_stmt 1 view .LVU865
 600:Core/Src/main.c ****   PeriphClkInit.Adc34ClockSelection = RCC_ADC34PLLCLK_DIV1;
 2735              		.loc 1 600 37 is_stmt 0 view .LVU866
 2736 006a 4FF40053 		mov	r3, #8192
 2737 006e 0A93     		str	r3, [sp, #40]
 601:Core/Src/main.c ****   PeriphClkInit.USBClockSelection = RCC_USBCLKSOURCE_PLL_DIV1_5; 
 2738              		.loc 1 601 3 is_stmt 1 view .LVU867
 601:Core/Src/main.c ****   PeriphClkInit.USBClockSelection = RCC_USBCLKSOURCE_PLL_DIV1_5; 
 2739              		.loc 1 601 35 is_stmt 0 view .LVU868
 2740 0070 0E90     		str	r0, [sp, #56]
 602:Core/Src/main.c ****   if (HAL_RCCEx_PeriphCLKConfig(&PeriphClkInit) != HAL_OK) Error_Handler();
 2741              		.loc 1 602 3 is_stmt 1 view .LVU869
 602:Core/Src/main.c ****   if (HAL_RCCEx_PeriphCLKConfig(&PeriphClkInit) != HAL_OK) Error_Handler();
 2742              		.loc 1 602 7 is_stmt 0 view .LVU870
 2743 0072 6846     		mov	r0, sp
 2744 0074 FFF7FEFF 		bl	HAL_RCCEx_PeriphCLKConfig
 2745              	.LVL265:
 602:Core/Src/main.c ****   if (HAL_RCCEx_PeriphCLKConfig(&PeriphClkInit) != HAL_OK) Error_Handler();
 2746              		.loc 1 602 6 discriminator 1 view .LVU871
 2747 0078 28B9     		cbnz	r0, .L230
 603:Core/Src/main.c **** }
 2748              		.loc 1 603 1 view .LVU872
 2749 007a 1EB0     		add	sp, sp, #120
 2750              	.LCFI17:
 2751              		.cfi_remember_state
 2752              		.cfi_def_cfa_offset 8
 2753              		@ sp needed
 2754 007c 10BD     		pop	{r4, pc}
 2755              	.L228:
 2756              	.LCFI18:
 2757              		.cfi_restore_state
 591:Core/Src/main.c ****   if (HAL_RCC_OscConfig(&RCC_OscInitStruct) != HAL_OK) Error_Handler();
 2758              		.loc 1 591 56 is_stmt 1 discriminator 2 view .LVU873
 2759 007e FFF7FEFF 		bl	Error_Handler
 2760              	.LVL266:
 2761              	.L229:
 597:Core/Src/main.c ****   if (HAL_RCC_ClockConfig(&RCC_ClkInitStruct, FLASH_LATENCY_2) != HAL_OK) Error_Handler();
 2762              		.loc 1 597 75 discriminator 2 view .LVU874
 2763 0082 FFF7FEFF 		bl	Error_Handler
 2764              	.LVL267:
ARM GAS  C:\Users\naoki\AppData\Local\Temp\ccZXKLPf.s 			page 71


 2765              	.L230:
 602:Core/Src/main.c ****   if (HAL_RCCEx_PeriphCLKConfig(&PeriphClkInit) != HAL_OK) Error_Handler();
 2766              		.loc 1 602 60 discriminator 2 view .LVU875
 2767 0086 FFF7FEFF 		bl	Error_Handler
 2768              	.LVL268:
 2769              	.L232:
 2770 008a 00BF     		.align	2
 2771              	.L231:
 2772 008c 80010200 		.word	131456
 2773              		.cfi_endproc
 2774              	.LFE144:
 2776              		.section	.text.main,"ax",%progbits
 2777              		.align	1
 2778              		.global	main
 2779              		.syntax unified
 2780              		.thumb
 2781              		.thumb_func
 2783              	main:
 2784              	.LFB143:
 533:Core/Src/main.c **** int main(void) {
 2785              		.loc 1 533 16 view -0
 2786              		.cfi_startproc
 2787              		@ args = 0, pretend = 0, frame = 0
 2788              		@ frame_needed = 0, uses_anonymous_args = 0
 2789 0000 38B5     		push	{r3, r4, r5, lr}
 2790              	.LCFI19:
 2791              		.cfi_def_cfa_offset 16
 2792              		.cfi_offset 3, -16
 2793              		.cfi_offset 4, -12
 2794              		.cfi_offset 5, -8
 2795              		.cfi_offset 14, -4
 534:Core/Src/main.c ****     HAL_Init();
 2796              		.loc 1 534 5 view .LVU877
 2797 0002 FFF7FEFF 		bl	HAL_Init
 2798              	.LVL269:
 535:Core/Src/main.c ****     SystemClock_Config();
 2799              		.loc 1 535 5 view .LVU878
 2800 0006 FFF7FEFF 		bl	SystemClock_Config
 2801              	.LVL270:
 536:Core/Src/main.c ****     MX_GPIO_Init();
 2802              		.loc 1 536 5 view .LVU879
 2803 000a FFF7FEFF 		bl	MX_GPIO_Init
 2804              	.LVL271:
 537:Core/Src/main.c ****     MX_ADC2_Init();
 2805              		.loc 1 537 5 view .LVU880
 2806 000e FFF7FEFF 		bl	MX_ADC2_Init
 2807              	.LVL272:
 538:Core/Src/main.c ****     MX_ADC3_Init();
 2808              		.loc 1 538 5 view .LVU881
 2809 0012 FFF7FEFF 		bl	MX_ADC3_Init
 2810              	.LVL273:
 539:Core/Src/main.c ****     MX_ADC4_Init();
 2811              		.loc 1 539 5 view .LVU882
 2812 0016 FFF7FEFF 		bl	MX_ADC4_Init
 2813              	.LVL274:
 541:Core/Src/main.c ****     HAL_Delay(100);
 2814              		.loc 1 541 5 view .LVU883
ARM GAS  C:\Users\naoki\AppData\Local\Temp\ccZXKLPf.s 			page 72


 2815 001a 6420     		movs	r0, #100
 2816 001c FFF7FEFF 		bl	HAL_Delay
 2817              	.LVL275:
 542:Core/Src/main.c ****     scan_all_keys_fast(adc_raw_values);
 2818              		.loc 1 542 5 view .LVU884
 2819 0020 324C     		ldr	r4, .L250
 2820 0022 2046     		mov	r0, r4
 2821 0024 FFF7FEFF 		bl	scan_all_keys_fast
 2822              	.LVL276:
 544:Core/Src/main.c ****     int diff_up_down = abs((int)adc_raw_values[18] - (int)adc_raw_values[1]);
 2823              		.loc 1 544 5 view .LVU885
 544:Core/Src/main.c ****     int diff_up_down = abs((int)adc_raw_values[18] - (int)adc_raw_values[1]);
 2824              		.loc 1 544 47 is_stmt 0 view .LVU886
 2825 0028 A38C     		ldrh	r3, [r4, #36]
 544:Core/Src/main.c ****     int diff_up_down = abs((int)adc_raw_values[18] - (int)adc_raw_values[1]);
 2826              		.loc 1 544 73 view .LVU887
 2827 002a 6288     		ldrh	r2, [r4, #2]
 544:Core/Src/main.c ****     int diff_up_down = abs((int)adc_raw_values[18] - (int)adc_raw_values[1]);
 2828              		.loc 1 544 52 view .LVU888
 2829 002c 9B1A     		subs	r3, r3, r2
 544:Core/Src/main.c ****     int diff_up_down = abs((int)adc_raw_values[18] - (int)adc_raw_values[1]);
 2830              		.loc 1 544 9 view .LVU889
 2831 002e 002B     		cmp	r3, #0
 2832 0030 B8BF     		it	lt
 2833 0032 5B42     		rsblt	r3, r3, #0
 2834              	.LVL277:
 546:Core/Src/main.c ****     if (diff_up_down > 500) { 
 2835              		.loc 1 546 5 is_stmt 1 view .LVU890
 546:Core/Src/main.c ****     if (diff_up_down > 500) { 
 2836              		.loc 1 546 8 is_stmt 0 view .LVU891
 2837 0034 B3F5FA7F 		cmp	r3, #500
 2838 0038 09DC     		bgt	.L246
 561:Core/Src/main.c ****         g_boot_mode = 0; 
 2839              		.loc 1 561 9 is_stmt 1 view .LVU892
 561:Core/Src/main.c ****         g_boot_mode = 0; 
 2840              		.loc 1 561 21 is_stmt 0 view .LVU893
 2841 003a 2D4B     		ldr	r3, .L250+4
 2842              	.LVL278:
 561:Core/Src/main.c ****         g_boot_mode = 0; 
 2843              		.loc 1 561 21 view .LVU894
 2844 003c 0022     		movs	r2, #0
 2845              	.LVL279:
 561:Core/Src/main.c ****         g_boot_mode = 0; 
 2846              		.loc 1 561 21 view .LVU895
 2847 003e 1A70     		strb	r2, [r3]
 2848              	.LVL280:
 2849              	.L238:
 564:Core/Src/main.c ****     Setup_Keys(); 
 2850              		.loc 1 564 5 is_stmt 1 view .LVU896
 2851 0040 FFF7FEFF 		bl	Setup_Keys
 2852              	.LVL281:
 565:Core/Src/main.c ****     Load_Config();
 2853              		.loc 1 565 5 view .LVU897
 2854 0044 FFF7FEFF 		bl	Load_Config
 2855              	.LVL282:
 567:Core/Src/main.c ****     MX_USB_DEVICE_Init();
 2856              		.loc 1 567 5 view .LVU898
ARM GAS  C:\Users\naoki\AppData\Local\Temp\ccZXKLPf.s 			page 73


 2857 0048 FFF7FEFF 		bl	MX_USB_DEVICE_Init
 2858              	.LVL283:
 2859 004c 3DE0     		b	.L243
 2860              	.LVL284:
 2861              	.L246:
 2862              	.LBB42:
 547:Core/Src/main.c ****         g_boot_mode = 1; 
 2863              		.loc 1 547 9 view .LVU899
 547:Core/Src/main.c ****         g_boot_mode = 1; 
 2864              		.loc 1 547 21 is_stmt 0 view .LVU900
 2865 004e 284B     		ldr	r3, .L250+4
 2866              	.LVL285:
 547:Core/Src/main.c ****         g_boot_mode = 1; 
 2867              		.loc 1 547 21 view .LVU901
 2868 0050 0122     		movs	r2, #1
 2869              	.LVL286:
 547:Core/Src/main.c ****         g_boot_mode = 1; 
 2870              		.loc 1 547 21 view .LVU902
 2871 0052 1A70     		strb	r2, [r3]
 549:Core/Src/main.c ****         uint32_t start_tick = HAL_GetTick();
 2872              		.loc 1 549 9 is_stmt 1 view .LVU903
 549:Core/Src/main.c ****         uint32_t start_tick = HAL_GetTick();
 2873              		.loc 1 549 31 is_stmt 0 view .LVU904
 2874 0054 FFF7FEFF 		bl	HAL_GetTick
 2875              	.LVL287:
 549:Core/Src/main.c ****         uint32_t start_tick = HAL_GetTick();
 2876              		.loc 1 549 31 view .LVU905
 2877 0058 0446     		mov	r4, r0
 2878              	.LVL288:
 550:Core/Src/main.c ****         while ((HAL_GetTick() - start_tick) < 5000) { 
 2879              		.loc 1 550 9 is_stmt 1 view .LVU906
 2880              	.L235:
 550:Core/Src/main.c ****         while ((HAL_GetTick() - start_tick) < 5000) { 
 2881              		.loc 1 550 45 view .LVU907
 550:Core/Src/main.c ****         while ((HAL_GetTick() - start_tick) < 5000) { 
 2882              		.loc 1 550 17 is_stmt 0 view .LVU908
 2883 005a FFF7FEFF 		bl	HAL_GetTick
 2884              	.LVL289:
 550:Core/Src/main.c ****         while ((HAL_GetTick() - start_tick) < 5000) { 
 2885              		.loc 1 550 31 discriminator 1 view .LVU909
 2886 005e 031B     		subs	r3, r0, r4
 550:Core/Src/main.c ****         while ((HAL_GetTick() - start_tick) < 5000) { 
 2887              		.loc 1 550 45 discriminator 1 view .LVU910
 2888 0060 41F28732 		movw	r2, #4999
 2889 0064 9342     		cmp	r3, r2
 2890 0066 10D8     		bhi	.L236
 2891              	.LBB43:
 551:Core/Src/main.c ****             scan_all_keys_fast(adc_raw_values);
 2892              		.loc 1 551 13 is_stmt 1 view .LVU911
 2893 0068 204D     		ldr	r5, .L250
 2894 006a 2846     		mov	r0, r5
 2895 006c FFF7FEFF 		bl	scan_all_keys_fast
 2896              	.LVL290:
 552:Core/Src/main.c ****             int current_diff = abs((int)adc_raw_values[18] - (int)adc_raw_values[1]);
 2897              		.loc 1 552 13 view .LVU912
 552:Core/Src/main.c ****             int current_diff = abs((int)adc_raw_values[18] - (int)adc_raw_values[1]);
 2898              		.loc 1 552 55 is_stmt 0 view .LVU913
ARM GAS  C:\Users\naoki\AppData\Local\Temp\ccZXKLPf.s 			page 74


 2899 0070 AB8C     		ldrh	r3, [r5, #36]
 552:Core/Src/main.c ****             int current_diff = abs((int)adc_raw_values[18] - (int)adc_raw_values[1]);
 2900              		.loc 1 552 81 view .LVU914
 2901 0072 6A88     		ldrh	r2, [r5, #2]
 552:Core/Src/main.c ****             int current_diff = abs((int)adc_raw_values[18] - (int)adc_raw_values[1]);
 2902              		.loc 1 552 60 view .LVU915
 2903 0074 9B1A     		subs	r3, r3, r2
 552:Core/Src/main.c ****             int current_diff = abs((int)adc_raw_values[18] - (int)adc_raw_values[1]);
 2904              		.loc 1 552 17 view .LVU916
 2905 0076 002B     		cmp	r3, #0
 2906 0078 B8BF     		it	lt
 2907 007a 5B42     		rsblt	r3, r3, #0
 2908              	.LVL291:
 553:Core/Src/main.c ****             if (current_diff < 300) { 
 2909              		.loc 1 553 13 is_stmt 1 view .LVU917
 553:Core/Src/main.c ****             if (current_diff < 300) { 
 2910              		.loc 1 553 16 is_stmt 0 view .LVU918
 2911 007c B3F5967F 		cmp	r3, #300
 2912 0080 03DB     		blt	.L236
 556:Core/Src/main.c ****             HAL_Delay(10);
 2913              		.loc 1 556 13 is_stmt 1 view .LVU919
 2914 0082 0A20     		movs	r0, #10
 2915 0084 FFF7FEFF 		bl	HAL_Delay
 2916              	.LVL292:
 556:Core/Src/main.c ****             HAL_Delay(10);
 2917              		.loc 1 556 13 is_stmt 0 view .LVU920
 2918 0088 E7E7     		b	.L235
 2919              	.LVL293:
 2920              	.L236:
 556:Core/Src/main.c ****             HAL_Delay(10);
 2921              		.loc 1 556 13 view .LVU921
 2922              	.LBE43:
 558:Core/Src/main.c ****         HAL_Delay(500);
 2923              		.loc 1 558 9 is_stmt 1 view .LVU922
 2924 008a 4FF4FA70 		mov	r0, #500
 2925 008e FFF7FEFF 		bl	HAL_Delay
 2926              	.LVL294:
 2927              	.LBE42:
 2928 0092 D5E7     		b	.L238
 2929              	.LVL295:
 2930              	.L248:
 570:Core/Src/main.c ****         if (g_req_calibrate) { HAL_Delay(100); Setup_Keys(); g_req_calibrate = false; }
 2931              		.loc 1 570 32 discriminator 1 view .LVU923
 2932 0094 6420     		movs	r0, #100
 2933 0096 FFF7FEFF 		bl	HAL_Delay
 2934              	.LVL296:
 570:Core/Src/main.c ****         if (g_req_calibrate) { HAL_Delay(100); Setup_Keys(); g_req_calibrate = false; }
 2935              		.loc 1 570 48 discriminator 2 view .LVU924
 2936 009a FFF7FEFF 		bl	Setup_Keys
 2937              	.LVL297:
 570:Core/Src/main.c ****         if (g_req_calibrate) { HAL_Delay(100); Setup_Keys(); g_req_calibrate = false; }
 2938              		.loc 1 570 62 discriminator 3 view .LVU925
 570:Core/Src/main.c ****         if (g_req_calibrate) { HAL_Delay(100); Setup_Keys(); g_req_calibrate = false; }
 2939              		.loc 1 570 78 is_stmt 0 discriminator 3 view .LVU926
 2940 009e 154B     		ldr	r3, .L250+8
 2941 00a0 0022     		movs	r2, #0
 2942 00a2 1A70     		strb	r2, [r3]
ARM GAS  C:\Users\naoki\AppData\Local\Temp\ccZXKLPf.s 			page 75


 2943 00a4 15E0     		b	.L239
 2944              	.L249:
 571:Core/Src/main.c ****         if (g_req_save) { Save_Config(); g_req_save = false; }
 2945              		.loc 1 571 27 is_stmt 1 discriminator 1 view .LVU927
 2946 00a6 FFF7FEFF 		bl	Save_Config
 2947              	.LVL298:
 571:Core/Src/main.c ****         if (g_req_save) { Save_Config(); g_req_save = false; }
 2948              		.loc 1 571 42 discriminator 2 view .LVU928
 571:Core/Src/main.c ****         if (g_req_save) { Save_Config(); g_req_save = false; }
 2949              		.loc 1 571 53 is_stmt 0 discriminator 2 view .LVU929
 2950 00aa 134B     		ldr	r3, .L250+12
 2951 00ac 0022     		movs	r2, #0
 2952 00ae 1A70     		strb	r2, [r3]
 2953 00b0 13E0     		b	.L240
 2954              	.LVL299:
 2955              	.L242:
 2956              	.LBB44:
 574:Core/Src/main.c ****         for(int i=0; i<KEY_COUNT; i++) Process_Rapid_Trigger(i, adc_raw_values[i]);
 2957              		.loc 1 574 40 is_stmt 1 discriminator 4 view .LVU930
 2958 00b2 0E4B     		ldr	r3, .L250
 2959 00b4 33F81410 		ldrh	r1, [r3, r4, lsl #1]
 2960 00b8 2046     		mov	r0, r4
 2961 00ba FFF7FEFF 		bl	Process_Rapid_Trigger
 2962              	.LVL300:
 574:Core/Src/main.c ****         for(int i=0; i<KEY_COUNT; i++) Process_Rapid_Trigger(i, adc_raw_values[i]);
 2963              		.loc 1 574 36 discriminator 4 view .LVU931
 2964 00be 0134     		adds	r4, r4, #1
 2965              	.LVL301:
 2966              	.L241:
 574:Core/Src/main.c ****         for(int i=0; i<KEY_COUNT; i++) Process_Rapid_Trigger(i, adc_raw_values[i]);
 2967              		.loc 1 574 23 discriminator 3 view .LVU932
 2968 00c0 132C     		cmp	r4, #19
 2969 00c2 F6DD     		ble	.L242
 2970              	.LBE44:
 576:Core/Src/main.c ****         if (g_boot_mode == 0) Send_Reports();
 2971              		.loc 1 576 9 view .LVU933
 576:Core/Src/main.c ****         if (g_boot_mode == 0) Send_Reports();
 2972              		.loc 1 576 25 is_stmt 0 view .LVU934
 2973 00c4 0A4B     		ldr	r3, .L250+4
 2974 00c6 1B78     		ldrb	r3, [r3]	@ zero_extendqisi2
 576:Core/Src/main.c ****         if (g_boot_mode == 0) Send_Reports();
 2975              		.loc 1 576 12 view .LVU935
 2976 00c8 63B1     		cbz	r3, .L247
 2977              	.LVL302:
 2978              	.L243:
 569:Core/Src/main.c ****     while (1) {
 2979              		.loc 1 569 5 is_stmt 1 view .LVU936
 570:Core/Src/main.c ****         if (g_req_calibrate) { HAL_Delay(100); Setup_Keys(); g_req_calibrate = false; }
 2980              		.loc 1 570 9 view .LVU937
 570:Core/Src/main.c ****         if (g_req_calibrate) { HAL_Delay(100); Setup_Keys(); g_req_calibrate = false; }
 2981              		.loc 1 570 13 is_stmt 0 view .LVU938
 2982 00ca 0A4B     		ldr	r3, .L250+8
 2983 00cc 1B78     		ldrb	r3, [r3]	@ zero_extendqisi2
 570:Core/Src/main.c ****         if (g_req_calibrate) { HAL_Delay(100); Setup_Keys(); g_req_calibrate = false; }
 2984              		.loc 1 570 12 view .LVU939
 2985 00ce 002B     		cmp	r3, #0
 2986 00d0 E0D1     		bne	.L248
ARM GAS  C:\Users\naoki\AppData\Local\Temp\ccZXKLPf.s 			page 76


 2987              	.L239:
 571:Core/Src/main.c ****         if (g_req_save) { Save_Config(); g_req_save = false; }
 2988              		.loc 1 571 9 is_stmt 1 view .LVU940
 571:Core/Src/main.c ****         if (g_req_save) { Save_Config(); g_req_save = false; }
 2989              		.loc 1 571 13 is_stmt 0 view .LVU941
 2990 00d2 094B     		ldr	r3, .L250+12
 2991 00d4 1B78     		ldrb	r3, [r3]	@ zero_extendqisi2
 571:Core/Src/main.c ****         if (g_req_save) { Save_Config(); g_req_save = false; }
 2992              		.loc 1 571 12 view .LVU942
 2993 00d6 002B     		cmp	r3, #0
 2994 00d8 E5D1     		bne	.L249
 2995              	.L240:
 573:Core/Src/main.c ****         scan_all_keys_fast(adc_raw_values);
 2996              		.loc 1 573 9 is_stmt 1 view .LVU943
 2997 00da 0448     		ldr	r0, .L250
 2998 00dc FFF7FEFF 		bl	scan_all_keys_fast
 2999              	.LVL303:
 574:Core/Src/main.c ****         for(int i=0; i<KEY_COUNT; i++) Process_Rapid_Trigger(i, adc_raw_values[i]);
 3000              		.loc 1 574 9 view .LVU944
 3001              	.LBB45:
 574:Core/Src/main.c ****         for(int i=0; i<KEY_COUNT; i++) Process_Rapid_Trigger(i, adc_raw_values[i]);
 3002              		.loc 1 574 13 view .LVU945
 574:Core/Src/main.c ****         for(int i=0; i<KEY_COUNT; i++) Process_Rapid_Trigger(i, adc_raw_values[i]);
 3003              		.loc 1 574 17 is_stmt 0 view .LVU946
 3004 00e0 0024     		movs	r4, #0
 574:Core/Src/main.c ****         for(int i=0; i<KEY_COUNT; i++) Process_Rapid_Trigger(i, adc_raw_values[i]);
 3005              		.loc 1 574 9 view .LVU947
 3006 00e2 EDE7     		b	.L241
 3007              	.LVL304:
 3008              	.L247:
 574:Core/Src/main.c ****         for(int i=0; i<KEY_COUNT; i++) Process_Rapid_Trigger(i, adc_raw_values[i]);
 3009              		.loc 1 574 9 view .LVU948
 3010              	.LBE45:
 576:Core/Src/main.c ****         if (g_boot_mode == 0) Send_Reports();
 3011              		.loc 1 576 31 is_stmt 1 discriminator 1 view .LVU949
 3012 00e4 FFF7FEFF 		bl	Send_Reports
 3013              	.LVL305:
 3014 00e8 EFE7     		b	.L243
 3015              	.L251:
 3016 00ea 00BF     		.align	2
 3017              	.L250:
 3018 00ec 00000000 		.word	adc_raw_values
 3019 00f0 00000000 		.word	g_boot_mode
 3020 00f4 00000000 		.word	g_req_calibrate
 3021 00f8 00000000 		.word	g_req_save
 3022              		.cfi_endproc
 3023              	.LFE143:
 3025              		.section	.bss.tx.0,"aw",%nobits
 3026              		.align	2
 3029              	tx.0:
 3030 0000 00000000 		.space	64
 3030      00000000 
 3030      00000000 
 3030      00000000 
 3030      00000000 
 3031              		.section	.bss.tx.1,"aw",%nobits
 3032              		.align	2
ARM GAS  C:\Users\naoki\AppData\Local\Temp\ccZXKLPf.s 			page 77


 3035              	tx.1:
 3036 0000 00000000 		.space	64
 3036      00000000 
 3036      00000000 
 3036      00000000 
 3036      00000000 
 3037              		.section	.bss.tx.2,"aw",%nobits
 3038              		.align	2
 3041              	tx.2:
 3042 0000 00000000 		.space	64
 3042      00000000 
 3042      00000000 
 3042      00000000 
 3042      00000000 
 3043              		.section	.bss.prev_report.3,"aw",%nobits
 3044              		.align	2
 3047              	prev_report.3:
 3048 0000 00000000 		.space	20
 3048      00000000 
 3048      00000000 
 3048      00000000 
 3048      00000000 
 3049              		.global	webhid_tx_buf
 3050              		.section	.bss.webhid_tx_buf,"aw",%nobits
 3051              		.align	2
 3054              	webhid_tx_buf:
 3055 0000 00000000 		.space	64
 3055      00000000 
 3055      00000000 
 3055      00000000 
 3055      00000000 
 3056              		.global	key_states
 3057              		.section	.bss.key_states,"aw",%nobits
 3058              		.align	2
 3061              	key_states:
 3062 0000 00000000 		.space	720
 3062      00000000 
 3062      00000000 
 3062      00000000 
 3062      00000000 
 3063              		.global	adc_raw_values
 3064              		.section	.bss.adc_raw_values,"aw",%nobits
 3065              		.align	2
 3068              	adc_raw_values:
 3069 0000 00000000 		.space	40
 3069      00000000 
 3069      00000000 
 3069      00000000 
 3069      00000000 
 3070              		.global	last_ud_winner
 3071              		.section	.bss.last_ud_winner,"aw",%nobits
 3072              		.align	2
 3075              	last_ud_winner:
 3076 0000 00000000 		.space	4
 3077              		.global	last_lr_winner
 3078              		.section	.bss.last_lr_winner,"aw",%nobits
 3079              		.align	2
ARM GAS  C:\Users\naoki\AppData\Local\Temp\ccZXKLPf.s 			page 78


 3082              	last_lr_winner:
 3083 0000 00000000 		.space	4
 3084              		.global	last_down_state
 3085              		.section	.bss.last_down_state,"aw",%nobits
 3088              	last_down_state:
 3089 0000 00       		.space	1
 3090              		.global	last_up_state
 3091              		.section	.bss.last_up_state,"aw",%nobits
 3094              	last_up_state:
 3095 0000 00       		.space	1
 3096              		.global	last_right_state
 3097              		.section	.bss.last_right_state,"aw",%nobits
 3100              	last_right_state:
 3101 0000 00       		.space	1
 3102              		.global	last_left_state
 3103              		.section	.bss.last_left_state,"aw",%nobits
 3106              	last_left_state:
 3107 0000 00       		.space	1
 3108              		.global	g_combos
 3109              		.section	.bss.g_combos,"aw",%nobits
 3110              		.align	2
 3113              	g_combos:
 3114 0000 00000000 		.space	16
 3114      00000000 
 3114      00000000 
 3114      00000000 
 3115              		.global	g_socd_mode
 3116              		.section	.bss.g_socd_mode,"aw",%nobits
 3119              	g_socd_mode:
 3120 0000 00       		.space	1
 3121              		.global	g_input_enabled
 3122              		.section	.data.g_input_enabled,"aw"
 3125              	g_input_enabled:
 3126 0000 01       		.byte	1
 3127              		.global	g_req_save
 3128              		.section	.bss.g_req_save,"aw",%nobits
 3131              	g_req_save:
 3132 0000 00       		.space	1
 3133              		.global	g_req_calibrate
 3134              		.section	.bss.g_req_calibrate,"aw",%nobits
 3137              	g_req_calibrate:
 3138 0000 00       		.space	1
 3139              		.global	g_boot_mode
 3140              		.section	.bss.g_boot_mode,"aw",%nobits
 3143              	g_boot_mode:
 3144 0000 00       		.space	1
 3145              		.global	key_map
 3146              		.section	.data.key_map,"aw"
 3147              		.align	2
 3150              	key_map:
 3151 0000 04020308 		.ascii	"\004\002\003\010\007\013\006\005\012\011\017\016\010"
 3151      070B0605 
 3151      0A090F0E 
 3151      08
 3152 000d 0C0D1011 		.ascii	"\014\015\020\021\007\001\010"
 3152      070108
 3153              		.text
ARM GAS  C:\Users\naoki\AppData\Local\Temp\ccZXKLPf.s 			page 79


 3154              	.Letext0:
 3155              		.file 3 "C:/built/gnu/arm-none-eabi/include/machine/_default_types.h"
 3156              		.file 4 "C:/built/gnu/arm-none-eabi/include/sys/_stdint.h"
 3157              		.file 5 "Drivers/CMSIS/Device/ST/STM32F3xx/Include/stm32f303xc.h"
 3158              		.file 6 "Drivers/CMSIS/Device/ST/STM32F3xx/Include/stm32f3xx.h"
 3159              		.file 7 "Drivers/STM32F3xx_HAL_Driver/Inc/stm32f3xx_hal_def.h"
 3160              		.file 8 "Drivers/STM32F3xx_HAL_Driver/Inc/stm32f3xx_hal_rcc.h"
 3161              		.file 9 "Drivers/STM32F3xx_HAL_Driver/Inc/stm32f3xx_hal_rcc_ex.h"
 3162              		.file 10 "Drivers/STM32F3xx_HAL_Driver/Inc/stm32f3xx_hal_gpio.h"
 3163              		.file 11 "Drivers/STM32F3xx_HAL_Driver/Inc/stm32f3xx_hal_dma.h"
 3164              		.file 12 "Drivers/STM32F3xx_HAL_Driver/Inc/stm32f3xx_hal_adc_ex.h"
 3165              		.file 13 "Drivers/STM32F3xx_HAL_Driver/Inc/stm32f3xx_hal_adc.h"
 3166              		.file 14 "Drivers/STM32F3xx_HAL_Driver/Inc/stm32f3xx_hal_flash_ex.h"
 3167              		.file 15 "Core/Inc/main.h"
 3168              		.file 16 "Core/Inc/adc.h"
 3169              		.file 17 "Middlewares/ST/STM32_USB_Device_Library/Core/Inc/usbd_def.h"
 3170              		.file 18 "USB_DEVICE/App/usb_device.h"
 3171              		.file 19 "Core/Inc/gpio.h"
 3172              		.file 20 "Drivers/STM32F3xx_HAL_Driver/Inc/stm32f3xx_hal.h"
 3173              		.file 21 "C:/built/gnu/arm-none-eabi/include/string.h"
 3174              		.file 22 "Drivers/STM32F3xx_HAL_Driver/Inc/stm32f3xx_hal_flash.h"
 3175              		.file 23 "<built-in>"
ARM GAS  C:\Users\naoki\AppData\Local\Temp\ccZXKLPf.s 			page 80

